   1              		.cpu cortex-m4
   2              		.eabi_attribute 27, 1
   3              		.eabi_attribute 28, 1
   4              		.eabi_attribute 20, 1
   5              		.eabi_attribute 21, 1
   6              		.eabi_attribute 23, 3
   7              		.eabi_attribute 24, 1
   8              		.eabi_attribute 25, 1
   9              		.eabi_attribute 26, 1
  10              		.eabi_attribute 30, 4
  11              		.eabi_attribute 34, 1
  12              		.eabi_attribute 18, 4
  13              		.file	"udc.c"
  14              		.text
  15              	.Ltext0:
  16              		.cfi_sections	.debug_frame
  17              		.section	.text.udc_update_iface_desc,"ax",%progbits
  18              		.align	1
  19              		.arch armv7e-m
  20              		.syntax unified
  21              		.thumb
  22              		.thumb_func
  23              		.fpu fpv4-sp-d16
  25              	udc_update_iface_desc:
  26              	.LVL0:
  27              	.LFB18:
  28              		.file 1 "tmk_core/protocol/arm_atsam/usb/udc.c"
   1:tmk_core/protocol/arm_atsam/usb/udc.c **** /**
   2:tmk_core/protocol/arm_atsam/usb/udc.c ****  * \file
   3:tmk_core/protocol/arm_atsam/usb/udc.c ****  *
   4:tmk_core/protocol/arm_atsam/usb/udc.c ****  * \brief USB Device Controller (UDC)
   5:tmk_core/protocol/arm_atsam/usb/udc.c ****  *
   6:tmk_core/protocol/arm_atsam/usb/udc.c ****  * Copyright (c) 2009-2015 Atmel Corporation. All rights reserved.
   7:tmk_core/protocol/arm_atsam/usb/udc.c ****  *
   8:tmk_core/protocol/arm_atsam/usb/udc.c ****  * \asf_license_start
   9:tmk_core/protocol/arm_atsam/usb/udc.c ****  *
  10:tmk_core/protocol/arm_atsam/usb/udc.c ****  * \page License
  11:tmk_core/protocol/arm_atsam/usb/udc.c ****  *
  12:tmk_core/protocol/arm_atsam/usb/udc.c ****  * Redistribution and use in source and binary forms, with or without
  13:tmk_core/protocol/arm_atsam/usb/udc.c ****  * modification, are permitted provided that the following conditions are met:
  14:tmk_core/protocol/arm_atsam/usb/udc.c ****  *
  15:tmk_core/protocol/arm_atsam/usb/udc.c ****  * 1. Redistributions of source code must retain the above copyright notice,
  16:tmk_core/protocol/arm_atsam/usb/udc.c ****  *    this list of conditions and the following disclaimer.
  17:tmk_core/protocol/arm_atsam/usb/udc.c ****  *
  18:tmk_core/protocol/arm_atsam/usb/udc.c ****  * 2. Redistributions in binary form must reproduce the above copyright notice,
  19:tmk_core/protocol/arm_atsam/usb/udc.c ****  *    this list of conditions and the following disclaimer in the documentation
  20:tmk_core/protocol/arm_atsam/usb/udc.c ****  *    and/or other materials provided with the distribution.
  21:tmk_core/protocol/arm_atsam/usb/udc.c ****  *
  22:tmk_core/protocol/arm_atsam/usb/udc.c ****  * 3. The name of Atmel may not be used to endorse or promote products derived
  23:tmk_core/protocol/arm_atsam/usb/udc.c ****  *    from this software without specific prior written permission.
  24:tmk_core/protocol/arm_atsam/usb/udc.c ****  *
  25:tmk_core/protocol/arm_atsam/usb/udc.c ****  * 4. This software may only be redistributed and used in connection with an
  26:tmk_core/protocol/arm_atsam/usb/udc.c ****  *    Atmel microcontroller product.
  27:tmk_core/protocol/arm_atsam/usb/udc.c ****  *
  28:tmk_core/protocol/arm_atsam/usb/udc.c ****  * THIS SOFTWARE IS PROVIDED BY ATMEL "AS IS" AND ANY EXPRESS OR IMPLIED
  29:tmk_core/protocol/arm_atsam/usb/udc.c ****  * WARRANTIES, INCLUDING, BUT NOT LIMITED TO, THE IMPLIED WARRANTIES OF
  30:tmk_core/protocol/arm_atsam/usb/udc.c ****  * MERCHANTABILITY, FITNESS FOR A PARTICULAR PURPOSE AND NON-INFRINGEMENT ARE
  31:tmk_core/protocol/arm_atsam/usb/udc.c ****  * EXPRESSLY AND SPECIFICALLY DISCLAIMED. IN NO EVENT SHALL ATMEL BE LIABLE FOR
  32:tmk_core/protocol/arm_atsam/usb/udc.c ****  * ANY DIRECT, INDIRECT, INCIDENTAL, SPECIAL, EXEMPLARY, OR CONSEQUENTIAL
  33:tmk_core/protocol/arm_atsam/usb/udc.c ****  * DAMAGES (INCLUDING, BUT NOT LIMITED TO, PROCUREMENT OF SUBSTITUTE GOODS
  34:tmk_core/protocol/arm_atsam/usb/udc.c ****  * OR SERVICES; LOSS OF USE, DATA, OR PROFITS; OR BUSINESS INTERRUPTION)
  35:tmk_core/protocol/arm_atsam/usb/udc.c ****  * HOWEVER CAUSED AND ON ANY THEORY OF LIABILITY, WHETHER IN CONTRACT,
  36:tmk_core/protocol/arm_atsam/usb/udc.c ****  * STRICT LIABILITY, OR TORT (INCLUDING NEGLIGENCE OR OTHERWISE) ARISING IN
  37:tmk_core/protocol/arm_atsam/usb/udc.c ****  * ANY WAY OUT OF THE USE OF THIS SOFTWARE, EVEN IF ADVISED OF THE
  38:tmk_core/protocol/arm_atsam/usb/udc.c ****  * POSSIBILITY OF SUCH DAMAGE.
  39:tmk_core/protocol/arm_atsam/usb/udc.c ****  *
  40:tmk_core/protocol/arm_atsam/usb/udc.c ****  * \asf_license_stop
  41:tmk_core/protocol/arm_atsam/usb/udc.c ****  *
  42:tmk_core/protocol/arm_atsam/usb/udc.c ****  */
  43:tmk_core/protocol/arm_atsam/usb/udc.c **** /*
  44:tmk_core/protocol/arm_atsam/usb/udc.c ****  * Support and FAQ: visit <a href="http://www.atmel.com/design-support/">Atmel Support</a>
  45:tmk_core/protocol/arm_atsam/usb/udc.c ****  */
  46:tmk_core/protocol/arm_atsam/usb/udc.c **** 
  47:tmk_core/protocol/arm_atsam/usb/udc.c **** #include "conf_usb.h"
  48:tmk_core/protocol/arm_atsam/usb/udc.c **** #include "usb_protocol.h"
  49:tmk_core/protocol/arm_atsam/usb/udc.c **** #include "udd.h"
  50:tmk_core/protocol/arm_atsam/usb/udc.c **** #include "udc_desc.h"
  51:tmk_core/protocol/arm_atsam/usb/udc.c **** #include "udi_device_conf.h"
  52:tmk_core/protocol/arm_atsam/usb/udc.c **** #include "udi.h"
  53:tmk_core/protocol/arm_atsam/usb/udc.c **** #include "udc.h"
  54:tmk_core/protocol/arm_atsam/usb/udc.c **** #include "md_bootloader.h"
  55:tmk_core/protocol/arm_atsam/usb/udc.c **** 
  56:tmk_core/protocol/arm_atsam/usb/udc.c **** /**
  57:tmk_core/protocol/arm_atsam/usb/udc.c ****  * \ingroup udc_group
  58:tmk_core/protocol/arm_atsam/usb/udc.c ****  * \defgroup udc_group_interne Implementation of UDC
  59:tmk_core/protocol/arm_atsam/usb/udc.c ****  *
  60:tmk_core/protocol/arm_atsam/usb/udc.c ****  * Internal implementation
  61:tmk_core/protocol/arm_atsam/usb/udc.c ****  * @{
  62:tmk_core/protocol/arm_atsam/usb/udc.c ****  */
  63:tmk_core/protocol/arm_atsam/usb/udc.c **** 
  64:tmk_core/protocol/arm_atsam/usb/udc.c **** //! \name Internal variables to manage the USB device
  65:tmk_core/protocol/arm_atsam/usb/udc.c **** //! @{
  66:tmk_core/protocol/arm_atsam/usb/udc.c **** 
  67:tmk_core/protocol/arm_atsam/usb/udc.c **** //! Device status state (see enum usb_device_status in usb_protocol.h)
  68:tmk_core/protocol/arm_atsam/usb/udc.c **** static le16_t udc_device_status;
  69:tmk_core/protocol/arm_atsam/usb/udc.c **** 
  70:tmk_core/protocol/arm_atsam/usb/udc.c **** COMPILER_WORD_ALIGNED
  71:tmk_core/protocol/arm_atsam/usb/udc.c **** //! Device interface setting value
  72:tmk_core/protocol/arm_atsam/usb/udc.c **** static uint8_t udc_iface_setting = 0;
  73:tmk_core/protocol/arm_atsam/usb/udc.c **** 
  74:tmk_core/protocol/arm_atsam/usb/udc.c **** //! Device Configuration number selected by the USB host
  75:tmk_core/protocol/arm_atsam/usb/udc.c **** COMPILER_WORD_ALIGNED
  76:tmk_core/protocol/arm_atsam/usb/udc.c **** static uint8_t udc_num_configuration = 0;
  77:tmk_core/protocol/arm_atsam/usb/udc.c **** 
  78:tmk_core/protocol/arm_atsam/usb/udc.c **** //! Pointer on the selected speed device configuration
  79:tmk_core/protocol/arm_atsam/usb/udc.c **** static udc_config_speed_t UDC_DESC_STORAGE *udc_ptr_conf;
  80:tmk_core/protocol/arm_atsam/usb/udc.c **** 
  81:tmk_core/protocol/arm_atsam/usb/udc.c **** //! Pointer on interface descriptor used by SETUP request.
  82:tmk_core/protocol/arm_atsam/usb/udc.c **** static usb_iface_desc_t UDC_DESC_STORAGE *udc_ptr_iface;
  83:tmk_core/protocol/arm_atsam/usb/udc.c **** 
  84:tmk_core/protocol/arm_atsam/usb/udc.c **** //! @}
  85:tmk_core/protocol/arm_atsam/usb/udc.c **** 
  86:tmk_core/protocol/arm_atsam/usb/udc.c **** //! \name Internal structure to store the USB device main strings
  87:tmk_core/protocol/arm_atsam/usb/udc.c **** //! @{
  88:tmk_core/protocol/arm_atsam/usb/udc.c **** 
  89:tmk_core/protocol/arm_atsam/usb/udc.c **** /**
  90:tmk_core/protocol/arm_atsam/usb/udc.c ****  * \brief Language ID of USB device (US ID by default)
  91:tmk_core/protocol/arm_atsam/usb/udc.c ****  */
  92:tmk_core/protocol/arm_atsam/usb/udc.c **** COMPILER_WORD_ALIGNED
  93:tmk_core/protocol/arm_atsam/usb/udc.c **** static UDC_DESC_STORAGE usb_str_lgid_desc_t udc_string_desc_languageid = {.desc.bLength = sizeof(us
  94:tmk_core/protocol/arm_atsam/usb/udc.c **** 
  95:tmk_core/protocol/arm_atsam/usb/udc.c **** /**
  96:tmk_core/protocol/arm_atsam/usb/udc.c ****  * \brief USB device manufacture name storage
  97:tmk_core/protocol/arm_atsam/usb/udc.c ****  * String is allocated only if USB_DEVICE_MANUFACTURE_NAME is declared
  98:tmk_core/protocol/arm_atsam/usb/udc.c ****  * by usb application configuration
  99:tmk_core/protocol/arm_atsam/usb/udc.c ****  */
 100:tmk_core/protocol/arm_atsam/usb/udc.c **** #ifdef USB_DEVICE_MANUFACTURE_NAME
 101:tmk_core/protocol/arm_atsam/usb/udc.c **** static uint8_t udc_string_manufacturer_name[] = USB_DEVICE_MANUFACTURE_NAME;
 102:tmk_core/protocol/arm_atsam/usb/udc.c **** #    define USB_DEVICE_MANUFACTURE_NAME_SIZE (sizeof(udc_string_manufacturer_name) - 1)
 103:tmk_core/protocol/arm_atsam/usb/udc.c **** #else
 104:tmk_core/protocol/arm_atsam/usb/udc.c **** #    define USB_DEVICE_MANUFACTURE_NAME_SIZE 0
 105:tmk_core/protocol/arm_atsam/usb/udc.c **** #endif
 106:tmk_core/protocol/arm_atsam/usb/udc.c **** 
 107:tmk_core/protocol/arm_atsam/usb/udc.c **** /**
 108:tmk_core/protocol/arm_atsam/usb/udc.c ****  * \brief USB device product name storage
 109:tmk_core/protocol/arm_atsam/usb/udc.c ****  * String is allocated only if USB_DEVICE_PRODUCT_NAME is declared
 110:tmk_core/protocol/arm_atsam/usb/udc.c ****  * by usb application configuration
 111:tmk_core/protocol/arm_atsam/usb/udc.c ****  */
 112:tmk_core/protocol/arm_atsam/usb/udc.c **** #ifdef USB_DEVICE_PRODUCT_NAME
 113:tmk_core/protocol/arm_atsam/usb/udc.c **** static uint8_t udc_string_product_name[] = USB_DEVICE_PRODUCT_NAME;
 114:tmk_core/protocol/arm_atsam/usb/udc.c **** #    define USB_DEVICE_PRODUCT_NAME_SIZE (sizeof(udc_string_product_name) - 1)
 115:tmk_core/protocol/arm_atsam/usb/udc.c **** #else
 116:tmk_core/protocol/arm_atsam/usb/udc.c **** #    define USB_DEVICE_PRODUCT_NAME_SIZE 0
 117:tmk_core/protocol/arm_atsam/usb/udc.c **** #endif
 118:tmk_core/protocol/arm_atsam/usb/udc.c **** 
 119:tmk_core/protocol/arm_atsam/usb/udc.c **** #if defined USB_DEVICE_SERIAL_NAME
 120:tmk_core/protocol/arm_atsam/usb/udc.c **** #    define USB_DEVICE_SERIAL_NAME_SIZE (sizeof(USB_DEVICE_SERIAL_NAME) - 1)
 121:tmk_core/protocol/arm_atsam/usb/udc.c **** #else
 122:tmk_core/protocol/arm_atsam/usb/udc.c **** #    define USB_DEVICE_SERIAL_NAME_SIZE 0
 123:tmk_core/protocol/arm_atsam/usb/udc.c **** #endif
 124:tmk_core/protocol/arm_atsam/usb/udc.c **** 
 125:tmk_core/protocol/arm_atsam/usb/udc.c **** uint8_t     usb_device_serial_name_size = 0;
 126:tmk_core/protocol/arm_atsam/usb/udc.c **** #if defined USB_DEVICE_SERIAL_USE_BOOTLOADER_SERIAL
 127:tmk_core/protocol/arm_atsam/usb/udc.c **** uint8_t     bootloader_serial_number[BOOTLOADER_SERIAL_MAX_SIZE + 1] = "";
 128:tmk_core/protocol/arm_atsam/usb/udc.c **** #endif
 129:tmk_core/protocol/arm_atsam/usb/udc.c **** static const uint8_t *udc_get_string_serial_name(void) {
 130:tmk_core/protocol/arm_atsam/usb/udc.c **** #if defined           USB_DEVICE_SERIAL_USE_BOOTLOADER_SERIAL
 131:tmk_core/protocol/arm_atsam/usb/udc.c ****     uint32_t serial_ptrloc  = (uint32_t)&_srom - 4;
 132:tmk_core/protocol/arm_atsam/usb/udc.c ****     uint32_t serial_address = *(uint32_t *)serial_ptrloc;  // Address of bootloader's serial number
 133:tmk_core/protocol/arm_atsam/usb/udc.c **** 
 134:tmk_core/protocol/arm_atsam/usb/udc.c ****     if (serial_address != 0xFFFFFFFF && serial_address < serial_ptrloc)  // Check for factory progr
 135:tmk_core/protocol/arm_atsam/usb/udc.c ****     {
 136:tmk_core/protocol/arm_atsam/usb/udc.c ****         if ((serial_address & 0xFF) % 4 == 0)  // Check alignment
 137:tmk_core/protocol/arm_atsam/usb/udc.c ****         {
 138:tmk_core/protocol/arm_atsam/usb/udc.c ****             uint16_t *serial_use    = (uint16_t *)(serial_address);  // Point to address of string 
 139:tmk_core/protocol/arm_atsam/usb/udc.c ****             uint8_t   serial_length = 0;
 140:tmk_core/protocol/arm_atsam/usb/udc.c **** 
 141:tmk_core/protocol/arm_atsam/usb/udc.c ****             while ((*(serial_use + serial_length) > 32 && *(serial_use + serial_length) < 127) && s
 142:tmk_core/protocol/arm_atsam/usb/udc.c ****                 bootloader_serial_number[serial_length] = *(serial_use + serial_length) & 0xFF;
 143:tmk_core/protocol/arm_atsam/usb/udc.c ****                 serial_length++;
 144:tmk_core/protocol/arm_atsam/usb/udc.c ****             }
 145:tmk_core/protocol/arm_atsam/usb/udc.c ****             bootloader_serial_number[serial_length] = 0;
 146:tmk_core/protocol/arm_atsam/usb/udc.c **** 
 147:tmk_core/protocol/arm_atsam/usb/udc.c ****             usb_device_serial_name_size = serial_length;
 148:tmk_core/protocol/arm_atsam/usb/udc.c **** 
 149:tmk_core/protocol/arm_atsam/usb/udc.c ****             return bootloader_serial_number;  // Use serial programmed into bootloader rom
 150:tmk_core/protocol/arm_atsam/usb/udc.c ****         }
 151:tmk_core/protocol/arm_atsam/usb/udc.c ****     }
 152:tmk_core/protocol/arm_atsam/usb/udc.c **** #endif
 153:tmk_core/protocol/arm_atsam/usb/udc.c **** 
 154:tmk_core/protocol/arm_atsam/usb/udc.c ****     usb_device_serial_name_size = USB_DEVICE_SERIAL_NAME_SIZE;
 155:tmk_core/protocol/arm_atsam/usb/udc.c **** 
 156:tmk_core/protocol/arm_atsam/usb/udc.c **** #if defined USB_DEVICE_SERIAL_NAME
 157:tmk_core/protocol/arm_atsam/usb/udc.c ****     return (const uint8_t *)USB_DEVICE_SERIAL_NAME;  // Use serial supplied by keyboard's config.h
 158:tmk_core/protocol/arm_atsam/usb/udc.c **** #else
 159:tmk_core/protocol/arm_atsam/usb/udc.c ****     return 0;  // No serial supplied
 160:tmk_core/protocol/arm_atsam/usb/udc.c **** #endif
 161:tmk_core/protocol/arm_atsam/usb/udc.c **** }
 162:tmk_core/protocol/arm_atsam/usb/udc.c **** 
 163:tmk_core/protocol/arm_atsam/usb/udc.c **** /**
 164:tmk_core/protocol/arm_atsam/usb/udc.c ****  * \brief USB device string descriptor
 165:tmk_core/protocol/arm_atsam/usb/udc.c ****  * Structure used to transfer ASCII strings to USB String descriptor structure.
 166:tmk_core/protocol/arm_atsam/usb/udc.c ****  */
 167:tmk_core/protocol/arm_atsam/usb/udc.c **** #ifndef BOOTLOADER_SERIAL_MAX_SIZE
 168:tmk_core/protocol/arm_atsam/usb/udc.c **** #    define BOOTLOADER_SERIAL_MAX_SIZE 0
 169:tmk_core/protocol/arm_atsam/usb/udc.c **** #endif  // BOOTLOADER_SERIAL_MAX_SIZE
 170:tmk_core/protocol/arm_atsam/usb/udc.c **** struct udc_string_desc_t {
 171:tmk_core/protocol/arm_atsam/usb/udc.c ****     usb_str_desc_t header;
 172:tmk_core/protocol/arm_atsam/usb/udc.c ****     le16_t         string[Max(Max(Max(USB_DEVICE_MANUFACTURE_NAME_SIZE, USB_DEVICE_PRODUCT_NAME_SIZ
 173:tmk_core/protocol/arm_atsam/usb/udc.c **** };
 174:tmk_core/protocol/arm_atsam/usb/udc.c **** COMPILER_WORD_ALIGNED
 175:tmk_core/protocol/arm_atsam/usb/udc.c **** static UDC_DESC_STORAGE struct udc_string_desc_t udc_string_desc = {.header.bDescriptorType = USB_D
 176:tmk_core/protocol/arm_atsam/usb/udc.c **** //! @}
 177:tmk_core/protocol/arm_atsam/usb/udc.c **** 
 178:tmk_core/protocol/arm_atsam/usb/udc.c **** usb_iface_desc_t UDC_DESC_STORAGE *udc_get_interface_desc(void) { return udc_ptr_iface; }
 179:tmk_core/protocol/arm_atsam/usb/udc.c **** 
 180:tmk_core/protocol/arm_atsam/usb/udc.c **** /**
 181:tmk_core/protocol/arm_atsam/usb/udc.c ****  * \brief Returns a value to check the end of USB Configuration descriptor
 182:tmk_core/protocol/arm_atsam/usb/udc.c ****  *
 183:tmk_core/protocol/arm_atsam/usb/udc.c ****  * \return address after the last byte of USB Configuration descriptor
 184:tmk_core/protocol/arm_atsam/usb/udc.c ****  */
 185:tmk_core/protocol/arm_atsam/usb/udc.c **** static usb_conf_desc_t UDC_DESC_STORAGE *udc_get_eof_conf(void) { return (UDC_DESC_STORAGE usb_conf
 186:tmk_core/protocol/arm_atsam/usb/udc.c **** 
 187:tmk_core/protocol/arm_atsam/usb/udc.c **** #if (0 != USB_DEVICE_MAX_EP)
 188:tmk_core/protocol/arm_atsam/usb/udc.c **** /**
 189:tmk_core/protocol/arm_atsam/usb/udc.c ****  * \brief Search specific descriptor in global interface descriptor
 190:tmk_core/protocol/arm_atsam/usb/udc.c ****  *
 191:tmk_core/protocol/arm_atsam/usb/udc.c ****  * \param desc       Address of interface descriptor
 192:tmk_core/protocol/arm_atsam/usb/udc.c ****  *                   or previous specific descriptor found
 193:tmk_core/protocol/arm_atsam/usb/udc.c ****  * \param desc_id    Descriptor ID to search
 194:tmk_core/protocol/arm_atsam/usb/udc.c ****  *
 195:tmk_core/protocol/arm_atsam/usb/udc.c ****  * \return address of specific descriptor found
 196:tmk_core/protocol/arm_atsam/usb/udc.c ****  * \return NULL if it is the end of global interface descriptor
 197:tmk_core/protocol/arm_atsam/usb/udc.c ****  */
 198:tmk_core/protocol/arm_atsam/usb/udc.c **** static usb_conf_desc_t UDC_DESC_STORAGE *udc_next_desc_in_iface(usb_conf_desc_t UDC_DESC_STORAGE *d
 199:tmk_core/protocol/arm_atsam/usb/udc.c ****     usb_conf_desc_t UDC_DESC_STORAGE *ptr_eof_desc;
 200:tmk_core/protocol/arm_atsam/usb/udc.c **** 
 201:tmk_core/protocol/arm_atsam/usb/udc.c ****     ptr_eof_desc = udc_get_eof_conf();
 202:tmk_core/protocol/arm_atsam/usb/udc.c ****     // Go to next descriptor
 203:tmk_core/protocol/arm_atsam/usb/udc.c ****     desc = (UDC_DESC_STORAGE usb_conf_desc_t *)((uint8_t *)desc + desc->bLength);
 204:tmk_core/protocol/arm_atsam/usb/udc.c ****     // Check the end of configuration descriptor
 205:tmk_core/protocol/arm_atsam/usb/udc.c ****     while (ptr_eof_desc > desc) {
 206:tmk_core/protocol/arm_atsam/usb/udc.c ****         // If new interface descriptor is found,
 207:tmk_core/protocol/arm_atsam/usb/udc.c ****         // then it is the end of the current global interface descriptor
 208:tmk_core/protocol/arm_atsam/usb/udc.c ****         if (USB_DT_INTERFACE == desc->bDescriptorType) {
 209:tmk_core/protocol/arm_atsam/usb/udc.c ****             break;  // End of global interface descriptor
 210:tmk_core/protocol/arm_atsam/usb/udc.c ****         }
 211:tmk_core/protocol/arm_atsam/usb/udc.c ****         if (desc_id == desc->bDescriptorType) {
 212:tmk_core/protocol/arm_atsam/usb/udc.c ****             return desc;  // Specific descriptor found
 213:tmk_core/protocol/arm_atsam/usb/udc.c ****         }
 214:tmk_core/protocol/arm_atsam/usb/udc.c ****         // Go to next descriptor
 215:tmk_core/protocol/arm_atsam/usb/udc.c ****         desc = (UDC_DESC_STORAGE usb_conf_desc_t *)((uint8_t *)desc + desc->bLength);
 216:tmk_core/protocol/arm_atsam/usb/udc.c ****     }
 217:tmk_core/protocol/arm_atsam/usb/udc.c ****     return NULL;  // No specific descriptor found
 218:tmk_core/protocol/arm_atsam/usb/udc.c **** }
 219:tmk_core/protocol/arm_atsam/usb/udc.c **** #endif
 220:tmk_core/protocol/arm_atsam/usb/udc.c **** 
 221:tmk_core/protocol/arm_atsam/usb/udc.c **** /**
 222:tmk_core/protocol/arm_atsam/usb/udc.c ****  * \brief Search an interface descriptor
 223:tmk_core/protocol/arm_atsam/usb/udc.c ****  * This routine updates the internal pointer udc_ptr_iface.
 224:tmk_core/protocol/arm_atsam/usb/udc.c ****  *
 225:tmk_core/protocol/arm_atsam/usb/udc.c ****  * \param iface_num     Interface number to find in Configuration Descriptor
 226:tmk_core/protocol/arm_atsam/usb/udc.c ****  * \param setting_num   Setting number of interface to find
 227:tmk_core/protocol/arm_atsam/usb/udc.c ****  *
 228:tmk_core/protocol/arm_atsam/usb/udc.c ****  * \return 1 if found or 0 if not found
 229:tmk_core/protocol/arm_atsam/usb/udc.c ****  */
 230:tmk_core/protocol/arm_atsam/usb/udc.c **** static bool udc_update_iface_desc(uint8_t iface_num, uint8_t setting_num) {
  29              		.loc 1 230 75 view -0
  30              		.cfi_startproc
  31              		@ args = 0, pretend = 0, frame = 0
  32              		@ frame_needed = 0, uses_anonymous_args = 0
 231:tmk_core/protocol/arm_atsam/usb/udc.c ****     usb_conf_desc_t UDC_DESC_STORAGE *ptr_end_desc;
  33              		.loc 1 231 5 view .LVU1
 232:tmk_core/protocol/arm_atsam/usb/udc.c **** 
 233:tmk_core/protocol/arm_atsam/usb/udc.c ****     if (0 == udc_num_configuration) {
  34              		.loc 1 233 5 view .LVU2
 230:tmk_core/protocol/arm_atsam/usb/udc.c ****     usb_conf_desc_t UDC_DESC_STORAGE *ptr_end_desc;
  35              		.loc 1 230 75 is_stmt 0 view .LVU3
  36 0000 70B5     		push	{r4, r5, r6, lr}
  37              		.cfi_def_cfa_offset 16
  38              		.cfi_offset 4, -16
  39              		.cfi_offset 5, -12
  40              		.cfi_offset 6, -8
  41              		.cfi_offset 14, -4
  42              		.loc 1 233 11 view .LVU4
  43 0002 114A     		ldr	r2, .L17
  44              		.loc 1 233 8 view .LVU5
  45 0004 1378     		ldrb	r3, [r2]	@ zero_extendqisi2
  46 0006 63B1     		cbz	r3, .L2
 234:tmk_core/protocol/arm_atsam/usb/udc.c ****         return false;
 235:tmk_core/protocol/arm_atsam/usb/udc.c ****     }
 236:tmk_core/protocol/arm_atsam/usb/udc.c **** 
 237:tmk_core/protocol/arm_atsam/usb/udc.c ****     if (iface_num >= udc_ptr_conf->desc->bNumInterfaces) {
  47              		.loc 1 237 5 is_stmt 1 view .LVU6
  48              		.loc 1 237 34 is_stmt 0 view .LVU7
  49 0008 5368     		ldr	r3, [r2, #4]
  50 000a 1B68     		ldr	r3, [r3]
  51              		.loc 1 237 8 view .LVU8
  52 000c 1C79     		ldrb	r4, [r3, #4]	@ zero_extendqisi2
  53 000e 8442     		cmp	r4, r0
  54 0010 07D9     		bls	.L2
 238:tmk_core/protocol/arm_atsam/usb/udc.c ****         return false;
 239:tmk_core/protocol/arm_atsam/usb/udc.c ****     }
 240:tmk_core/protocol/arm_atsam/usb/udc.c **** 
 241:tmk_core/protocol/arm_atsam/usb/udc.c ****     // Start at the beginning of configuration descriptor
 242:tmk_core/protocol/arm_atsam/usb/udc.c ****     udc_ptr_iface = (UDC_DESC_STORAGE usb_iface_desc_t *)udc_ptr_conf->desc;
  55              		.loc 1 242 5 is_stmt 1 view .LVU9
  56              		.loc 1 242 19 is_stmt 0 view .LVU10
  57 0012 9360     		str	r3, [r2, #8]
 243:tmk_core/protocol/arm_atsam/usb/udc.c **** 
 244:tmk_core/protocol/arm_atsam/usb/udc.c ****     // Check the end of configuration descriptor
 245:tmk_core/protocol/arm_atsam/usb/udc.c ****     ptr_end_desc = udc_get_eof_conf();
  58              		.loc 1 245 5 is_stmt 1 view .LVU11
  59              	.LBB4:
  60              	.LBI4:
 185:tmk_core/protocol/arm_atsam/usb/udc.c **** 
  61              		.loc 1 185 42 view .LVU12
  62              	.LBB5:
 185:tmk_core/protocol/arm_atsam/usb/udc.c **** 
  63              		.loc 1 185 67 view .LVU13
 185:tmk_core/protocol/arm_atsam/usb/udc.c **** 
  64              		.loc 1 185 143 is_stmt 0 view .LVU14
  65 0014 5D88     		ldrh	r5, [r3, #2]	@ unaligned
  66              	.LBE5:
  67              	.LBE4:
 246:tmk_core/protocol/arm_atsam/usb/udc.c ****     while (ptr_end_desc > (UDC_DESC_STORAGE usb_conf_desc_t *)udc_ptr_iface) {
  68              		.loc 1 246 11 view .LVU15
  69 0016 0024     		movs	r4, #0
  70              	.LBB7:
  71              	.LBB6:
 185:tmk_core/protocol/arm_atsam/usb/udc.c **** 
  72              		.loc 1 185 74 view .LVU16
  73 0018 1D44     		add	r5, r5, r3
  74              	.LVL1:
 185:tmk_core/protocol/arm_atsam/usb/udc.c **** 
  75              		.loc 1 185 74 view .LVU17
  76              	.LBE6:
  77              	.LBE7:
  78              		.loc 1 246 5 is_stmt 1 view .LVU18
  79              	.L3:
  80              		.loc 1 246 11 is_stmt 0 view .LVU19
  81 001a AB42     		cmp	r3, r5
  82 001c 03D3     		bcc	.L7
  83 001e 04B1     		cbz	r4, .L2
  84 0020 9360     		str	r3, [r2, #8]
  85              	.LVL2:
  86              	.L2:
 247:tmk_core/protocol/arm_atsam/usb/udc.c ****         if (USB_DT_INTERFACE == udc_ptr_iface->bDescriptorType) {
 248:tmk_core/protocol/arm_atsam/usb/udc.c ****             // A interface descriptor is found
 249:tmk_core/protocol/arm_atsam/usb/udc.c ****             // Check interface and alternate setting number
 250:tmk_core/protocol/arm_atsam/usb/udc.c ****             if ((iface_num == udc_ptr_iface->bInterfaceNumber) && (setting_num == udc_ptr_iface->bA
 251:tmk_core/protocol/arm_atsam/usb/udc.c ****                 return true;  // Interface found
 252:tmk_core/protocol/arm_atsam/usb/udc.c ****             }
 253:tmk_core/protocol/arm_atsam/usb/udc.c ****         }
 254:tmk_core/protocol/arm_atsam/usb/udc.c ****         // Go to next descriptor
 255:tmk_core/protocol/arm_atsam/usb/udc.c ****         udc_ptr_iface = (UDC_DESC_STORAGE usb_iface_desc_t *)((uint8_t *)udc_ptr_iface + udc_ptr_if
 256:tmk_core/protocol/arm_atsam/usb/udc.c ****     }
 257:tmk_core/protocol/arm_atsam/usb/udc.c ****     return false;  // Interface not found
  87              		.loc 1 257 12 view .LVU20
  88 0022 0020     		movs	r0, #0
  89              	.LVL3:
  90              		.loc 1 257 12 view .LVU21
  91 0024 0BE0     		b	.L6
  92              	.LVL4:
  93              	.L7:
 247:tmk_core/protocol/arm_atsam/usb/udc.c ****         if (USB_DT_INTERFACE == udc_ptr_iface->bDescriptorType) {
  94              		.loc 1 247 9 is_stmt 1 view .LVU22
 247:tmk_core/protocol/arm_atsam/usb/udc.c ****         if (USB_DT_INTERFACE == udc_ptr_iface->bDescriptorType) {
  95              		.loc 1 247 12 is_stmt 0 view .LVU23
  96 0026 5E78     		ldrb	r6, [r3, #1]	@ zero_extendqisi2
  97 0028 042E     		cmp	r6, #4
  98 002a 09D1     		bne	.L4
 250:tmk_core/protocol/arm_atsam/usb/udc.c ****                 return true;  // Interface found
  99              		.loc 1 250 13 is_stmt 1 view .LVU24
 250:tmk_core/protocol/arm_atsam/usb/udc.c ****                 return true;  // Interface found
 100              		.loc 1 250 16 is_stmt 0 view .LVU25
 101 002c 9E78     		ldrb	r6, [r3, #2]	@ zero_extendqisi2
 102 002e 8642     		cmp	r6, r0
 103 0030 06D1     		bne	.L4
 250:tmk_core/protocol/arm_atsam/usb/udc.c ****                 return true;  // Interface found
 104              		.loc 1 250 64 discriminator 1 view .LVU26
 105 0032 DE78     		ldrb	r6, [r3, #3]	@ zero_extendqisi2
 106 0034 8E42     		cmp	r6, r1
 107 0036 03D1     		bne	.L4
 108 0038 04B1     		cbz	r4, .L5
 109 003a 9360     		str	r3, [r2, #8]
 110              	.L5:
 251:tmk_core/protocol/arm_atsam/usb/udc.c ****             }
 111              		.loc 1 251 24 view .LVU27
 112 003c 0120     		movs	r0, #1
 113              	.LVL5:
 114              	.L6:
 258:tmk_core/protocol/arm_atsam/usb/udc.c **** }
 115              		.loc 1 258 1 view .LVU28
 116 003e 70BD     		pop	{r4, r5, r6, pc}
 117              	.LVL6:
 118              	.L4:
 255:tmk_core/protocol/arm_atsam/usb/udc.c ****     }
 119              		.loc 1 255 9 is_stmt 1 view .LVU29
 255:tmk_core/protocol/arm_atsam/usb/udc.c ****     }
 120              		.loc 1 255 103 is_stmt 0 view .LVU30
 121 0040 1C78     		ldrb	r4, [r3]	@ zero_extendqisi2
 255:tmk_core/protocol/arm_atsam/usb/udc.c ****     }
 122              		.loc 1 255 25 view .LVU31
 123 0042 2344     		add	r3, r3, r4
 124 0044 0124     		movs	r4, #1
 125 0046 E8E7     		b	.L3
 126              	.L18:
 127              		.align	2
 128              	.L17:
 129 0048 00000000 		.word	.LANCHOR0
 130              		.cfi_endproc
 131              	.LFE18:
 133              		.section	.text.udc_valid_address,"ax",%progbits
 134              		.align	1
 135              		.syntax unified
 136              		.thumb
 137              		.thumb_func
 138              		.fpu fpv4-sp-d16
 140              	udc_valid_address:
 141              	.LFB31:
 259:tmk_core/protocol/arm_atsam/usb/udc.c **** 
 260:tmk_core/protocol/arm_atsam/usb/udc.c **** /**
 261:tmk_core/protocol/arm_atsam/usb/udc.c ****  * \brief Disables an usb device interface (UDI)
 262:tmk_core/protocol/arm_atsam/usb/udc.c ****  * This routine call the UDI corresponding to interface number
 263:tmk_core/protocol/arm_atsam/usb/udc.c ****  *
 264:tmk_core/protocol/arm_atsam/usb/udc.c ****  * \param iface_num     Interface number to disable
 265:tmk_core/protocol/arm_atsam/usb/udc.c ****  *
 266:tmk_core/protocol/arm_atsam/usb/udc.c ****  * \return 1 if it is done or 0 if interface is not found
 267:tmk_core/protocol/arm_atsam/usb/udc.c ****  */
 268:tmk_core/protocol/arm_atsam/usb/udc.c **** static bool udc_iface_disable(uint8_t iface_num) {
 269:tmk_core/protocol/arm_atsam/usb/udc.c ****     udi_api_t UDC_DESC_STORAGE *udi_api;
 270:tmk_core/protocol/arm_atsam/usb/udc.c **** 
 271:tmk_core/protocol/arm_atsam/usb/udc.c ****     // Select first alternate setting of the interface
 272:tmk_core/protocol/arm_atsam/usb/udc.c ****     // to update udc_ptr_iface before call iface->getsetting()
 273:tmk_core/protocol/arm_atsam/usb/udc.c ****     if (!udc_update_iface_desc(iface_num, 0)) {
 274:tmk_core/protocol/arm_atsam/usb/udc.c ****         return false;
 275:tmk_core/protocol/arm_atsam/usb/udc.c ****     }
 276:tmk_core/protocol/arm_atsam/usb/udc.c **** 
 277:tmk_core/protocol/arm_atsam/usb/udc.c ****     // Select the interface with the current alternate setting
 278:tmk_core/protocol/arm_atsam/usb/udc.c ****     udi_api = udc_ptr_conf->udi_apis[iface_num];
 279:tmk_core/protocol/arm_atsam/usb/udc.c **** 
 280:tmk_core/protocol/arm_atsam/usb/udc.c **** #if (0 != USB_DEVICE_MAX_EP)
 281:tmk_core/protocol/arm_atsam/usb/udc.c ****     if (!udc_update_iface_desc(iface_num, udi_api->getsetting())) {
 282:tmk_core/protocol/arm_atsam/usb/udc.c ****         return false;
 283:tmk_core/protocol/arm_atsam/usb/udc.c ****     }
 284:tmk_core/protocol/arm_atsam/usb/udc.c **** 
 285:tmk_core/protocol/arm_atsam/usb/udc.c ****     // Start at the beginning of interface descriptor
 286:tmk_core/protocol/arm_atsam/usb/udc.c ****     {
 287:tmk_core/protocol/arm_atsam/usb/udc.c ****         usb_ep_desc_t UDC_DESC_STORAGE *ep_desc;
 288:tmk_core/protocol/arm_atsam/usb/udc.c ****         ep_desc = (UDC_DESC_STORAGE usb_ep_desc_t *)udc_ptr_iface;
 289:tmk_core/protocol/arm_atsam/usb/udc.c ****         while (1) {
 290:tmk_core/protocol/arm_atsam/usb/udc.c ****             // Search Endpoint descriptor included in global interface descriptor
 291:tmk_core/protocol/arm_atsam/usb/udc.c ****             ep_desc = (UDC_DESC_STORAGE usb_ep_desc_t *)udc_next_desc_in_iface((UDC_DESC_STORAGE us
 292:tmk_core/protocol/arm_atsam/usb/udc.c ****             if (NULL == ep_desc) {
 293:tmk_core/protocol/arm_atsam/usb/udc.c ****                 break;
 294:tmk_core/protocol/arm_atsam/usb/udc.c ****             }
 295:tmk_core/protocol/arm_atsam/usb/udc.c ****             // Free the endpoint used by the interface
 296:tmk_core/protocol/arm_atsam/usb/udc.c ****             udd_ep_free(ep_desc->bEndpointAddress);
 297:tmk_core/protocol/arm_atsam/usb/udc.c ****         }
 298:tmk_core/protocol/arm_atsam/usb/udc.c ****     }
 299:tmk_core/protocol/arm_atsam/usb/udc.c **** #endif
 300:tmk_core/protocol/arm_atsam/usb/udc.c **** 
 301:tmk_core/protocol/arm_atsam/usb/udc.c ****     // Disable interface
 302:tmk_core/protocol/arm_atsam/usb/udc.c ****     udi_api->disable();
 303:tmk_core/protocol/arm_atsam/usb/udc.c ****     return true;
 304:tmk_core/protocol/arm_atsam/usb/udc.c **** }
 305:tmk_core/protocol/arm_atsam/usb/udc.c **** 
 306:tmk_core/protocol/arm_atsam/usb/udc.c **** /**
 307:tmk_core/protocol/arm_atsam/usb/udc.c ****  * \brief Enables an usb device interface (UDI)
 308:tmk_core/protocol/arm_atsam/usb/udc.c ****  * This routine calls the UDI corresponding
 309:tmk_core/protocol/arm_atsam/usb/udc.c ****  * to the interface and setting number.
 310:tmk_core/protocol/arm_atsam/usb/udc.c ****  *
 311:tmk_core/protocol/arm_atsam/usb/udc.c ****  * \param iface_num     Interface number to enable
 312:tmk_core/protocol/arm_atsam/usb/udc.c ****  * \param setting_num   Setting number to enable
 313:tmk_core/protocol/arm_atsam/usb/udc.c ****  *
 314:tmk_core/protocol/arm_atsam/usb/udc.c ****  * \return 1 if it is done or 0 if interface is not found
 315:tmk_core/protocol/arm_atsam/usb/udc.c ****  */
 316:tmk_core/protocol/arm_atsam/usb/udc.c **** static bool udc_iface_enable(uint8_t iface_num, uint8_t setting_num) {
 317:tmk_core/protocol/arm_atsam/usb/udc.c ****     // Select the interface descriptor
 318:tmk_core/protocol/arm_atsam/usb/udc.c ****     if (!udc_update_iface_desc(iface_num, setting_num)) {
 319:tmk_core/protocol/arm_atsam/usb/udc.c ****         return false;
 320:tmk_core/protocol/arm_atsam/usb/udc.c ****     }
 321:tmk_core/protocol/arm_atsam/usb/udc.c **** 
 322:tmk_core/protocol/arm_atsam/usb/udc.c **** #if (0 != USB_DEVICE_MAX_EP)
 323:tmk_core/protocol/arm_atsam/usb/udc.c ****     usb_ep_desc_t UDC_DESC_STORAGE *ep_desc;
 324:tmk_core/protocol/arm_atsam/usb/udc.c **** 
 325:tmk_core/protocol/arm_atsam/usb/udc.c ****     // Start at the beginning of the global interface descriptor
 326:tmk_core/protocol/arm_atsam/usb/udc.c ****     ep_desc = (UDC_DESC_STORAGE usb_ep_desc_t *)udc_ptr_iface;
 327:tmk_core/protocol/arm_atsam/usb/udc.c ****     while (1) {
 328:tmk_core/protocol/arm_atsam/usb/udc.c ****         // Search Endpoint descriptor included in the global interface descriptor
 329:tmk_core/protocol/arm_atsam/usb/udc.c ****         ep_desc = (UDC_DESC_STORAGE usb_ep_desc_t *)udc_next_desc_in_iface((UDC_DESC_STORAGE usb_co
 330:tmk_core/protocol/arm_atsam/usb/udc.c ****         if (NULL == ep_desc) break;
 331:tmk_core/protocol/arm_atsam/usb/udc.c ****         // Alloc the endpoint used by the interface
 332:tmk_core/protocol/arm_atsam/usb/udc.c ****         if (!udd_ep_alloc(ep_desc->bEndpointAddress, ep_desc->bmAttributes, le16_to_cpu(ep_desc->wM
 333:tmk_core/protocol/arm_atsam/usb/udc.c ****             return false;
 334:tmk_core/protocol/arm_atsam/usb/udc.c ****         }
 335:tmk_core/protocol/arm_atsam/usb/udc.c ****     }
 336:tmk_core/protocol/arm_atsam/usb/udc.c **** #endif
 337:tmk_core/protocol/arm_atsam/usb/udc.c ****     // Enable the interface
 338:tmk_core/protocol/arm_atsam/usb/udc.c ****     return udc_ptr_conf->udi_apis[iface_num]->enable();
 339:tmk_core/protocol/arm_atsam/usb/udc.c **** }
 340:tmk_core/protocol/arm_atsam/usb/udc.c **** 
 341:tmk_core/protocol/arm_atsam/usb/udc.c **** /*! \brief Start the USB Device stack
 342:tmk_core/protocol/arm_atsam/usb/udc.c ****  */
 343:tmk_core/protocol/arm_atsam/usb/udc.c **** void udc_start(void) { udd_enable(); }
 344:tmk_core/protocol/arm_atsam/usb/udc.c **** 
 345:tmk_core/protocol/arm_atsam/usb/udc.c **** /*! \brief Stop the USB Device stack
 346:tmk_core/protocol/arm_atsam/usb/udc.c ****  */
 347:tmk_core/protocol/arm_atsam/usb/udc.c **** void udc_stop(void) {
 348:tmk_core/protocol/arm_atsam/usb/udc.c ****     udd_disable();
 349:tmk_core/protocol/arm_atsam/usb/udc.c ****     udc_reset();
 350:tmk_core/protocol/arm_atsam/usb/udc.c **** }
 351:tmk_core/protocol/arm_atsam/usb/udc.c **** 
 352:tmk_core/protocol/arm_atsam/usb/udc.c **** /**
 353:tmk_core/protocol/arm_atsam/usb/udc.c ****  * \brief Reset the current configuration of the USB device,
 354:tmk_core/protocol/arm_atsam/usb/udc.c ****  * This routines can be called by UDD when a RESET on the USB line occurs.
 355:tmk_core/protocol/arm_atsam/usb/udc.c ****  */
 356:tmk_core/protocol/arm_atsam/usb/udc.c **** void udc_reset(void) {
 357:tmk_core/protocol/arm_atsam/usb/udc.c ****     uint8_t iface_num;
 358:tmk_core/protocol/arm_atsam/usb/udc.c **** 
 359:tmk_core/protocol/arm_atsam/usb/udc.c ****     if (udc_num_configuration) {
 360:tmk_core/protocol/arm_atsam/usb/udc.c ****         for (iface_num = 0; iface_num < udc_ptr_conf->desc->bNumInterfaces; iface_num++) {
 361:tmk_core/protocol/arm_atsam/usb/udc.c ****             udc_iface_disable(iface_num);
 362:tmk_core/protocol/arm_atsam/usb/udc.c ****         }
 363:tmk_core/protocol/arm_atsam/usb/udc.c ****     }
 364:tmk_core/protocol/arm_atsam/usb/udc.c ****     udc_num_configuration = 0;
 365:tmk_core/protocol/arm_atsam/usb/udc.c **** #if (USB_CONFIG_ATTR_REMOTE_WAKEUP == (USB_DEVICE_ATTR & USB_CONFIG_ATTR_REMOTE_WAKEUP))
 366:tmk_core/protocol/arm_atsam/usb/udc.c ****     if (CPU_TO_LE16(USB_DEV_STATUS_REMOTEWAKEUP) & udc_device_status) {
 367:tmk_core/protocol/arm_atsam/usb/udc.c ****         // Remote wakeup is enabled then disable it
 368:tmk_core/protocol/arm_atsam/usb/udc.c ****         UDC_REMOTEWAKEUP_DISABLE();
 369:tmk_core/protocol/arm_atsam/usb/udc.c ****     }
 370:tmk_core/protocol/arm_atsam/usb/udc.c **** #endif
 371:tmk_core/protocol/arm_atsam/usb/udc.c ****     udc_device_status =
 372:tmk_core/protocol/arm_atsam/usb/udc.c **** #if (USB_DEVICE_ATTR & USB_CONFIG_ATTR_SELF_POWERED)
 373:tmk_core/protocol/arm_atsam/usb/udc.c ****         CPU_TO_LE16(USB_DEV_STATUS_SELF_POWERED);
 374:tmk_core/protocol/arm_atsam/usb/udc.c **** #else
 375:tmk_core/protocol/arm_atsam/usb/udc.c ****         CPU_TO_LE16(USB_DEV_STATUS_BUS_POWERED);
 376:tmk_core/protocol/arm_atsam/usb/udc.c **** #endif
 377:tmk_core/protocol/arm_atsam/usb/udc.c **** }
 378:tmk_core/protocol/arm_atsam/usb/udc.c **** 
 379:tmk_core/protocol/arm_atsam/usb/udc.c **** void udc_sof_notify(void) {
 380:tmk_core/protocol/arm_atsam/usb/udc.c ****     uint8_t iface_num;
 381:tmk_core/protocol/arm_atsam/usb/udc.c **** 
 382:tmk_core/protocol/arm_atsam/usb/udc.c ****     if (udc_num_configuration) {
 383:tmk_core/protocol/arm_atsam/usb/udc.c ****         for (iface_num = 0; iface_num < udc_ptr_conf->desc->bNumInterfaces; iface_num++) {
 384:tmk_core/protocol/arm_atsam/usb/udc.c ****             if (udc_ptr_conf->udi_apis[iface_num]->sof_notify != NULL) {
 385:tmk_core/protocol/arm_atsam/usb/udc.c ****                 udc_ptr_conf->udi_apis[iface_num]->sof_notify();
 386:tmk_core/protocol/arm_atsam/usb/udc.c ****             }
 387:tmk_core/protocol/arm_atsam/usb/udc.c ****         }
 388:tmk_core/protocol/arm_atsam/usb/udc.c ****     }
 389:tmk_core/protocol/arm_atsam/usb/udc.c **** }
 390:tmk_core/protocol/arm_atsam/usb/udc.c **** 
 391:tmk_core/protocol/arm_atsam/usb/udc.c **** /**
 392:tmk_core/protocol/arm_atsam/usb/udc.c ****  * \brief Standard device request to get device status
 393:tmk_core/protocol/arm_atsam/usb/udc.c ****  *
 394:tmk_core/protocol/arm_atsam/usb/udc.c ****  * \return true if success
 395:tmk_core/protocol/arm_atsam/usb/udc.c ****  */
 396:tmk_core/protocol/arm_atsam/usb/udc.c **** static bool udc_req_std_dev_get_status(void) {
 397:tmk_core/protocol/arm_atsam/usb/udc.c ****     if (udd_g_ctrlreq.req.wLength != sizeof(udc_device_status)) {
 398:tmk_core/protocol/arm_atsam/usb/udc.c ****         return false;
 399:tmk_core/protocol/arm_atsam/usb/udc.c ****     }
 400:tmk_core/protocol/arm_atsam/usb/udc.c **** 
 401:tmk_core/protocol/arm_atsam/usb/udc.c ****     udd_set_setup_payload((uint8_t *)&udc_device_status, sizeof(udc_device_status));
 402:tmk_core/protocol/arm_atsam/usb/udc.c ****     return true;
 403:tmk_core/protocol/arm_atsam/usb/udc.c **** }
 404:tmk_core/protocol/arm_atsam/usb/udc.c **** 
 405:tmk_core/protocol/arm_atsam/usb/udc.c **** #if (0 != USB_DEVICE_MAX_EP)
 406:tmk_core/protocol/arm_atsam/usb/udc.c **** /**
 407:tmk_core/protocol/arm_atsam/usb/udc.c ****  * \brief Standard endpoint request to get endpoint status
 408:tmk_core/protocol/arm_atsam/usb/udc.c ****  *
 409:tmk_core/protocol/arm_atsam/usb/udc.c ****  * \return true if success
 410:tmk_core/protocol/arm_atsam/usb/udc.c ****  */
 411:tmk_core/protocol/arm_atsam/usb/udc.c **** static bool udc_req_std_ep_get_status(void) {
 412:tmk_core/protocol/arm_atsam/usb/udc.c ****     static le16_t udc_ep_status;
 413:tmk_core/protocol/arm_atsam/usb/udc.c **** 
 414:tmk_core/protocol/arm_atsam/usb/udc.c ****     if (udd_g_ctrlreq.req.wLength != sizeof(udc_ep_status)) {
 415:tmk_core/protocol/arm_atsam/usb/udc.c ****         return false;
 416:tmk_core/protocol/arm_atsam/usb/udc.c ****     }
 417:tmk_core/protocol/arm_atsam/usb/udc.c **** 
 418:tmk_core/protocol/arm_atsam/usb/udc.c ****     udc_ep_status = udd_ep_is_halted(udd_g_ctrlreq.req.wIndex & 0xFF) ? CPU_TO_LE16(USB_EP_STATUS_H
 419:tmk_core/protocol/arm_atsam/usb/udc.c **** 
 420:tmk_core/protocol/arm_atsam/usb/udc.c ****     udd_set_setup_payload((uint8_t *)&udc_ep_status, sizeof(udc_ep_status));
 421:tmk_core/protocol/arm_atsam/usb/udc.c ****     return true;
 422:tmk_core/protocol/arm_atsam/usb/udc.c **** }
 423:tmk_core/protocol/arm_atsam/usb/udc.c **** #endif
 424:tmk_core/protocol/arm_atsam/usb/udc.c **** 
 425:tmk_core/protocol/arm_atsam/usb/udc.c **** /**
 426:tmk_core/protocol/arm_atsam/usb/udc.c ****  * \brief Standard device request to change device status
 427:tmk_core/protocol/arm_atsam/usb/udc.c ****  *
 428:tmk_core/protocol/arm_atsam/usb/udc.c ****  * \return true if success
 429:tmk_core/protocol/arm_atsam/usb/udc.c ****  */
 430:tmk_core/protocol/arm_atsam/usb/udc.c **** static bool udc_req_std_dev_clear_feature(void) {
 431:tmk_core/protocol/arm_atsam/usb/udc.c ****     if (udd_g_ctrlreq.req.wLength) {
 432:tmk_core/protocol/arm_atsam/usb/udc.c ****         return false;
 433:tmk_core/protocol/arm_atsam/usb/udc.c ****     }
 434:tmk_core/protocol/arm_atsam/usb/udc.c **** 
 435:tmk_core/protocol/arm_atsam/usb/udc.c ****     if (udd_g_ctrlreq.req.wValue == USB_DEV_FEATURE_REMOTE_WAKEUP) {
 436:tmk_core/protocol/arm_atsam/usb/udc.c ****         udc_device_status &= CPU_TO_LE16(~(uint32_t)USB_DEV_STATUS_REMOTEWAKEUP);
 437:tmk_core/protocol/arm_atsam/usb/udc.c **** #if (USB_CONFIG_ATTR_REMOTE_WAKEUP == (USB_DEVICE_ATTR & USB_CONFIG_ATTR_REMOTE_WAKEUP))
 438:tmk_core/protocol/arm_atsam/usb/udc.c ****         UDC_REMOTEWAKEUP_DISABLE();
 439:tmk_core/protocol/arm_atsam/usb/udc.c **** #endif
 440:tmk_core/protocol/arm_atsam/usb/udc.c ****         return true;
 441:tmk_core/protocol/arm_atsam/usb/udc.c ****     }
 442:tmk_core/protocol/arm_atsam/usb/udc.c ****     return false;
 443:tmk_core/protocol/arm_atsam/usb/udc.c **** }
 444:tmk_core/protocol/arm_atsam/usb/udc.c **** 
 445:tmk_core/protocol/arm_atsam/usb/udc.c **** #if (0 != USB_DEVICE_MAX_EP)
 446:tmk_core/protocol/arm_atsam/usb/udc.c **** /**
 447:tmk_core/protocol/arm_atsam/usb/udc.c ****  * \brief Standard endpoint request to clear endpoint feature
 448:tmk_core/protocol/arm_atsam/usb/udc.c ****  *
 449:tmk_core/protocol/arm_atsam/usb/udc.c ****  * \return true if success
 450:tmk_core/protocol/arm_atsam/usb/udc.c ****  */
 451:tmk_core/protocol/arm_atsam/usb/udc.c **** static bool udc_req_std_ep_clear_feature(void) {
 452:tmk_core/protocol/arm_atsam/usb/udc.c ****     if (udd_g_ctrlreq.req.wLength) {
 453:tmk_core/protocol/arm_atsam/usb/udc.c ****         return false;
 454:tmk_core/protocol/arm_atsam/usb/udc.c ****     }
 455:tmk_core/protocol/arm_atsam/usb/udc.c **** 
 456:tmk_core/protocol/arm_atsam/usb/udc.c ****     if (udd_g_ctrlreq.req.wValue == USB_EP_FEATURE_HALT) {
 457:tmk_core/protocol/arm_atsam/usb/udc.c ****         return udd_ep_clear_halt(udd_g_ctrlreq.req.wIndex & 0xFF);
 458:tmk_core/protocol/arm_atsam/usb/udc.c ****     }
 459:tmk_core/protocol/arm_atsam/usb/udc.c ****     return false;
 460:tmk_core/protocol/arm_atsam/usb/udc.c **** }
 461:tmk_core/protocol/arm_atsam/usb/udc.c **** #endif
 462:tmk_core/protocol/arm_atsam/usb/udc.c **** 
 463:tmk_core/protocol/arm_atsam/usb/udc.c **** /**
 464:tmk_core/protocol/arm_atsam/usb/udc.c ****  * \brief Standard device request to set a feature
 465:tmk_core/protocol/arm_atsam/usb/udc.c ****  *
 466:tmk_core/protocol/arm_atsam/usb/udc.c ****  * \return true if success
 467:tmk_core/protocol/arm_atsam/usb/udc.c ****  */
 468:tmk_core/protocol/arm_atsam/usb/udc.c **** static bool udc_req_std_dev_set_feature(void) {
 469:tmk_core/protocol/arm_atsam/usb/udc.c ****     if (udd_g_ctrlreq.req.wLength) {
 470:tmk_core/protocol/arm_atsam/usb/udc.c ****         return false;
 471:tmk_core/protocol/arm_atsam/usb/udc.c ****     }
 472:tmk_core/protocol/arm_atsam/usb/udc.c **** 
 473:tmk_core/protocol/arm_atsam/usb/udc.c ****     switch (udd_g_ctrlreq.req.wValue) {
 474:tmk_core/protocol/arm_atsam/usb/udc.c ****         case USB_DEV_FEATURE_REMOTE_WAKEUP:
 475:tmk_core/protocol/arm_atsam/usb/udc.c **** #if (USB_CONFIG_ATTR_REMOTE_WAKEUP == (USB_DEVICE_ATTR & USB_CONFIG_ATTR_REMOTE_WAKEUP))
 476:tmk_core/protocol/arm_atsam/usb/udc.c ****             udc_device_status |= CPU_TO_LE16(USB_DEV_STATUS_REMOTEWAKEUP);
 477:tmk_core/protocol/arm_atsam/usb/udc.c ****             UDC_REMOTEWAKEUP_ENABLE();
 478:tmk_core/protocol/arm_atsam/usb/udc.c ****             return true;
 479:tmk_core/protocol/arm_atsam/usb/udc.c **** #else
 480:tmk_core/protocol/arm_atsam/usb/udc.c ****             return false;
 481:tmk_core/protocol/arm_atsam/usb/udc.c **** #endif
 482:tmk_core/protocol/arm_atsam/usb/udc.c **** 
 483:tmk_core/protocol/arm_atsam/usb/udc.c **** #ifdef USB_DEVICE_HS_SUPPORT
 484:tmk_core/protocol/arm_atsam/usb/udc.c ****         case USB_DEV_FEATURE_TEST_MODE:
 485:tmk_core/protocol/arm_atsam/usb/udc.c ****             if (!udd_is_high_speed()) {
 486:tmk_core/protocol/arm_atsam/usb/udc.c ****                 break;
 487:tmk_core/protocol/arm_atsam/usb/udc.c ****             }
 488:tmk_core/protocol/arm_atsam/usb/udc.c ****             if (udd_g_ctrlreq.req.wIndex & 0xff) {
 489:tmk_core/protocol/arm_atsam/usb/udc.c ****                 break;
 490:tmk_core/protocol/arm_atsam/usb/udc.c ****             }
 491:tmk_core/protocol/arm_atsam/usb/udc.c ****             // Unconfigure the device, terminating all ongoing requests
 492:tmk_core/protocol/arm_atsam/usb/udc.c ****             udc_reset();
 493:tmk_core/protocol/arm_atsam/usb/udc.c ****             switch ((udd_g_ctrlreq.req.wIndex >> 8) & 0xFF) {
 494:tmk_core/protocol/arm_atsam/usb/udc.c ****                 case USB_DEV_TEST_MODE_J:
 495:tmk_core/protocol/arm_atsam/usb/udc.c ****                     udd_g_ctrlreq.callback = udd_test_mode_j;
 496:tmk_core/protocol/arm_atsam/usb/udc.c ****                     return true;
 497:tmk_core/protocol/arm_atsam/usb/udc.c **** 
 498:tmk_core/protocol/arm_atsam/usb/udc.c ****                 case USB_DEV_TEST_MODE_K:
 499:tmk_core/protocol/arm_atsam/usb/udc.c ****                     udd_g_ctrlreq.callback = udd_test_mode_k;
 500:tmk_core/protocol/arm_atsam/usb/udc.c ****                     return true;
 501:tmk_core/protocol/arm_atsam/usb/udc.c **** 
 502:tmk_core/protocol/arm_atsam/usb/udc.c ****                 case USB_DEV_TEST_MODE_SE0_NAK:
 503:tmk_core/protocol/arm_atsam/usb/udc.c ****                     udd_g_ctrlreq.callback = udd_test_mode_se0_nak;
 504:tmk_core/protocol/arm_atsam/usb/udc.c ****                     return true;
 505:tmk_core/protocol/arm_atsam/usb/udc.c **** 
 506:tmk_core/protocol/arm_atsam/usb/udc.c ****                 case USB_DEV_TEST_MODE_PACKET:
 507:tmk_core/protocol/arm_atsam/usb/udc.c ****                     udd_g_ctrlreq.callback = udd_test_mode_packet;
 508:tmk_core/protocol/arm_atsam/usb/udc.c ****                     return true;
 509:tmk_core/protocol/arm_atsam/usb/udc.c **** 
 510:tmk_core/protocol/arm_atsam/usb/udc.c ****                 case USB_DEV_TEST_MODE_FORCE_ENABLE:  // Only for downstream facing hub ports
 511:tmk_core/protocol/arm_atsam/usb/udc.c ****                 default:
 512:tmk_core/protocol/arm_atsam/usb/udc.c ****                     break;
 513:tmk_core/protocol/arm_atsam/usb/udc.c ****             }
 514:tmk_core/protocol/arm_atsam/usb/udc.c ****             break;
 515:tmk_core/protocol/arm_atsam/usb/udc.c **** #endif
 516:tmk_core/protocol/arm_atsam/usb/udc.c ****         default:
 517:tmk_core/protocol/arm_atsam/usb/udc.c ****             break;
 518:tmk_core/protocol/arm_atsam/usb/udc.c ****     }
 519:tmk_core/protocol/arm_atsam/usb/udc.c ****     return false;
 520:tmk_core/protocol/arm_atsam/usb/udc.c **** }
 521:tmk_core/protocol/arm_atsam/usb/udc.c **** 
 522:tmk_core/protocol/arm_atsam/usb/udc.c **** /**
 523:tmk_core/protocol/arm_atsam/usb/udc.c ****  * \brief Standard endpoint request to halt an endpoint
 524:tmk_core/protocol/arm_atsam/usb/udc.c ****  *
 525:tmk_core/protocol/arm_atsam/usb/udc.c ****  * \return true if success
 526:tmk_core/protocol/arm_atsam/usb/udc.c ****  */
 527:tmk_core/protocol/arm_atsam/usb/udc.c **** #if (0 != USB_DEVICE_MAX_EP)
 528:tmk_core/protocol/arm_atsam/usb/udc.c **** static bool udc_req_std_ep_set_feature(void) {
 529:tmk_core/protocol/arm_atsam/usb/udc.c ****     if (udd_g_ctrlreq.req.wLength) {
 530:tmk_core/protocol/arm_atsam/usb/udc.c ****         return false;
 531:tmk_core/protocol/arm_atsam/usb/udc.c ****     }
 532:tmk_core/protocol/arm_atsam/usb/udc.c ****     if (udd_g_ctrlreq.req.wValue == USB_EP_FEATURE_HALT) {
 533:tmk_core/protocol/arm_atsam/usb/udc.c ****         udd_ep_abort(udd_g_ctrlreq.req.wIndex & 0xFF);
 534:tmk_core/protocol/arm_atsam/usb/udc.c ****         return udd_ep_set_halt(udd_g_ctrlreq.req.wIndex & 0xFF);
 535:tmk_core/protocol/arm_atsam/usb/udc.c ****     }
 536:tmk_core/protocol/arm_atsam/usb/udc.c ****     return false;
 537:tmk_core/protocol/arm_atsam/usb/udc.c **** }
 538:tmk_core/protocol/arm_atsam/usb/udc.c **** #endif
 539:tmk_core/protocol/arm_atsam/usb/udc.c **** 
 540:tmk_core/protocol/arm_atsam/usb/udc.c **** /**
 541:tmk_core/protocol/arm_atsam/usb/udc.c ****  * \brief Change the address of device
 542:tmk_core/protocol/arm_atsam/usb/udc.c ****  * Callback called at the end of request set address
 543:tmk_core/protocol/arm_atsam/usb/udc.c ****  */
 544:tmk_core/protocol/arm_atsam/usb/udc.c **** static void udc_valid_address(void) { udd_set_address(udd_g_ctrlreq.req.wValue & 0x7F); }
 142              		.loc 1 544 37 is_stmt 1 view -0
 143              		.cfi_startproc
 144              		@ args = 0, pretend = 0, frame = 0
 145              		@ frame_needed = 0, uses_anonymous_args = 0
 146              		@ link register save eliminated.
 147              		.loc 1 544 39 view .LVU33
 148 0000 024B     		ldr	r3, .L20
 149 0002 9878     		ldrb	r0, [r3, #2]	@ zero_extendqisi2
 150 0004 00F07F00 		and	r0, r0, #127
 151 0008 FFF7FEBF 		b	udd_set_address
 152              	.LVL7:
 153              	.L21:
 154              		.align	2
 155              	.L20:
 156 000c 00000000 		.word	udd_g_ctrlreq
 157              		.cfi_endproc
 158              	.LFE31:
 160              		.section	.text.udc_next_desc_in_iface.constprop.0,"ax",%progbits
 161              		.align	1
 162              		.syntax unified
 163              		.thumb
 164              		.thumb_func
 165              		.fpu fpv4-sp-d16
 167              	udc_next_desc_in_iface.constprop.0:
 168              	.LVL8:
 169              	.LFB43:
 198:tmk_core/protocol/arm_atsam/usb/udc.c ****     usb_conf_desc_t UDC_DESC_STORAGE *ptr_eof_desc;
 170              		.loc 1 198 42 view -0
 171              		.cfi_startproc
 172              		@ args = 0, pretend = 0, frame = 0
 173              		@ frame_needed = 0, uses_anonymous_args = 0
 174              		@ link register save eliminated.
 199:tmk_core/protocol/arm_atsam/usb/udc.c **** 
 175              		.loc 1 199 5 view .LVU35
 201:tmk_core/protocol/arm_atsam/usb/udc.c ****     // Go to next descriptor
 176              		.loc 1 201 5 view .LVU36
 177              	.LBB10:
 178              	.LBI10:
 185:tmk_core/protocol/arm_atsam/usb/udc.c **** 
 179              		.loc 1 185 42 view .LVU37
 180              	.LBB11:
 185:tmk_core/protocol/arm_atsam/usb/udc.c **** 
 181              		.loc 1 185 67 view .LVU38
 185:tmk_core/protocol/arm_atsam/usb/udc.c **** 
 182              		.loc 1 185 134 is_stmt 0 view .LVU39
 183 0000 084B     		ldr	r3, .L31
 184 0002 5B68     		ldr	r3, [r3, #4]
 185 0004 1B68     		ldr	r3, [r3]
 185:tmk_core/protocol/arm_atsam/usb/udc.c **** 
 186              		.loc 1 185 143 view .LVU40
 187 0006 5A88     		ldrh	r2, [r3, #2]	@ unaligned
 185:tmk_core/protocol/arm_atsam/usb/udc.c **** 
 188              		.loc 1 185 74 view .LVU41
 189 0008 1A44     		add	r2, r2, r3
 190              	.LVL9:
 185:tmk_core/protocol/arm_atsam/usb/udc.c **** 
 191              		.loc 1 185 74 view .LVU42
 192              	.LBE11:
 193              	.LBE10:
 203:tmk_core/protocol/arm_atsam/usb/udc.c ****     // Check the end of configuration descriptor
 194              		.loc 1 203 5 is_stmt 1 view .LVU43
 195              	.L30:
 215:tmk_core/protocol/arm_atsam/usb/udc.c ****     }
 196              		.loc 1 215 9 view .LVU44
 215:tmk_core/protocol/arm_atsam/usb/udc.c ****     }
 197              		.loc 1 215 75 is_stmt 0 view .LVU45
 198 000a 0378     		ldrb	r3, [r0]	@ zero_extendqisi2
 215:tmk_core/protocol/arm_atsam/usb/udc.c ****     }
 199              		.loc 1 215 14 view .LVU46
 200 000c 1844     		add	r0, r0, r3
 201              	.LVL10:
 205:tmk_core/protocol/arm_atsam/usb/udc.c ****         // If new interface descriptor is found,
 202              		.loc 1 205 11 view .LVU47
 203 000e 9042     		cmp	r0, r2
 204 0010 01D3     		bcc	.L25
 205              	.L26:
 217:tmk_core/protocol/arm_atsam/usb/udc.c **** }
 206              		.loc 1 217 12 view .LVU48
 207 0012 0020     		movs	r0, #0
 208              	.LVL11:
 217:tmk_core/protocol/arm_atsam/usb/udc.c **** }
 209              		.loc 1 217 12 view .LVU49
 210 0014 04E0     		b	.L22
 211              	.LVL12:
 212              	.L25:
 208:tmk_core/protocol/arm_atsam/usb/udc.c ****             break;  // End of global interface descriptor
 213              		.loc 1 208 9 is_stmt 1 view .LVU50
 208:tmk_core/protocol/arm_atsam/usb/udc.c ****             break;  // End of global interface descriptor
 214              		.loc 1 208 37 is_stmt 0 view .LVU51
 215 0016 4378     		ldrb	r3, [r0, #1]	@ zero_extendqisi2
 208:tmk_core/protocol/arm_atsam/usb/udc.c ****             break;  // End of global interface descriptor
 216              		.loc 1 208 12 view .LVU52
 217 0018 042B     		cmp	r3, #4
 218 001a FAD0     		beq	.L26
 211:tmk_core/protocol/arm_atsam/usb/udc.c ****             return desc;  // Specific descriptor found
 219              		.loc 1 211 9 is_stmt 1 view .LVU53
 211:tmk_core/protocol/arm_atsam/usb/udc.c ****             return desc;  // Specific descriptor found
 220              		.loc 1 211 12 is_stmt 0 view .LVU54
 221 001c 052B     		cmp	r3, #5
 222 001e F4D1     		bne	.L30
 223              	.LVL13:
 224              	.L22:
 218:tmk_core/protocol/arm_atsam/usb/udc.c **** #endif
 225              		.loc 1 218 1 view .LVU55
 226 0020 7047     		bx	lr
 227              	.L32:
 228 0022 00BF     		.align	2
 229              	.L31:
 230 0024 00000000 		.word	.LANCHOR0
 231              		.cfi_endproc
 232              	.LFE43:
 234              		.section	.text.udc_iface_enable,"ax",%progbits
 235              		.align	1
 236              		.syntax unified
 237              		.thumb
 238              		.thumb_func
 239              		.fpu fpv4-sp-d16
 241              	udc_iface_enable:
 242              	.LVL14:
 243              	.LFB20:
 316:tmk_core/protocol/arm_atsam/usb/udc.c ****     // Select the interface descriptor
 244              		.loc 1 316 70 is_stmt 1 view -0
 245              		.cfi_startproc
 246              		@ args = 0, pretend = 0, frame = 0
 247              		@ frame_needed = 0, uses_anonymous_args = 0
 318:tmk_core/protocol/arm_atsam/usb/udc.c ****         return false;
 248              		.loc 1 318 5 view .LVU57
 316:tmk_core/protocol/arm_atsam/usb/udc.c ****     // Select the interface descriptor
 249              		.loc 1 316 70 is_stmt 0 view .LVU58
 250 0000 70B5     		push	{r4, r5, r6, lr}
 251              		.cfi_def_cfa_offset 16
 252              		.cfi_offset 4, -16
 253              		.cfi_offset 5, -12
 254              		.cfi_offset 6, -8
 255              		.cfi_offset 14, -4
 316:tmk_core/protocol/arm_atsam/usb/udc.c ****     // Select the interface descriptor
 256              		.loc 1 316 70 view .LVU59
 257 0002 0646     		mov	r6, r0
 318:tmk_core/protocol/arm_atsam/usb/udc.c ****         return false;
 258              		.loc 1 318 10 view .LVU60
 259 0004 FFF7FEFF 		bl	udc_update_iface_desc
 260              	.LVL15:
 318:tmk_core/protocol/arm_atsam/usb/udc.c ****         return false;
 261              		.loc 1 318 8 view .LVU61
 262 0008 68B1     		cbz	r0, .L35
 323:tmk_core/protocol/arm_atsam/usb/udc.c **** 
 263              		.loc 1 323 5 is_stmt 1 view .LVU62
 326:tmk_core/protocol/arm_atsam/usb/udc.c ****     while (1) {
 264              		.loc 1 326 5 view .LVU63
 326:tmk_core/protocol/arm_atsam/usb/udc.c ****     while (1) {
 265              		.loc 1 326 13 is_stmt 0 view .LVU64
 266 000a 0C4D     		ldr	r5, .L40
 267 000c AC68     		ldr	r4, [r5, #8]
 268              	.LVL16:
 269              	.L37:
 327:tmk_core/protocol/arm_atsam/usb/udc.c ****         // Search Endpoint descriptor included in the global interface descriptor
 270              		.loc 1 327 5 is_stmt 1 view .LVU65
 329:tmk_core/protocol/arm_atsam/usb/udc.c ****         if (NULL == ep_desc) break;
 271              		.loc 1 329 9 view .LVU66
 329:tmk_core/protocol/arm_atsam/usb/udc.c ****         if (NULL == ep_desc) break;
 272              		.loc 1 329 53 is_stmt 0 view .LVU67
 273 000e 2046     		mov	r0, r4
 274 0010 FFF7FEFF 		bl	udc_next_desc_in_iface.constprop.0
 275              	.LVL17:
 330:tmk_core/protocol/arm_atsam/usb/udc.c ****         // Alloc the endpoint used by the interface
 276              		.loc 1 330 9 is_stmt 1 view .LVU68
 330:tmk_core/protocol/arm_atsam/usb/udc.c ****         // Alloc the endpoint used by the interface
 277              		.loc 1 330 12 is_stmt 0 view .LVU69
 278 0014 0446     		mov	r4, r0
 279 0016 40B1     		cbz	r0, .L36
 332:tmk_core/protocol/arm_atsam/usb/udc.c ****             return false;
 280              		.loc 1 332 9 is_stmt 1 view .LVU70
 332:tmk_core/protocol/arm_atsam/usb/udc.c ****             return false;
 281              		.loc 1 332 14 is_stmt 0 view .LVU71
 282 0018 8288     		ldrh	r2, [r0, #4]	@ unaligned
 283 001a C178     		ldrb	r1, [r0, #3]	@ zero_extendqisi2
 284 001c 8078     		ldrb	r0, [r0, #2]	@ zero_extendqisi2
 285              	.LVL18:
 332:tmk_core/protocol/arm_atsam/usb/udc.c ****             return false;
 286              		.loc 1 332 14 view .LVU72
 287 001e FFF7FEFF 		bl	udd_ep_alloc
 288              	.LVL19:
 332:tmk_core/protocol/arm_atsam/usb/udc.c ****             return false;
 289              		.loc 1 332 12 view .LVU73
 290 0022 0028     		cmp	r0, #0
 291 0024 F3D1     		bne	.L37
 292              	.LVL20:
 293              	.L35:
 339:tmk_core/protocol/arm_atsam/usb/udc.c **** 
 294              		.loc 1 339 1 view .LVU74
 295 0026 0020     		movs	r0, #0
 296 0028 70BD     		pop	{r4, r5, r6, pc}
 297              	.LVL21:
 298              	.L36:
 338:tmk_core/protocol/arm_atsam/usb/udc.c **** }
 299              		.loc 1 338 5 is_stmt 1 view .LVU75
 338:tmk_core/protocol/arm_atsam/usb/udc.c **** }
 300              		.loc 1 338 24 is_stmt 0 view .LVU76
 301 002a 6B68     		ldr	r3, [r5, #4]
 338:tmk_core/protocol/arm_atsam/usb/udc.c **** }
 302              		.loc 1 338 34 view .LVU77
 303 002c 5B68     		ldr	r3, [r3, #4]
 338:tmk_core/protocol/arm_atsam/usb/udc.c **** }
 304              		.loc 1 338 45 view .LVU78
 305 002e 53F82630 		ldr	r3, [r3, r6, lsl #2]
 339:tmk_core/protocol/arm_atsam/usb/udc.c **** 
 306              		.loc 1 339 1 view .LVU79
 307 0032 BDE87040 		pop	{r4, r5, r6, lr}
 308              		.cfi_restore 14
 309              		.cfi_restore 6
 310              		.cfi_restore 5
 311              		.cfi_restore 4
 312              		.cfi_def_cfa_offset 0
 338:tmk_core/protocol/arm_atsam/usb/udc.c **** }
 313              		.loc 1 338 12 view .LVU80
 314 0036 1B68     		ldr	r3, [r3]
 315 0038 1847     		bx	r3
 316              	.LVL22:
 317              	.L41:
 338:tmk_core/protocol/arm_atsam/usb/udc.c **** }
 318              		.loc 1 338 12 view .LVU81
 319 003a 00BF     		.align	2
 320              	.L40:
 321 003c 00000000 		.word	.LANCHOR0
 322              		.cfi_endproc
 323              	.LFE20:
 325              		.section	.text.udc_iface_disable,"ax",%progbits
 326              		.align	1
 327              		.syntax unified
 328              		.thumb
 329              		.thumb_func
 330              		.fpu fpv4-sp-d16
 332              	udc_iface_disable:
 333              	.LVL23:
 334              	.LFB19:
 268:tmk_core/protocol/arm_atsam/usb/udc.c ****     udi_api_t UDC_DESC_STORAGE *udi_api;
 335              		.loc 1 268 50 is_stmt 1 view -0
 336              		.cfi_startproc
 337              		@ args = 0, pretend = 0, frame = 0
 338              		@ frame_needed = 0, uses_anonymous_args = 0
 269:tmk_core/protocol/arm_atsam/usb/udc.c **** 
 339              		.loc 1 269 5 view .LVU83
 273:tmk_core/protocol/arm_atsam/usb/udc.c ****         return false;
 340              		.loc 1 273 5 view .LVU84
 268:tmk_core/protocol/arm_atsam/usb/udc.c ****     udi_api_t UDC_DESC_STORAGE *udi_api;
 341              		.loc 1 268 50 is_stmt 0 view .LVU85
 342 0000 70B5     		push	{r4, r5, r6, lr}
 343              		.cfi_def_cfa_offset 16
 344              		.cfi_offset 4, -16
 345              		.cfi_offset 5, -12
 346              		.cfi_offset 6, -8
 347              		.cfi_offset 14, -4
 273:tmk_core/protocol/arm_atsam/usb/udc.c ****         return false;
 348              		.loc 1 273 10 view .LVU86
 349 0002 0021     		movs	r1, #0
 268:tmk_core/protocol/arm_atsam/usb/udc.c ****     udi_api_t UDC_DESC_STORAGE *udi_api;
 350              		.loc 1 268 50 view .LVU87
 351 0004 0546     		mov	r5, r0
 273:tmk_core/protocol/arm_atsam/usb/udc.c ****         return false;
 352              		.loc 1 273 10 view .LVU88
 353 0006 FFF7FEFF 		bl	udc_update_iface_desc
 354              	.LVL24:
 273:tmk_core/protocol/arm_atsam/usb/udc.c ****         return false;
 355              		.loc 1 273 8 view .LVU89
 356 000a 10B9     		cbnz	r0, .L43
 357              	.L45:
 274:tmk_core/protocol/arm_atsam/usb/udc.c ****     }
 358              		.loc 1 274 16 view .LVU90
 359 000c 0025     		movs	r5, #0
 360              	.L44:
 304:tmk_core/protocol/arm_atsam/usb/udc.c **** 
 361              		.loc 1 304 1 view .LVU91
 362 000e 2846     		mov	r0, r5
 363 0010 70BD     		pop	{r4, r5, r6, pc}
 364              	.L43:
 278:tmk_core/protocol/arm_atsam/usb/udc.c **** 
 365              		.loc 1 278 5 is_stmt 1 view .LVU92
 278:tmk_core/protocol/arm_atsam/usb/udc.c **** 
 366              		.loc 1 278 27 is_stmt 0 view .LVU93
 367 0012 0D4C     		ldr	r4, .L51
 368 0014 6368     		ldr	r3, [r4, #4]
 278:tmk_core/protocol/arm_atsam/usb/udc.c **** 
 369              		.loc 1 278 13 view .LVU94
 370 0016 5B68     		ldr	r3, [r3, #4]
 371 0018 53F82560 		ldr	r6, [r3, r5, lsl #2]
 372              	.LVL25:
 281:tmk_core/protocol/arm_atsam/usb/udc.c ****         return false;
 373              		.loc 1 281 5 is_stmt 1 view .LVU95
 281:tmk_core/protocol/arm_atsam/usb/udc.c ****         return false;
 374              		.loc 1 281 10 is_stmt 0 view .LVU96
 375 001c F368     		ldr	r3, [r6, #12]
 376 001e 9847     		blx	r3
 377              	.LVL26:
 378 0020 0146     		mov	r1, r0
 379 0022 2846     		mov	r0, r5
 380 0024 FFF7FEFF 		bl	udc_update_iface_desc
 381              	.LVL27:
 281:tmk_core/protocol/arm_atsam/usb/udc.c ****         return false;
 382              		.loc 1 281 8 view .LVU97
 383 0028 0546     		mov	r5, r0
 384 002a 0028     		cmp	r0, #0
 385 002c EED0     		beq	.L45
 386              	.LBB12:
 287:tmk_core/protocol/arm_atsam/usb/udc.c ****         ep_desc = (UDC_DESC_STORAGE usb_ep_desc_t *)udc_ptr_iface;
 387              		.loc 1 287 9 is_stmt 1 view .LVU98
 288:tmk_core/protocol/arm_atsam/usb/udc.c ****         while (1) {
 388              		.loc 1 288 9 view .LVU99
 288:tmk_core/protocol/arm_atsam/usb/udc.c ****         while (1) {
 389              		.loc 1 288 17 is_stmt 0 view .LVU100
 390 002e A468     		ldr	r4, [r4, #8]
 391              	.LVL28:
 392              	.L47:
 289:tmk_core/protocol/arm_atsam/usb/udc.c ****             // Search Endpoint descriptor included in global interface descriptor
 393              		.loc 1 289 9 is_stmt 1 view .LVU101
 291:tmk_core/protocol/arm_atsam/usb/udc.c ****             if (NULL == ep_desc) {
 394              		.loc 1 291 13 view .LVU102
 291:tmk_core/protocol/arm_atsam/usb/udc.c ****             if (NULL == ep_desc) {
 395              		.loc 1 291 57 is_stmt 0 view .LVU103
 396 0030 2046     		mov	r0, r4
 397 0032 FFF7FEFF 		bl	udc_next_desc_in_iface.constprop.0
 398              	.LVL29:
 292:tmk_core/protocol/arm_atsam/usb/udc.c ****                 break;
 399              		.loc 1 292 13 is_stmt 1 view .LVU104
 292:tmk_core/protocol/arm_atsam/usb/udc.c ****                 break;
 400              		.loc 1 292 16 is_stmt 0 view .LVU105
 401 0036 0446     		mov	r4, r0
 402 0038 18B1     		cbz	r0, .L46
 296:tmk_core/protocol/arm_atsam/usb/udc.c ****         }
 403              		.loc 1 296 13 is_stmt 1 view .LVU106
 404 003a 8078     		ldrb	r0, [r0, #2]	@ zero_extendqisi2
 405              	.LVL30:
 296:tmk_core/protocol/arm_atsam/usb/udc.c ****         }
 406              		.loc 1 296 13 is_stmt 0 view .LVU107
 407 003c FFF7FEFF 		bl	udd_ep_free
 408              	.LVL31:
 291:tmk_core/protocol/arm_atsam/usb/udc.c ****             if (NULL == ep_desc) {
 409              		.loc 1 291 21 view .LVU108
 410 0040 F6E7     		b	.L47
 411              	.LVL32:
 412              	.L46:
 291:tmk_core/protocol/arm_atsam/usb/udc.c ****             if (NULL == ep_desc) {
 413              		.loc 1 291 21 view .LVU109
 414              	.LBE12:
 302:tmk_core/protocol/arm_atsam/usb/udc.c ****     return true;
 415              		.loc 1 302 5 is_stmt 1 view .LVU110
 416 0042 7368     		ldr	r3, [r6, #4]
 417 0044 9847     		blx	r3
 418              	.LVL33:
 303:tmk_core/protocol/arm_atsam/usb/udc.c **** }
 419              		.loc 1 303 5 view .LVU111
 303:tmk_core/protocol/arm_atsam/usb/udc.c **** }
 420              		.loc 1 303 12 is_stmt 0 view .LVU112
 421 0046 E2E7     		b	.L44
 422              	.L52:
 423              		.align	2
 424              	.L51:
 425 0048 00000000 		.word	.LANCHOR0
 426              		.cfi_endproc
 427              	.LFE19:
 429              		.section	.text.udc_get_interface_desc,"ax",%progbits
 430              		.align	1
 431              		.global	udc_get_interface_desc
 432              		.syntax unified
 433              		.thumb
 434              		.thumb_func
 435              		.fpu fpv4-sp-d16
 437              	udc_get_interface_desc:
 438              	.LFB15:
 178:tmk_core/protocol/arm_atsam/usb/udc.c **** 
 439              		.loc 1 178 65 is_stmt 1 view -0
 440              		.cfi_startproc
 441              		@ args = 0, pretend = 0, frame = 0
 442              		@ frame_needed = 0, uses_anonymous_args = 0
 443              		@ link register save eliminated.
 178:tmk_core/protocol/arm_atsam/usb/udc.c **** 
 444              		.loc 1 178 67 view .LVU114
 178:tmk_core/protocol/arm_atsam/usb/udc.c **** 
 445              		.loc 1 178 1 is_stmt 0 view .LVU115
 446 0000 014B     		ldr	r3, .L54
 447 0002 9868     		ldr	r0, [r3, #8]
 448 0004 7047     		bx	lr
 449              	.L55:
 450 0006 00BF     		.align	2
 451              	.L54:
 452 0008 00000000 		.word	.LANCHOR0
 453              		.cfi_endproc
 454              	.LFE15:
 456              		.section	.text.udc_start,"ax",%progbits
 457              		.align	1
 458              		.global	udc_start
 459              		.syntax unified
 460              		.thumb
 461              		.thumb_func
 462              		.fpu fpv4-sp-d16
 464              	udc_start:
 465              	.LFB21:
 343:tmk_core/protocol/arm_atsam/usb/udc.c **** 
 466              		.loc 1 343 22 is_stmt 1 view -0
 467              		.cfi_startproc
 468              		@ args = 0, pretend = 0, frame = 0
 469              		@ frame_needed = 0, uses_anonymous_args = 0
 470              		@ link register save eliminated.
 343:tmk_core/protocol/arm_atsam/usb/udc.c **** 
 471              		.loc 1 343 24 view .LVU117
 472 0000 FFF7FEBF 		b	udd_enable
 473              	.LVL34:
 474              		.cfi_endproc
 475              	.LFE21:
 477              		.section	.text.udc_reset,"ax",%progbits
 478              		.align	1
 479              		.global	udc_reset
 480              		.syntax unified
 481              		.thumb
 482              		.thumb_func
 483              		.fpu fpv4-sp-d16
 485              	udc_reset:
 486              	.LFB23:
 356:tmk_core/protocol/arm_atsam/usb/udc.c ****     uint8_t iface_num;
 487              		.loc 1 356 22 view -0
 488              		.cfi_startproc
 489              		@ args = 0, pretend = 0, frame = 0
 490              		@ frame_needed = 0, uses_anonymous_args = 0
 357:tmk_core/protocol/arm_atsam/usb/udc.c **** 
 491              		.loc 1 357 5 view .LVU119
 359:tmk_core/protocol/arm_atsam/usb/udc.c ****         for (iface_num = 0; iface_num < udc_ptr_conf->desc->bNumInterfaces; iface_num++) {
 492              		.loc 1 359 5 view .LVU120
 356:tmk_core/protocol/arm_atsam/usb/udc.c ****     uint8_t iface_num;
 493              		.loc 1 356 22 is_stmt 0 view .LVU121
 494 0000 38B5     		push	{r3, r4, r5, lr}
 495              		.cfi_def_cfa_offset 16
 496              		.cfi_offset 3, -16
 497              		.cfi_offset 4, -12
 498              		.cfi_offset 5, -8
 499              		.cfi_offset 14, -4
 359:tmk_core/protocol/arm_atsam/usb/udc.c ****         for (iface_num = 0; iface_num < udc_ptr_conf->desc->bNumInterfaces; iface_num++) {
 500              		.loc 1 359 9 view .LVU122
 501 0002 0D4C     		ldr	r4, .L64
 359:tmk_core/protocol/arm_atsam/usb/udc.c ****         for (iface_num = 0; iface_num < udc_ptr_conf->desc->bNumInterfaces; iface_num++) {
 502              		.loc 1 359 8 view .LVU123
 503 0004 2378     		ldrb	r3, [r4]	@ zero_extendqisi2
 504 0006 A3B9     		cbnz	r3, .L63
 505              	.L62:
 364:tmk_core/protocol/arm_atsam/usb/udc.c **** #if (USB_CONFIG_ATTR_REMOTE_WAKEUP == (USB_DEVICE_ATTR & USB_CONFIG_ATTR_REMOTE_WAKEUP))
 506              		.loc 1 364 5 is_stmt 1 view .LVU124
 366:tmk_core/protocol/arm_atsam/usb/udc.c ****         // Remote wakeup is enabled then disable it
 507              		.loc 1 366 9 is_stmt 0 view .LVU125
 508 0008 A289     		ldrh	r2, [r4, #12]
 364:tmk_core/protocol/arm_atsam/usb/udc.c **** #if (USB_CONFIG_ATTR_REMOTE_WAKEUP == (USB_DEVICE_ATTR & USB_CONFIG_ATTR_REMOTE_WAKEUP))
 509              		.loc 1 364 27 view .LVU126
 510 000a 0023     		movs	r3, #0
 366:tmk_core/protocol/arm_atsam/usb/udc.c ****         // Remote wakeup is enabled then disable it
 511              		.loc 1 366 8 view .LVU127
 512 000c 12F0020F 		tst	r2, #2
 364:tmk_core/protocol/arm_atsam/usb/udc.c **** #if (USB_CONFIG_ATTR_REMOTE_WAKEUP == (USB_DEVICE_ATTR & USB_CONFIG_ATTR_REMOTE_WAKEUP))
 513              		.loc 1 364 27 view .LVU128
 514 0010 2370     		strb	r3, [r4]
 366:tmk_core/protocol/arm_atsam/usb/udc.c ****         // Remote wakeup is enabled then disable it
 515              		.loc 1 366 5 is_stmt 1 view .LVU129
 516 0012 1D46     		mov	r5, r3
 366:tmk_core/protocol/arm_atsam/usb/udc.c ****         // Remote wakeup is enabled then disable it
 517              		.loc 1 366 8 is_stmt 0 view .LVU130
 518 0014 01D0     		beq	.L60
 368:tmk_core/protocol/arm_atsam/usb/udc.c ****     }
 519              		.loc 1 368 9 is_stmt 1 view .LVU131
 520 0016 FFF7FEFF 		bl	main_remotewakeup_disable
 521              	.LVL35:
 522              	.L60:
 371:tmk_core/protocol/arm_atsam/usb/udc.c **** #if (USB_DEVICE_ATTR & USB_CONFIG_ATTR_SELF_POWERED)
 523              		.loc 1 371 5 view .LVU132
 371:tmk_core/protocol/arm_atsam/usb/udc.c **** #if (USB_DEVICE_ATTR & USB_CONFIG_ATTR_SELF_POWERED)
 524              		.loc 1 371 23 is_stmt 0 view .LVU133
 525 001a A581     		strh	r5, [r4, #12]	@ movhi
 377:tmk_core/protocol/arm_atsam/usb/udc.c **** 
 526              		.loc 1 377 1 view .LVU134
 527 001c 38BD     		pop	{r3, r4, r5, pc}
 528              	.LVL36:
 529              	.L61:
 361:tmk_core/protocol/arm_atsam/usb/udc.c ****         }
 530              		.loc 1 361 13 is_stmt 1 discriminator 3 view .LVU135
 531 001e FFF7FEFF 		bl	udc_iface_disable
 532              	.LVL37:
 361:tmk_core/protocol/arm_atsam/usb/udc.c ****         }
 533              		.loc 1 361 13 is_stmt 0 discriminator 3 view .LVU136
 534 0022 0135     		adds	r5, r5, #1
 535              	.LVL38:
 536              	.L58:
 360:tmk_core/protocol/arm_atsam/usb/udc.c ****             udc_iface_disable(iface_num);
 537              		.loc 1 360 53 discriminator 1 view .LVU137
 538 0024 6368     		ldr	r3, [r4, #4]
 360:tmk_core/protocol/arm_atsam/usb/udc.c ****             udc_iface_disable(iface_num);
 539              		.loc 1 360 59 discriminator 1 view .LVU138
 540 0026 1B68     		ldr	r3, [r3]
 360:tmk_core/protocol/arm_atsam/usb/udc.c ****             udc_iface_disable(iface_num);
 541              		.loc 1 360 9 discriminator 1 view .LVU139
 542 0028 1B79     		ldrb	r3, [r3, #4]	@ zero_extendqisi2
 543 002a E8B2     		uxtb	r0, r5
 544              	.LVL39:
 360:tmk_core/protocol/arm_atsam/usb/udc.c ****             udc_iface_disable(iface_num);
 545              		.loc 1 360 9 discriminator 1 view .LVU140
 546 002c 8342     		cmp	r3, r0
 547 002e F6D8     		bhi	.L61
 548 0030 EAE7     		b	.L62
 549              	.LVL40:
 550              	.L63:
 360:tmk_core/protocol/arm_atsam/usb/udc.c ****             udc_iface_disable(iface_num);
 551              		.loc 1 360 9 discriminator 1 view .LVU141
 552 0032 0025     		movs	r5, #0
 553 0034 F6E7     		b	.L58
 554              	.L65:
 555 0036 00BF     		.align	2
 556              	.L64:
 557 0038 00000000 		.word	.LANCHOR0
 558              		.cfi_endproc
 559              	.LFE23:
 561              		.section	.text.udc_stop,"ax",%progbits
 562              		.align	1
 563              		.global	udc_stop
 564              		.syntax unified
 565              		.thumb
 566              		.thumb_func
 567              		.fpu fpv4-sp-d16
 569              	udc_stop:
 570              	.LFB22:
 347:tmk_core/protocol/arm_atsam/usb/udc.c ****     udd_disable();
 571              		.loc 1 347 21 is_stmt 1 view -0
 572              		.cfi_startproc
 573              		@ args = 0, pretend = 0, frame = 0
 574              		@ frame_needed = 0, uses_anonymous_args = 0
 348:tmk_core/protocol/arm_atsam/usb/udc.c ****     udc_reset();
 575              		.loc 1 348 5 view .LVU143
 347:tmk_core/protocol/arm_atsam/usb/udc.c ****     udd_disable();
 576              		.loc 1 347 21 is_stmt 0 view .LVU144
 577 0000 08B5     		push	{r3, lr}
 578              		.cfi_def_cfa_offset 8
 579              		.cfi_offset 3, -8
 580              		.cfi_offset 14, -4
 348:tmk_core/protocol/arm_atsam/usb/udc.c ****     udc_reset();
 581              		.loc 1 348 5 view .LVU145
 582 0002 FFF7FEFF 		bl	udd_disable
 583              	.LVL41:
 349:tmk_core/protocol/arm_atsam/usb/udc.c **** }
 584              		.loc 1 349 5 is_stmt 1 view .LVU146
 350:tmk_core/protocol/arm_atsam/usb/udc.c **** 
 585              		.loc 1 350 1 is_stmt 0 view .LVU147
 586 0006 BDE80840 		pop	{r3, lr}
 587              		.cfi_restore 14
 588              		.cfi_restore 3
 589              		.cfi_def_cfa_offset 0
 349:tmk_core/protocol/arm_atsam/usb/udc.c **** }
 590              		.loc 1 349 5 view .LVU148
 591 000a FFF7FEBF 		b	udc_reset
 592              	.LVL42:
 593              		.cfi_endproc
 594              	.LFE22:
 596              		.section	.text.udc_sof_notify,"ax",%progbits
 597              		.align	1
 598              		.global	udc_sof_notify
 599              		.syntax unified
 600              		.thumb
 601              		.thumb_func
 602              		.fpu fpv4-sp-d16
 604              	udc_sof_notify:
 605              	.LFB24:
 379:tmk_core/protocol/arm_atsam/usb/udc.c ****     uint8_t iface_num;
 606              		.loc 1 379 27 is_stmt 1 view -0
 607              		.cfi_startproc
 608              		@ args = 0, pretend = 0, frame = 0
 609              		@ frame_needed = 0, uses_anonymous_args = 0
 380:tmk_core/protocol/arm_atsam/usb/udc.c **** 
 610              		.loc 1 380 5 view .LVU150
 382:tmk_core/protocol/arm_atsam/usb/udc.c ****         for (iface_num = 0; iface_num < udc_ptr_conf->desc->bNumInterfaces; iface_num++) {
 611              		.loc 1 382 5 view .LVU151
 379:tmk_core/protocol/arm_atsam/usb/udc.c ****     uint8_t iface_num;
 612              		.loc 1 379 27 is_stmt 0 view .LVU152
 613 0000 38B5     		push	{r3, r4, r5, lr}
 614              		.cfi_def_cfa_offset 16
 615              		.cfi_offset 3, -16
 616              		.cfi_offset 4, -12
 617              		.cfi_offset 5, -8
 618              		.cfi_offset 14, -4
 382:tmk_core/protocol/arm_atsam/usb/udc.c ****         for (iface_num = 0; iface_num < udc_ptr_conf->desc->bNumInterfaces; iface_num++) {
 619              		.loc 1 382 9 view .LVU153
 620 0002 0A4C     		ldr	r4, .L76
 382:tmk_core/protocol/arm_atsam/usb/udc.c ****         for (iface_num = 0; iface_num < udc_ptr_conf->desc->bNumInterfaces; iface_num++) {
 621              		.loc 1 382 8 view .LVU154
 622 0004 2278     		ldrb	r2, [r4]	@ zero_extendqisi2
 623 0006 72B9     		cbnz	r2, .L72
 624              	.L67:
 389:tmk_core/protocol/arm_atsam/usb/udc.c **** 
 625              		.loc 1 389 1 view .LVU155
 626 0008 38BD     		pop	{r3, r4, r5, pc}
 627              	.LVL43:
 628              	.L70:
 384:tmk_core/protocol/arm_atsam/usb/udc.c ****                 udc_ptr_conf->udi_apis[iface_num]->sof_notify();
 629              		.loc 1 384 13 is_stmt 1 view .LVU156
 384:tmk_core/protocol/arm_atsam/usb/udc.c ****                 udc_ptr_conf->udi_apis[iface_num]->sof_notify();
 630              		.loc 1 384 39 is_stmt 0 view .LVU157
 631 000a 5268     		ldr	r2, [r2, #4]
 384:tmk_core/protocol/arm_atsam/usb/udc.c ****                 udc_ptr_conf->udi_apis[iface_num]->sof_notify();
 632              		.loc 1 384 50 view .LVU158
 633 000c 52F82330 		ldr	r3, [r2, r3, lsl #2]
 634 0010 1B69     		ldr	r3, [r3, #16]
 384:tmk_core/protocol/arm_atsam/usb/udc.c ****                 udc_ptr_conf->udi_apis[iface_num]->sof_notify();
 635              		.loc 1 384 16 view .LVU159
 636 0012 03B1     		cbz	r3, .L69
 385:tmk_core/protocol/arm_atsam/usb/udc.c ****             }
 637              		.loc 1 385 17 is_stmt 1 view .LVU160
 638 0014 9847     		blx	r3
 639              	.LVL44:
 640              	.L69:
 385:tmk_core/protocol/arm_atsam/usb/udc.c ****             }
 641              		.loc 1 385 17 is_stmt 0 view .LVU161
 642 0016 0135     		adds	r5, r5, #1
 643              	.LVL45:
 644              	.L68:
 383:tmk_core/protocol/arm_atsam/usb/udc.c ****             if (udc_ptr_conf->udi_apis[iface_num]->sof_notify != NULL) {
 645              		.loc 1 383 53 discriminator 1 view .LVU162
 646 0018 6268     		ldr	r2, [r4, #4]
 383:tmk_core/protocol/arm_atsam/usb/udc.c ****             if (udc_ptr_conf->udi_apis[iface_num]->sof_notify != NULL) {
 647              		.loc 1 383 59 discriminator 1 view .LVU163
 648 001a 1368     		ldr	r3, [r2]
 383:tmk_core/protocol/arm_atsam/usb/udc.c ****             if (udc_ptr_conf->udi_apis[iface_num]->sof_notify != NULL) {
 649              		.loc 1 383 9 discriminator 1 view .LVU164
 650 001c 1979     		ldrb	r1, [r3, #4]	@ zero_extendqisi2
 651 001e EBB2     		uxtb	r3, r5
 652 0020 9942     		cmp	r1, r3
 653 0022 F2D8     		bhi	.L70
 654 0024 F0E7     		b	.L67
 655              	.LVL46:
 656              	.L72:
 383:tmk_core/protocol/arm_atsam/usb/udc.c ****             if (udc_ptr_conf->udi_apis[iface_num]->sof_notify != NULL) {
 657              		.loc 1 383 9 discriminator 1 view .LVU165
 658 0026 0025     		movs	r5, #0
 659 0028 F6E7     		b	.L68
 660              	.L77:
 661 002a 00BF     		.align	2
 662              	.L76:
 663 002c 00000000 		.word	.LANCHOR0
 664              		.cfi_endproc
 665              	.LFE24:
 667              		.section	.text.udc_process_setup,"ax",%progbits
 668              		.align	1
 669              		.global	udc_process_setup
 670              		.syntax unified
 671              		.thumb
 672              		.thumb_func
 673              		.fpu fpv4-sp-d16
 675              	udc_process_setup:
 676              	.LFB42:
 545:tmk_core/protocol/arm_atsam/usb/udc.c **** 
 546:tmk_core/protocol/arm_atsam/usb/udc.c **** /**
 547:tmk_core/protocol/arm_atsam/usb/udc.c ****  * \brief Standard device request to set device address
 548:tmk_core/protocol/arm_atsam/usb/udc.c ****  *
 549:tmk_core/protocol/arm_atsam/usb/udc.c ****  * \return true if success
 550:tmk_core/protocol/arm_atsam/usb/udc.c ****  */
 551:tmk_core/protocol/arm_atsam/usb/udc.c **** static bool udc_req_std_dev_set_address(void) {
 552:tmk_core/protocol/arm_atsam/usb/udc.c ****     if (udd_g_ctrlreq.req.wLength) {
 553:tmk_core/protocol/arm_atsam/usb/udc.c ****         return false;
 554:tmk_core/protocol/arm_atsam/usb/udc.c ****     }
 555:tmk_core/protocol/arm_atsam/usb/udc.c **** 
 556:tmk_core/protocol/arm_atsam/usb/udc.c ****     // The address must be changed at the end of setup request after the handshake
 557:tmk_core/protocol/arm_atsam/usb/udc.c ****     // then we use a callback to change address
 558:tmk_core/protocol/arm_atsam/usb/udc.c ****     udd_g_ctrlreq.callback = udc_valid_address;
 559:tmk_core/protocol/arm_atsam/usb/udc.c ****     return true;
 560:tmk_core/protocol/arm_atsam/usb/udc.c **** }
 561:tmk_core/protocol/arm_atsam/usb/udc.c **** 
 562:tmk_core/protocol/arm_atsam/usb/udc.c **** /**
 563:tmk_core/protocol/arm_atsam/usb/udc.c ****  * \brief Standard device request to get device string descriptor
 564:tmk_core/protocol/arm_atsam/usb/udc.c ****  *
 565:tmk_core/protocol/arm_atsam/usb/udc.c ****  * \return true if success
 566:tmk_core/protocol/arm_atsam/usb/udc.c ****  */
 567:tmk_core/protocol/arm_atsam/usb/udc.c **** static bool udc_req_std_dev_get_str_desc(void) {
 568:tmk_core/protocol/arm_atsam/usb/udc.c ****     uint8_t        i;
 569:tmk_core/protocol/arm_atsam/usb/udc.c ****     const uint8_t *str;
 570:tmk_core/protocol/arm_atsam/usb/udc.c ****     uint8_t        str_length = 0;
 571:tmk_core/protocol/arm_atsam/usb/udc.c **** 
 572:tmk_core/protocol/arm_atsam/usb/udc.c ****     // Link payload pointer to the string corresponding at request
 573:tmk_core/protocol/arm_atsam/usb/udc.c ****     switch (udd_g_ctrlreq.req.wValue & 0xff) {
 574:tmk_core/protocol/arm_atsam/usb/udc.c ****         case 0:
 575:tmk_core/protocol/arm_atsam/usb/udc.c ****             udd_set_setup_payload((uint8_t *)&udc_string_desc_languageid, sizeof(udc_string_desc_la
 576:tmk_core/protocol/arm_atsam/usb/udc.c ****             break;
 577:tmk_core/protocol/arm_atsam/usb/udc.c **** 
 578:tmk_core/protocol/arm_atsam/usb/udc.c **** #ifdef USB_DEVICE_MANUFACTURE_NAME
 579:tmk_core/protocol/arm_atsam/usb/udc.c ****         case 1:
 580:tmk_core/protocol/arm_atsam/usb/udc.c ****             str_length = USB_DEVICE_MANUFACTURE_NAME_SIZE;
 581:tmk_core/protocol/arm_atsam/usb/udc.c ****             str        = udc_string_manufacturer_name;
 582:tmk_core/protocol/arm_atsam/usb/udc.c ****             break;
 583:tmk_core/protocol/arm_atsam/usb/udc.c **** #endif
 584:tmk_core/protocol/arm_atsam/usb/udc.c **** #ifdef USB_DEVICE_PRODUCT_NAME
 585:tmk_core/protocol/arm_atsam/usb/udc.c ****         case 2:
 586:tmk_core/protocol/arm_atsam/usb/udc.c ****             str_length = USB_DEVICE_PRODUCT_NAME_SIZE;
 587:tmk_core/protocol/arm_atsam/usb/udc.c ****             str        = udc_string_product_name;
 588:tmk_core/protocol/arm_atsam/usb/udc.c ****             break;
 589:tmk_core/protocol/arm_atsam/usb/udc.c **** #endif
 590:tmk_core/protocol/arm_atsam/usb/udc.c ****         case 3:
 591:tmk_core/protocol/arm_atsam/usb/udc.c ****             str        = udc_get_string_serial_name();
 592:tmk_core/protocol/arm_atsam/usb/udc.c ****             str_length = usb_device_serial_name_size;
 593:tmk_core/protocol/arm_atsam/usb/udc.c ****             break;
 594:tmk_core/protocol/arm_atsam/usb/udc.c ****         default:
 595:tmk_core/protocol/arm_atsam/usb/udc.c **** #ifdef UDC_GET_EXTRA_STRING
 596:tmk_core/protocol/arm_atsam/usb/udc.c ****             if (UDC_GET_EXTRA_STRING()) {
 597:tmk_core/protocol/arm_atsam/usb/udc.c ****                 break;
 598:tmk_core/protocol/arm_atsam/usb/udc.c ****             }
 599:tmk_core/protocol/arm_atsam/usb/udc.c **** #endif
 600:tmk_core/protocol/arm_atsam/usb/udc.c ****             return false;
 601:tmk_core/protocol/arm_atsam/usb/udc.c ****     }
 602:tmk_core/protocol/arm_atsam/usb/udc.c **** 
 603:tmk_core/protocol/arm_atsam/usb/udc.c ****     if (str_length) {
 604:tmk_core/protocol/arm_atsam/usb/udc.c ****         for (i = 0; i < str_length; i++) {
 605:tmk_core/protocol/arm_atsam/usb/udc.c ****             udc_string_desc.string[i] = cpu_to_le16((le16_t)str[i]);
 606:tmk_core/protocol/arm_atsam/usb/udc.c ****         }
 607:tmk_core/protocol/arm_atsam/usb/udc.c **** 
 608:tmk_core/protocol/arm_atsam/usb/udc.c ****         udc_string_desc.header.bLength = 2 + (str_length)*2;
 609:tmk_core/protocol/arm_atsam/usb/udc.c ****         udd_set_setup_payload((uint8_t *)&udc_string_desc, udc_string_desc.header.bLength);
 610:tmk_core/protocol/arm_atsam/usb/udc.c ****     }
 611:tmk_core/protocol/arm_atsam/usb/udc.c **** 
 612:tmk_core/protocol/arm_atsam/usb/udc.c ****     return true;
 613:tmk_core/protocol/arm_atsam/usb/udc.c **** }
 614:tmk_core/protocol/arm_atsam/usb/udc.c **** 
 615:tmk_core/protocol/arm_atsam/usb/udc.c **** /**
 616:tmk_core/protocol/arm_atsam/usb/udc.c ****  * \brief Standard device request to get descriptors about USB device
 617:tmk_core/protocol/arm_atsam/usb/udc.c ****  *
 618:tmk_core/protocol/arm_atsam/usb/udc.c ****  * \return true if success
 619:tmk_core/protocol/arm_atsam/usb/udc.c ****  */
 620:tmk_core/protocol/arm_atsam/usb/udc.c **** static bool udc_req_std_dev_get_descriptor(void) {
 621:tmk_core/protocol/arm_atsam/usb/udc.c ****     uint8_t conf_num;
 622:tmk_core/protocol/arm_atsam/usb/udc.c **** 
 623:tmk_core/protocol/arm_atsam/usb/udc.c ****     conf_num = udd_g_ctrlreq.req.wValue & 0xff;
 624:tmk_core/protocol/arm_atsam/usb/udc.c **** 
 625:tmk_core/protocol/arm_atsam/usb/udc.c ****     // Check descriptor ID
 626:tmk_core/protocol/arm_atsam/usb/udc.c ****     switch ((uint8_t)(udd_g_ctrlreq.req.wValue >> 8)) {
 627:tmk_core/protocol/arm_atsam/usb/udc.c ****         case USB_DT_DEVICE:
 628:tmk_core/protocol/arm_atsam/usb/udc.c ****             // Device descriptor requested
 629:tmk_core/protocol/arm_atsam/usb/udc.c **** #ifdef USB_DEVICE_HS_SUPPORT
 630:tmk_core/protocol/arm_atsam/usb/udc.c ****             if (!udd_is_high_speed()) {
 631:tmk_core/protocol/arm_atsam/usb/udc.c ****                 udd_set_setup_payload((uint8_t *)udc_config.confdev_hs, udc_config.confdev_hs->bLen
 632:tmk_core/protocol/arm_atsam/usb/udc.c ****             } else
 633:tmk_core/protocol/arm_atsam/usb/udc.c **** #endif
 634:tmk_core/protocol/arm_atsam/usb/udc.c ****             {
 635:tmk_core/protocol/arm_atsam/usb/udc.c ****                 udd_set_setup_payload((uint8_t *)udc_config.confdev_lsfs, udc_config.confdev_lsfs->
 636:tmk_core/protocol/arm_atsam/usb/udc.c ****             }
 637:tmk_core/protocol/arm_atsam/usb/udc.c ****             break;
 638:tmk_core/protocol/arm_atsam/usb/udc.c **** 
 639:tmk_core/protocol/arm_atsam/usb/udc.c ****         case USB_DT_CONFIGURATION:
 640:tmk_core/protocol/arm_atsam/usb/udc.c ****             // Configuration descriptor requested
 641:tmk_core/protocol/arm_atsam/usb/udc.c **** #ifdef USB_DEVICE_HS_SUPPORT
 642:tmk_core/protocol/arm_atsam/usb/udc.c ****             if (udd_is_high_speed()) {
 643:tmk_core/protocol/arm_atsam/usb/udc.c ****                 // HS descriptor
 644:tmk_core/protocol/arm_atsam/usb/udc.c ****                 if (conf_num >= udc_config.confdev_hs->bNumConfigurations) {
 645:tmk_core/protocol/arm_atsam/usb/udc.c ****                     return false;
 646:tmk_core/protocol/arm_atsam/usb/udc.c ****                 }
 647:tmk_core/protocol/arm_atsam/usb/udc.c ****                 udd_set_setup_payload((uint8_t *)udc_config.conf_hs[conf_num].desc, le16_to_cpu(udc
 648:tmk_core/protocol/arm_atsam/usb/udc.c ****             } else
 649:tmk_core/protocol/arm_atsam/usb/udc.c **** #endif
 650:tmk_core/protocol/arm_atsam/usb/udc.c ****             {
 651:tmk_core/protocol/arm_atsam/usb/udc.c ****                 // FS descriptor
 652:tmk_core/protocol/arm_atsam/usb/udc.c ****                 if (conf_num >= udc_config.confdev_lsfs->bNumConfigurations) {
 653:tmk_core/protocol/arm_atsam/usb/udc.c ****                     return false;
 654:tmk_core/protocol/arm_atsam/usb/udc.c ****                 }
 655:tmk_core/protocol/arm_atsam/usb/udc.c ****                 udd_set_setup_payload((uint8_t *)udc_config.conf_lsfs[conf_num].desc, le16_to_cpu(u
 656:tmk_core/protocol/arm_atsam/usb/udc.c ****             }
 657:tmk_core/protocol/arm_atsam/usb/udc.c ****             ((usb_conf_desc_t *)udd_g_ctrlreq.payload)->bDescriptorType = USB_DT_CONFIGURATION;
 658:tmk_core/protocol/arm_atsam/usb/udc.c ****             break;
 659:tmk_core/protocol/arm_atsam/usb/udc.c **** 
 660:tmk_core/protocol/arm_atsam/usb/udc.c **** #ifdef USB_DEVICE_HS_SUPPORT
 661:tmk_core/protocol/arm_atsam/usb/udc.c ****         case USB_DT_DEVICE_QUALIFIER:
 662:tmk_core/protocol/arm_atsam/usb/udc.c ****             // Device qualifier descriptor requested
 663:tmk_core/protocol/arm_atsam/usb/udc.c ****             udd_set_setup_payload((uint8_t *)udc_config.qualifier, udc_config.qualifier->bLength);
 664:tmk_core/protocol/arm_atsam/usb/udc.c ****             break;
 665:tmk_core/protocol/arm_atsam/usb/udc.c **** 
 666:tmk_core/protocol/arm_atsam/usb/udc.c ****         case USB_DT_OTHER_SPEED_CONFIGURATION:
 667:tmk_core/protocol/arm_atsam/usb/udc.c ****             // Other configuration descriptor requested
 668:tmk_core/protocol/arm_atsam/usb/udc.c ****             if (!udd_is_high_speed()) {
 669:tmk_core/protocol/arm_atsam/usb/udc.c ****                 // HS descriptor
 670:tmk_core/protocol/arm_atsam/usb/udc.c ****                 if (conf_num >= udc_config.confdev_hs->bNumConfigurations) {
 671:tmk_core/protocol/arm_atsam/usb/udc.c ****                     return false;
 672:tmk_core/protocol/arm_atsam/usb/udc.c ****                 }
 673:tmk_core/protocol/arm_atsam/usb/udc.c ****                 udd_set_setup_payload((uint8_t *)udc_config.conf_hs[conf_num].desc, le16_to_cpu(udc
 674:tmk_core/protocol/arm_atsam/usb/udc.c ****             } else {
 675:tmk_core/protocol/arm_atsam/usb/udc.c ****                 // FS descriptor
 676:tmk_core/protocol/arm_atsam/usb/udc.c ****                 if (conf_num >= udc_config.confdev_lsfs->bNumConfigurations) {
 677:tmk_core/protocol/arm_atsam/usb/udc.c ****                     return false;
 678:tmk_core/protocol/arm_atsam/usb/udc.c ****                 }
 679:tmk_core/protocol/arm_atsam/usb/udc.c ****                 udd_set_setup_payload((uint8_t *)udc_config.conf_lsfs[conf_num].desc, le16_to_cpu(u
 680:tmk_core/protocol/arm_atsam/usb/udc.c ****             }
 681:tmk_core/protocol/arm_atsam/usb/udc.c ****             ((usb_conf_desc_t *)udd_g_ctrlreq.payload)->bDescriptorType = USB_DT_OTHER_SPEED_CONFIG
 682:tmk_core/protocol/arm_atsam/usb/udc.c ****             break;
 683:tmk_core/protocol/arm_atsam/usb/udc.c **** #endif
 684:tmk_core/protocol/arm_atsam/usb/udc.c **** 
 685:tmk_core/protocol/arm_atsam/usb/udc.c ****         case USB_DT_BOS:
 686:tmk_core/protocol/arm_atsam/usb/udc.c ****             // Device BOS descriptor requested
 687:tmk_core/protocol/arm_atsam/usb/udc.c ****             if (udc_config.conf_bos == NULL) {
 688:tmk_core/protocol/arm_atsam/usb/udc.c ****                 return false;
 689:tmk_core/protocol/arm_atsam/usb/udc.c ****             }
 690:tmk_core/protocol/arm_atsam/usb/udc.c ****             udd_set_setup_payload((uint8_t *)udc_config.conf_bos, udc_config.conf_bos->wTotalLength
 691:tmk_core/protocol/arm_atsam/usb/udc.c ****             break;
 692:tmk_core/protocol/arm_atsam/usb/udc.c **** 
 693:tmk_core/protocol/arm_atsam/usb/udc.c ****         case USB_DT_STRING:
 694:tmk_core/protocol/arm_atsam/usb/udc.c ****             // String descriptor requested
 695:tmk_core/protocol/arm_atsam/usb/udc.c ****             if (!udc_req_std_dev_get_str_desc()) {
 696:tmk_core/protocol/arm_atsam/usb/udc.c ****                 return false;
 697:tmk_core/protocol/arm_atsam/usb/udc.c ****             }
 698:tmk_core/protocol/arm_atsam/usb/udc.c ****             break;
 699:tmk_core/protocol/arm_atsam/usb/udc.c **** 
 700:tmk_core/protocol/arm_atsam/usb/udc.c ****         default:
 701:tmk_core/protocol/arm_atsam/usb/udc.c ****             // Unknown descriptor requested
 702:tmk_core/protocol/arm_atsam/usb/udc.c ****             return false;
 703:tmk_core/protocol/arm_atsam/usb/udc.c ****     }
 704:tmk_core/protocol/arm_atsam/usb/udc.c ****     // if the descriptor is larger than length requested, then reduce it
 705:tmk_core/protocol/arm_atsam/usb/udc.c ****     if (udd_g_ctrlreq.req.wLength < udd_g_ctrlreq.payload_size) {
 706:tmk_core/protocol/arm_atsam/usb/udc.c ****         udd_g_ctrlreq.payload_size = udd_g_ctrlreq.req.wLength;
 707:tmk_core/protocol/arm_atsam/usb/udc.c ****     }
 708:tmk_core/protocol/arm_atsam/usb/udc.c ****     return true;
 709:tmk_core/protocol/arm_atsam/usb/udc.c **** }
 710:tmk_core/protocol/arm_atsam/usb/udc.c **** 
 711:tmk_core/protocol/arm_atsam/usb/udc.c **** /**
 712:tmk_core/protocol/arm_atsam/usb/udc.c ****  * \brief Standard device request to get configuration number
 713:tmk_core/protocol/arm_atsam/usb/udc.c ****  *
 714:tmk_core/protocol/arm_atsam/usb/udc.c ****  * \return true if success
 715:tmk_core/protocol/arm_atsam/usb/udc.c ****  */
 716:tmk_core/protocol/arm_atsam/usb/udc.c **** static bool udc_req_std_dev_get_configuration(void) {
 717:tmk_core/protocol/arm_atsam/usb/udc.c ****     if (udd_g_ctrlreq.req.wLength != 1) {
 718:tmk_core/protocol/arm_atsam/usb/udc.c ****         return false;
 719:tmk_core/protocol/arm_atsam/usb/udc.c ****     }
 720:tmk_core/protocol/arm_atsam/usb/udc.c **** 
 721:tmk_core/protocol/arm_atsam/usb/udc.c ****     udd_set_setup_payload(&udc_num_configuration, 1);
 722:tmk_core/protocol/arm_atsam/usb/udc.c ****     return true;
 723:tmk_core/protocol/arm_atsam/usb/udc.c **** }
 724:tmk_core/protocol/arm_atsam/usb/udc.c **** 
 725:tmk_core/protocol/arm_atsam/usb/udc.c **** /**
 726:tmk_core/protocol/arm_atsam/usb/udc.c ****  * \brief Standard device request to enable a configuration
 727:tmk_core/protocol/arm_atsam/usb/udc.c ****  *
 728:tmk_core/protocol/arm_atsam/usb/udc.c ****  * \return true if success
 729:tmk_core/protocol/arm_atsam/usb/udc.c ****  */
 730:tmk_core/protocol/arm_atsam/usb/udc.c **** static bool udc_req_std_dev_set_configuration(void) {
 731:tmk_core/protocol/arm_atsam/usb/udc.c ****     uint8_t iface_num;
 732:tmk_core/protocol/arm_atsam/usb/udc.c **** 
 733:tmk_core/protocol/arm_atsam/usb/udc.c ****     // Check request length
 734:tmk_core/protocol/arm_atsam/usb/udc.c ****     if (udd_g_ctrlreq.req.wLength) {
 735:tmk_core/protocol/arm_atsam/usb/udc.c ****         return false;
 736:tmk_core/protocol/arm_atsam/usb/udc.c ****     }
 737:tmk_core/protocol/arm_atsam/usb/udc.c ****     // Authorize configuration only if the address is valid
 738:tmk_core/protocol/arm_atsam/usb/udc.c ****     if (!udd_getaddress()) {
 739:tmk_core/protocol/arm_atsam/usb/udc.c ****         return false;
 740:tmk_core/protocol/arm_atsam/usb/udc.c ****     }
 741:tmk_core/protocol/arm_atsam/usb/udc.c ****     // Check the configuration number requested
 742:tmk_core/protocol/arm_atsam/usb/udc.c **** #ifdef USB_DEVICE_HS_SUPPORT
 743:tmk_core/protocol/arm_atsam/usb/udc.c ****     if (udd_is_high_speed()) {
 744:tmk_core/protocol/arm_atsam/usb/udc.c ****         // HS descriptor
 745:tmk_core/protocol/arm_atsam/usb/udc.c ****         if ((udd_g_ctrlreq.req.wValue & 0xFF) > udc_config.confdev_hs->bNumConfigurations) {
 746:tmk_core/protocol/arm_atsam/usb/udc.c ****             return false;
 747:tmk_core/protocol/arm_atsam/usb/udc.c ****         }
 748:tmk_core/protocol/arm_atsam/usb/udc.c ****     } else
 749:tmk_core/protocol/arm_atsam/usb/udc.c **** #endif
 750:tmk_core/protocol/arm_atsam/usb/udc.c ****     {
 751:tmk_core/protocol/arm_atsam/usb/udc.c ****         // FS descriptor
 752:tmk_core/protocol/arm_atsam/usb/udc.c ****         if ((udd_g_ctrlreq.req.wValue & 0xFF) > udc_config.confdev_lsfs->bNumConfigurations) {
 753:tmk_core/protocol/arm_atsam/usb/udc.c ****             return false;
 754:tmk_core/protocol/arm_atsam/usb/udc.c ****         }
 755:tmk_core/protocol/arm_atsam/usb/udc.c ****     }
 756:tmk_core/protocol/arm_atsam/usb/udc.c **** 
 757:tmk_core/protocol/arm_atsam/usb/udc.c ****     // Reset current configuration
 758:tmk_core/protocol/arm_atsam/usb/udc.c ****     udc_reset();
 759:tmk_core/protocol/arm_atsam/usb/udc.c **** 
 760:tmk_core/protocol/arm_atsam/usb/udc.c ****     // Enable new configuration
 761:tmk_core/protocol/arm_atsam/usb/udc.c ****     udc_num_configuration = udd_g_ctrlreq.req.wValue & 0xFF;
 762:tmk_core/protocol/arm_atsam/usb/udc.c ****     if (udc_num_configuration == 0) {
 763:tmk_core/protocol/arm_atsam/usb/udc.c ****         return true;  // Default empty configuration requested
 764:tmk_core/protocol/arm_atsam/usb/udc.c ****     }
 765:tmk_core/protocol/arm_atsam/usb/udc.c ****     // Update pointer of the configuration descriptor
 766:tmk_core/protocol/arm_atsam/usb/udc.c **** #ifdef USB_DEVICE_HS_SUPPORT
 767:tmk_core/protocol/arm_atsam/usb/udc.c ****     if (udd_is_high_speed()) {
 768:tmk_core/protocol/arm_atsam/usb/udc.c ****         // HS descriptor
 769:tmk_core/protocol/arm_atsam/usb/udc.c ****         udc_ptr_conf = &udc_config.conf_hs[udc_num_configuration - 1];
 770:tmk_core/protocol/arm_atsam/usb/udc.c ****     } else
 771:tmk_core/protocol/arm_atsam/usb/udc.c **** #endif
 772:tmk_core/protocol/arm_atsam/usb/udc.c ****     {
 773:tmk_core/protocol/arm_atsam/usb/udc.c ****         // FS descriptor
 774:tmk_core/protocol/arm_atsam/usb/udc.c ****         udc_ptr_conf = &udc_config.conf_lsfs[udc_num_configuration - 1];
 775:tmk_core/protocol/arm_atsam/usb/udc.c ****     }
 776:tmk_core/protocol/arm_atsam/usb/udc.c ****     // Enable all interfaces of the selected configuration
 777:tmk_core/protocol/arm_atsam/usb/udc.c ****     for (iface_num = 0; iface_num < udc_ptr_conf->desc->bNumInterfaces; iface_num++) {
 778:tmk_core/protocol/arm_atsam/usb/udc.c ****         if (!udc_iface_enable(iface_num, 0)) {
 779:tmk_core/protocol/arm_atsam/usb/udc.c ****             return false;
 780:tmk_core/protocol/arm_atsam/usb/udc.c ****         }
 781:tmk_core/protocol/arm_atsam/usb/udc.c ****     }
 782:tmk_core/protocol/arm_atsam/usb/udc.c ****     return true;
 783:tmk_core/protocol/arm_atsam/usb/udc.c **** }
 784:tmk_core/protocol/arm_atsam/usb/udc.c **** 
 785:tmk_core/protocol/arm_atsam/usb/udc.c **** /**
 786:tmk_core/protocol/arm_atsam/usb/udc.c ****  * \brief Standard interface request
 787:tmk_core/protocol/arm_atsam/usb/udc.c ****  * to get the alternate setting number of an interface
 788:tmk_core/protocol/arm_atsam/usb/udc.c ****  *
 789:tmk_core/protocol/arm_atsam/usb/udc.c ****  * \return true if success
 790:tmk_core/protocol/arm_atsam/usb/udc.c ****  */
 791:tmk_core/protocol/arm_atsam/usb/udc.c **** static bool udc_req_std_iface_get_setting(void) {
 792:tmk_core/protocol/arm_atsam/usb/udc.c ****     uint8_t   iface_num;
 793:tmk_core/protocol/arm_atsam/usb/udc.c ****     udi_api_t UDC_DESC_STORAGE *udi_api;
 794:tmk_core/protocol/arm_atsam/usb/udc.c **** 
 795:tmk_core/protocol/arm_atsam/usb/udc.c ****     if (udd_g_ctrlreq.req.wLength != 1) {
 796:tmk_core/protocol/arm_atsam/usb/udc.c ****         return false;  // Error in request
 797:tmk_core/protocol/arm_atsam/usb/udc.c ****     }
 798:tmk_core/protocol/arm_atsam/usb/udc.c ****     if (!udc_num_configuration) {
 799:tmk_core/protocol/arm_atsam/usb/udc.c ****         return false;  // The device is not is configured state yet
 800:tmk_core/protocol/arm_atsam/usb/udc.c ****     }
 801:tmk_core/protocol/arm_atsam/usb/udc.c **** 
 802:tmk_core/protocol/arm_atsam/usb/udc.c ****     // Check the interface number included in the request
 803:tmk_core/protocol/arm_atsam/usb/udc.c ****     iface_num = udd_g_ctrlreq.req.wIndex & 0xFF;
 804:tmk_core/protocol/arm_atsam/usb/udc.c ****     if (iface_num >= udc_ptr_conf->desc->bNumInterfaces) {
 805:tmk_core/protocol/arm_atsam/usb/udc.c ****         return false;
 806:tmk_core/protocol/arm_atsam/usb/udc.c ****     }
 807:tmk_core/protocol/arm_atsam/usb/udc.c **** 
 808:tmk_core/protocol/arm_atsam/usb/udc.c ****     // Select first alternate setting of the interface to update udc_ptr_iface
 809:tmk_core/protocol/arm_atsam/usb/udc.c ****     // before call iface->getsetting()
 810:tmk_core/protocol/arm_atsam/usb/udc.c ****     if (!udc_update_iface_desc(iface_num, 0)) {
 811:tmk_core/protocol/arm_atsam/usb/udc.c ****         return false;
 812:tmk_core/protocol/arm_atsam/usb/udc.c ****     }
 813:tmk_core/protocol/arm_atsam/usb/udc.c ****     // Get alternate setting from UDI
 814:tmk_core/protocol/arm_atsam/usb/udc.c ****     udi_api           = udc_ptr_conf->udi_apis[iface_num];
 815:tmk_core/protocol/arm_atsam/usb/udc.c ****     udc_iface_setting = udi_api->getsetting();
 816:tmk_core/protocol/arm_atsam/usb/udc.c **** 
 817:tmk_core/protocol/arm_atsam/usb/udc.c ****     // Link value to payload pointer of request
 818:tmk_core/protocol/arm_atsam/usb/udc.c ****     udd_set_setup_payload(&udc_iface_setting, 1);
 819:tmk_core/protocol/arm_atsam/usb/udc.c ****     return true;
 820:tmk_core/protocol/arm_atsam/usb/udc.c **** }
 821:tmk_core/protocol/arm_atsam/usb/udc.c **** 
 822:tmk_core/protocol/arm_atsam/usb/udc.c **** /**
 823:tmk_core/protocol/arm_atsam/usb/udc.c ****  * \brief Standard interface request
 824:tmk_core/protocol/arm_atsam/usb/udc.c ****  * to set an alternate setting of an interface
 825:tmk_core/protocol/arm_atsam/usb/udc.c ****  *
 826:tmk_core/protocol/arm_atsam/usb/udc.c ****  * \return true if success
 827:tmk_core/protocol/arm_atsam/usb/udc.c ****  */
 828:tmk_core/protocol/arm_atsam/usb/udc.c **** static bool udc_req_std_iface_set_setting(void) {
 829:tmk_core/protocol/arm_atsam/usb/udc.c ****     uint8_t iface_num, setting_num;
 830:tmk_core/protocol/arm_atsam/usb/udc.c **** 
 831:tmk_core/protocol/arm_atsam/usb/udc.c ****     if (udd_g_ctrlreq.req.wLength) {
 832:tmk_core/protocol/arm_atsam/usb/udc.c ****         return false;  // Error in request
 833:tmk_core/protocol/arm_atsam/usb/udc.c ****     }
 834:tmk_core/protocol/arm_atsam/usb/udc.c ****     if (!udc_num_configuration) {
 835:tmk_core/protocol/arm_atsam/usb/udc.c ****         return false;  // The device is not is configured state yet
 836:tmk_core/protocol/arm_atsam/usb/udc.c ****     }
 837:tmk_core/protocol/arm_atsam/usb/udc.c **** 
 838:tmk_core/protocol/arm_atsam/usb/udc.c ****     iface_num   = udd_g_ctrlreq.req.wIndex & 0xFF;
 839:tmk_core/protocol/arm_atsam/usb/udc.c ****     setting_num = udd_g_ctrlreq.req.wValue & 0xFF;
 840:tmk_core/protocol/arm_atsam/usb/udc.c **** 
 841:tmk_core/protocol/arm_atsam/usb/udc.c ****     // Disable current setting
 842:tmk_core/protocol/arm_atsam/usb/udc.c ****     if (!udc_iface_disable(iface_num)) {
 843:tmk_core/protocol/arm_atsam/usb/udc.c ****         return false;
 844:tmk_core/protocol/arm_atsam/usb/udc.c ****     }
 845:tmk_core/protocol/arm_atsam/usb/udc.c **** 
 846:tmk_core/protocol/arm_atsam/usb/udc.c ****     // Enable new setting
 847:tmk_core/protocol/arm_atsam/usb/udc.c ****     return udc_iface_enable(iface_num, setting_num);
 848:tmk_core/protocol/arm_atsam/usb/udc.c **** }
 849:tmk_core/protocol/arm_atsam/usb/udc.c **** 
 850:tmk_core/protocol/arm_atsam/usb/udc.c **** /**
 851:tmk_core/protocol/arm_atsam/usb/udc.c ****  * \brief Main routine to manage the standard USB SETUP request
 852:tmk_core/protocol/arm_atsam/usb/udc.c ****  *
 853:tmk_core/protocol/arm_atsam/usb/udc.c ****  * \return true if the request is supported
 854:tmk_core/protocol/arm_atsam/usb/udc.c ****  */
 855:tmk_core/protocol/arm_atsam/usb/udc.c **** static bool udc_reqstd(void) {
 856:tmk_core/protocol/arm_atsam/usb/udc.c ****     if (Udd_setup_is_in()) {
 857:tmk_core/protocol/arm_atsam/usb/udc.c ****         // GET Standard Requests
 858:tmk_core/protocol/arm_atsam/usb/udc.c ****         if (udd_g_ctrlreq.req.wLength == 0) {
 859:tmk_core/protocol/arm_atsam/usb/udc.c ****             return false;  // Error for USB host
 860:tmk_core/protocol/arm_atsam/usb/udc.c ****         }
 861:tmk_core/protocol/arm_atsam/usb/udc.c **** 
 862:tmk_core/protocol/arm_atsam/usb/udc.c ****         if (USB_REQ_RECIP_DEVICE == Udd_setup_recipient()) {
 863:tmk_core/protocol/arm_atsam/usb/udc.c ****             // Standard Get Device request
 864:tmk_core/protocol/arm_atsam/usb/udc.c ****             switch (udd_g_ctrlreq.req.bRequest) {
 865:tmk_core/protocol/arm_atsam/usb/udc.c ****                 case USB_REQ_GET_STATUS:
 866:tmk_core/protocol/arm_atsam/usb/udc.c ****                     return udc_req_std_dev_get_status();
 867:tmk_core/protocol/arm_atsam/usb/udc.c ****                 case USB_REQ_GET_DESCRIPTOR:
 868:tmk_core/protocol/arm_atsam/usb/udc.c ****                     return udc_req_std_dev_get_descriptor();
 869:tmk_core/protocol/arm_atsam/usb/udc.c ****                 case USB_REQ_GET_CONFIGURATION:
 870:tmk_core/protocol/arm_atsam/usb/udc.c ****                     return udc_req_std_dev_get_configuration();
 871:tmk_core/protocol/arm_atsam/usb/udc.c ****                 default:
 872:tmk_core/protocol/arm_atsam/usb/udc.c ****                     break;
 873:tmk_core/protocol/arm_atsam/usb/udc.c ****             }
 874:tmk_core/protocol/arm_atsam/usb/udc.c ****         }
 875:tmk_core/protocol/arm_atsam/usb/udc.c **** 
 876:tmk_core/protocol/arm_atsam/usb/udc.c ****         if (USB_REQ_RECIP_INTERFACE == Udd_setup_recipient()) {
 877:tmk_core/protocol/arm_atsam/usb/udc.c ****             // Standard Get Interface request
 878:tmk_core/protocol/arm_atsam/usb/udc.c ****             switch (udd_g_ctrlreq.req.bRequest) {
 879:tmk_core/protocol/arm_atsam/usb/udc.c ****                 case USB_REQ_GET_INTERFACE:
 880:tmk_core/protocol/arm_atsam/usb/udc.c ****                     return udc_req_std_iface_get_setting();
 881:tmk_core/protocol/arm_atsam/usb/udc.c ****                 default:
 882:tmk_core/protocol/arm_atsam/usb/udc.c ****                     break;
 883:tmk_core/protocol/arm_atsam/usb/udc.c ****             }
 884:tmk_core/protocol/arm_atsam/usb/udc.c ****         }
 885:tmk_core/protocol/arm_atsam/usb/udc.c **** #if (0 != USB_DEVICE_MAX_EP)
 886:tmk_core/protocol/arm_atsam/usb/udc.c ****         if (USB_REQ_RECIP_ENDPOINT == Udd_setup_recipient()) {
 887:tmk_core/protocol/arm_atsam/usb/udc.c ****             // Standard Get Endpoint request
 888:tmk_core/protocol/arm_atsam/usb/udc.c ****             switch (udd_g_ctrlreq.req.bRequest) {
 889:tmk_core/protocol/arm_atsam/usb/udc.c ****                 case USB_REQ_GET_STATUS:
 890:tmk_core/protocol/arm_atsam/usb/udc.c ****                     return udc_req_std_ep_get_status();
 891:tmk_core/protocol/arm_atsam/usb/udc.c ****                 default:
 892:tmk_core/protocol/arm_atsam/usb/udc.c ****                     break;
 893:tmk_core/protocol/arm_atsam/usb/udc.c ****             }
 894:tmk_core/protocol/arm_atsam/usb/udc.c ****         }
 895:tmk_core/protocol/arm_atsam/usb/udc.c **** #endif
 896:tmk_core/protocol/arm_atsam/usb/udc.c ****     } else {
 897:tmk_core/protocol/arm_atsam/usb/udc.c ****         // SET Standard Requests
 898:tmk_core/protocol/arm_atsam/usb/udc.c ****         if (USB_REQ_RECIP_DEVICE == Udd_setup_recipient()) {
 899:tmk_core/protocol/arm_atsam/usb/udc.c ****             // Standard Set Device request
 900:tmk_core/protocol/arm_atsam/usb/udc.c ****             switch (udd_g_ctrlreq.req.bRequest) {
 901:tmk_core/protocol/arm_atsam/usb/udc.c ****                 case USB_REQ_SET_ADDRESS:
 902:tmk_core/protocol/arm_atsam/usb/udc.c ****                     return udc_req_std_dev_set_address();
 903:tmk_core/protocol/arm_atsam/usb/udc.c ****                 case USB_REQ_CLEAR_FEATURE:
 904:tmk_core/protocol/arm_atsam/usb/udc.c ****                     return udc_req_std_dev_clear_feature();
 905:tmk_core/protocol/arm_atsam/usb/udc.c ****                 case USB_REQ_SET_FEATURE:
 906:tmk_core/protocol/arm_atsam/usb/udc.c ****                     return udc_req_std_dev_set_feature();
 907:tmk_core/protocol/arm_atsam/usb/udc.c ****                 case USB_REQ_SET_CONFIGURATION:
 908:tmk_core/protocol/arm_atsam/usb/udc.c ****                     return udc_req_std_dev_set_configuration();
 909:tmk_core/protocol/arm_atsam/usb/udc.c ****                 case USB_REQ_SET_DESCRIPTOR:
 910:tmk_core/protocol/arm_atsam/usb/udc.c ****                     /* Not supported (defined as optional by the USB 2.0 spec) */
 911:tmk_core/protocol/arm_atsam/usb/udc.c ****                     break;
 912:tmk_core/protocol/arm_atsam/usb/udc.c ****                 default:
 913:tmk_core/protocol/arm_atsam/usb/udc.c ****                     break;
 914:tmk_core/protocol/arm_atsam/usb/udc.c ****             }
 915:tmk_core/protocol/arm_atsam/usb/udc.c ****         }
 916:tmk_core/protocol/arm_atsam/usb/udc.c **** 
 917:tmk_core/protocol/arm_atsam/usb/udc.c ****         if (USB_REQ_RECIP_INTERFACE == Udd_setup_recipient()) {
 918:tmk_core/protocol/arm_atsam/usb/udc.c ****             // Standard Set Interface request
 919:tmk_core/protocol/arm_atsam/usb/udc.c ****             switch (udd_g_ctrlreq.req.bRequest) {
 920:tmk_core/protocol/arm_atsam/usb/udc.c ****                 case USB_REQ_SET_INTERFACE:
 921:tmk_core/protocol/arm_atsam/usb/udc.c ****                     return udc_req_std_iface_set_setting();
 922:tmk_core/protocol/arm_atsam/usb/udc.c ****                 default:
 923:tmk_core/protocol/arm_atsam/usb/udc.c ****                     break;
 924:tmk_core/protocol/arm_atsam/usb/udc.c ****             }
 925:tmk_core/protocol/arm_atsam/usb/udc.c ****         }
 926:tmk_core/protocol/arm_atsam/usb/udc.c **** #if (0 != USB_DEVICE_MAX_EP)
 927:tmk_core/protocol/arm_atsam/usb/udc.c ****         if (USB_REQ_RECIP_ENDPOINT == Udd_setup_recipient()) {
 928:tmk_core/protocol/arm_atsam/usb/udc.c ****             // Standard Set Endpoint request
 929:tmk_core/protocol/arm_atsam/usb/udc.c ****             switch (udd_g_ctrlreq.req.bRequest) {
 930:tmk_core/protocol/arm_atsam/usb/udc.c ****                 case USB_REQ_CLEAR_FEATURE:
 931:tmk_core/protocol/arm_atsam/usb/udc.c ****                     return udc_req_std_ep_clear_feature();
 932:tmk_core/protocol/arm_atsam/usb/udc.c ****                 case USB_REQ_SET_FEATURE:
 933:tmk_core/protocol/arm_atsam/usb/udc.c ****                     return udc_req_std_ep_set_feature();
 934:tmk_core/protocol/arm_atsam/usb/udc.c ****                 default:
 935:tmk_core/protocol/arm_atsam/usb/udc.c ****                     break;
 936:tmk_core/protocol/arm_atsam/usb/udc.c ****             }
 937:tmk_core/protocol/arm_atsam/usb/udc.c ****         }
 938:tmk_core/protocol/arm_atsam/usb/udc.c **** #endif
 939:tmk_core/protocol/arm_atsam/usb/udc.c ****     }
 940:tmk_core/protocol/arm_atsam/usb/udc.c ****     return false;
 941:tmk_core/protocol/arm_atsam/usb/udc.c **** }
 942:tmk_core/protocol/arm_atsam/usb/udc.c **** 
 943:tmk_core/protocol/arm_atsam/usb/udc.c **** /**
 944:tmk_core/protocol/arm_atsam/usb/udc.c ****  * \brief Send the SETUP interface request to UDI
 945:tmk_core/protocol/arm_atsam/usb/udc.c ****  *
 946:tmk_core/protocol/arm_atsam/usb/udc.c ****  * \return true if the request is supported
 947:tmk_core/protocol/arm_atsam/usb/udc.c ****  */
 948:tmk_core/protocol/arm_atsam/usb/udc.c **** static bool udc_req_iface(void) {
 949:tmk_core/protocol/arm_atsam/usb/udc.c ****     uint8_t   iface_num;
 950:tmk_core/protocol/arm_atsam/usb/udc.c ****     udi_api_t UDC_DESC_STORAGE *udi_api;
 951:tmk_core/protocol/arm_atsam/usb/udc.c **** 
 952:tmk_core/protocol/arm_atsam/usb/udc.c ****     if (0 == udc_num_configuration) {
 953:tmk_core/protocol/arm_atsam/usb/udc.c ****         return false;  // The device is not is configured state yet
 954:tmk_core/protocol/arm_atsam/usb/udc.c ****     }
 955:tmk_core/protocol/arm_atsam/usb/udc.c ****     // Check interface number
 956:tmk_core/protocol/arm_atsam/usb/udc.c ****     iface_num = udd_g_ctrlreq.req.wIndex & 0xFF;
 957:tmk_core/protocol/arm_atsam/usb/udc.c ****     if (iface_num >= udc_ptr_conf->desc->bNumInterfaces) {
 958:tmk_core/protocol/arm_atsam/usb/udc.c ****         return false;
 959:tmk_core/protocol/arm_atsam/usb/udc.c ****     }
 960:tmk_core/protocol/arm_atsam/usb/udc.c **** 
 961:tmk_core/protocol/arm_atsam/usb/udc.c ****     //* To update udc_ptr_iface with the selected interface in request
 962:tmk_core/protocol/arm_atsam/usb/udc.c ****     // Select first alternate setting of interface to update udc_ptr_iface
 963:tmk_core/protocol/arm_atsam/usb/udc.c ****     // before calling udi_api->getsetting()
 964:tmk_core/protocol/arm_atsam/usb/udc.c ****     if (!udc_update_iface_desc(iface_num, 0)) {
 965:tmk_core/protocol/arm_atsam/usb/udc.c ****         return false;
 966:tmk_core/protocol/arm_atsam/usb/udc.c ****     }
 967:tmk_core/protocol/arm_atsam/usb/udc.c ****     // Select the interface with the current alternate setting
 968:tmk_core/protocol/arm_atsam/usb/udc.c ****     udi_api = udc_ptr_conf->udi_apis[iface_num];
 969:tmk_core/protocol/arm_atsam/usb/udc.c ****     if (!udc_update_iface_desc(iface_num, udi_api->getsetting())) {
 970:tmk_core/protocol/arm_atsam/usb/udc.c ****         return false;
 971:tmk_core/protocol/arm_atsam/usb/udc.c ****     }
 972:tmk_core/protocol/arm_atsam/usb/udc.c **** 
 973:tmk_core/protocol/arm_atsam/usb/udc.c ****     // Send the SETUP request to the UDI corresponding to the interface number
 974:tmk_core/protocol/arm_atsam/usb/udc.c ****     return udi_api->setup();
 975:tmk_core/protocol/arm_atsam/usb/udc.c **** }
 976:tmk_core/protocol/arm_atsam/usb/udc.c **** 
 977:tmk_core/protocol/arm_atsam/usb/udc.c **** /**
 978:tmk_core/protocol/arm_atsam/usb/udc.c ****  * \brief Send the SETUP interface request to UDI
 979:tmk_core/protocol/arm_atsam/usb/udc.c ****  *
 980:tmk_core/protocol/arm_atsam/usb/udc.c ****  * \return true if the request is supported
 981:tmk_core/protocol/arm_atsam/usb/udc.c ****  */
 982:tmk_core/protocol/arm_atsam/usb/udc.c **** static bool udc_req_ep(void) {
 983:tmk_core/protocol/arm_atsam/usb/udc.c ****     uint8_t   iface_num;
 984:tmk_core/protocol/arm_atsam/usb/udc.c ****     udi_api_t UDC_DESC_STORAGE *udi_api;
 985:tmk_core/protocol/arm_atsam/usb/udc.c **** 
 986:tmk_core/protocol/arm_atsam/usb/udc.c ****     if (0 == udc_num_configuration) {
 987:tmk_core/protocol/arm_atsam/usb/udc.c ****         return false;  // The device is not is configured state yet
 988:tmk_core/protocol/arm_atsam/usb/udc.c ****     }
 989:tmk_core/protocol/arm_atsam/usb/udc.c ****     // Send this request on all enabled interfaces
 990:tmk_core/protocol/arm_atsam/usb/udc.c ****     iface_num = udd_g_ctrlreq.req.wIndex & 0xFF;
 991:tmk_core/protocol/arm_atsam/usb/udc.c ****     for (iface_num = 0; iface_num < udc_ptr_conf->desc->bNumInterfaces; iface_num++) {
 992:tmk_core/protocol/arm_atsam/usb/udc.c ****         // Select the interface with the current alternate setting
 993:tmk_core/protocol/arm_atsam/usb/udc.c ****         udi_api = udc_ptr_conf->udi_apis[iface_num];
 994:tmk_core/protocol/arm_atsam/usb/udc.c ****         if (!udc_update_iface_desc(iface_num, udi_api->getsetting())) {
 995:tmk_core/protocol/arm_atsam/usb/udc.c ****             return false;
 996:tmk_core/protocol/arm_atsam/usb/udc.c ****         }
 997:tmk_core/protocol/arm_atsam/usb/udc.c **** 
 998:tmk_core/protocol/arm_atsam/usb/udc.c ****         // Send the SETUP request to the UDI
 999:tmk_core/protocol/arm_atsam/usb/udc.c ****         if (udi_api->setup()) {
1000:tmk_core/protocol/arm_atsam/usb/udc.c ****             return true;
1001:tmk_core/protocol/arm_atsam/usb/udc.c ****         }
1002:tmk_core/protocol/arm_atsam/usb/udc.c ****     }
1003:tmk_core/protocol/arm_atsam/usb/udc.c ****     return false;
1004:tmk_core/protocol/arm_atsam/usb/udc.c **** }
1005:tmk_core/protocol/arm_atsam/usb/udc.c **** 
1006:tmk_core/protocol/arm_atsam/usb/udc.c **** /**
1007:tmk_core/protocol/arm_atsam/usb/udc.c ****  * \brief Main routine to manage the USB SETUP request.
1008:tmk_core/protocol/arm_atsam/usb/udc.c ****  *
1009:tmk_core/protocol/arm_atsam/usb/udc.c ****  * This function parses a USB SETUP request and submits an appropriate
1010:tmk_core/protocol/arm_atsam/usb/udc.c ****  * response back to the host or, in the case of SETUP OUT requests
1011:tmk_core/protocol/arm_atsam/usb/udc.c ****  * with data, sets up a buffer for receiving the data payload.
1012:tmk_core/protocol/arm_atsam/usb/udc.c ****  *
1013:tmk_core/protocol/arm_atsam/usb/udc.c ****  * The main standard requests defined by the USB 2.0 standard are handled
1014:tmk_core/protocol/arm_atsam/usb/udc.c ****  * internally. The interface requests are sent to UDI, and the specific request
1015:tmk_core/protocol/arm_atsam/usb/udc.c ****  * sent to a specific application callback.
1016:tmk_core/protocol/arm_atsam/usb/udc.c ****  *
1017:tmk_core/protocol/arm_atsam/usb/udc.c ****  * \return true if the request is supported, else the request is stalled by UDD
1018:tmk_core/protocol/arm_atsam/usb/udc.c ****  */
1019:tmk_core/protocol/arm_atsam/usb/udc.c **** bool udc_process_setup(void) {
 677              		.loc 1 1019 30 is_stmt 1 view -0
 678              		.cfi_startproc
 679              		@ args = 0, pretend = 0, frame = 0
 680              		@ frame_needed = 0, uses_anonymous_args = 0
1020:tmk_core/protocol/arm_atsam/usb/udc.c ****     // By default no data (receive/send) and no callbacks registered
1021:tmk_core/protocol/arm_atsam/usb/udc.c ****     udd_g_ctrlreq.payload_size   = 0;
 681              		.loc 1 1021 5 view .LVU167
1019:tmk_core/protocol/arm_atsam/usb/udc.c ****     // By default no data (receive/send) and no callbacks registered
 682              		.loc 1 1019 30 is_stmt 0 view .LVU168
 683 0000 2DE9F041 		push	{r4, r5, r6, r7, r8, lr}
 684              		.cfi_def_cfa_offset 24
 685              		.cfi_offset 4, -24
 686              		.cfi_offset 5, -20
 687              		.cfi_offset 6, -16
 688              		.cfi_offset 7, -12
 689              		.cfi_offset 8, -8
 690              		.cfi_offset 14, -4
 691              		.loc 1 1021 34 view .LVU169
 692 0004 A94C     		ldr	r4, .L181
 693 0006 0023     		movs	r3, #0
 694 0008 A381     		strh	r3, [r4, #12]	@ movhi
1022:tmk_core/protocol/arm_atsam/usb/udc.c ****     udd_g_ctrlreq.callback       = NULL;
 695              		.loc 1 1022 5 is_stmt 1 view .LVU170
1023:tmk_core/protocol/arm_atsam/usb/udc.c ****     udd_g_ctrlreq.over_under_run = NULL;
 696              		.loc 1 1023 34 is_stmt 0 view .LVU171
 697 000a C4E90433 		strd	r3, r3, [r4, #16]
1024:tmk_core/protocol/arm_atsam/usb/udc.c **** 
1025:tmk_core/protocol/arm_atsam/usb/udc.c ****     if (Udd_setup_is_in()) {
 698              		.loc 1 1025 5 is_stmt 1 view .LVU172
 699              		.loc 1 1025 9 is_stmt 0 view .LVU173
 700 000e 2378     		ldrb	r3, [r4]	@ zero_extendqisi2
 701 0010 5AB2     		sxtb	r2, r3
 702              		.loc 1 1025 8 view .LVU174
 703 0012 002A     		cmp	r2, #0
 704 0014 05DA     		bge	.L79
1026:tmk_core/protocol/arm_atsam/usb/udc.c ****         if (udd_g_ctrlreq.req.wLength == 0) {
 705              		.loc 1 1026 9 is_stmt 1 view .LVU175
 706              		.loc 1 1026 12 is_stmt 0 view .LVU176
 707 0016 E188     		ldrh	r1, [r4, #6]
 708 0018 19B9     		cbnz	r1, .L79
 709              	.L123:
1027:tmk_core/protocol/arm_atsam/usb/udc.c ****             return false;  // Error from USB host
 710              		.loc 1 1027 20 view .LVU177
 711 001a 0025     		movs	r5, #0
 712              	.L80:
1028:tmk_core/protocol/arm_atsam/usb/udc.c ****         }
1029:tmk_core/protocol/arm_atsam/usb/udc.c ****     }
1030:tmk_core/protocol/arm_atsam/usb/udc.c **** 
1031:tmk_core/protocol/arm_atsam/usb/udc.c ****     // If standard request then try to decode it in UDC
1032:tmk_core/protocol/arm_atsam/usb/udc.c ****     if (Udd_setup_type() == USB_REQ_TYPE_STANDARD) {
1033:tmk_core/protocol/arm_atsam/usb/udc.c ****         if (udc_reqstd()) {
1034:tmk_core/protocol/arm_atsam/usb/udc.c ****             return true;
1035:tmk_core/protocol/arm_atsam/usb/udc.c ****         }
1036:tmk_core/protocol/arm_atsam/usb/udc.c ****     }
1037:tmk_core/protocol/arm_atsam/usb/udc.c **** 
1038:tmk_core/protocol/arm_atsam/usb/udc.c ****     // If interface request then try to decode it in UDI
1039:tmk_core/protocol/arm_atsam/usb/udc.c ****     if (Udd_setup_recipient() == USB_REQ_RECIP_INTERFACE) {
1040:tmk_core/protocol/arm_atsam/usb/udc.c ****         if (udc_req_iface()) {
1041:tmk_core/protocol/arm_atsam/usb/udc.c ****             return true;
1042:tmk_core/protocol/arm_atsam/usb/udc.c ****         }
1043:tmk_core/protocol/arm_atsam/usb/udc.c ****     }
1044:tmk_core/protocol/arm_atsam/usb/udc.c **** 
1045:tmk_core/protocol/arm_atsam/usb/udc.c ****     // If endpoint request then try to decode it in UDI
1046:tmk_core/protocol/arm_atsam/usb/udc.c ****     if (Udd_setup_recipient() == USB_REQ_RECIP_ENDPOINT) {
1047:tmk_core/protocol/arm_atsam/usb/udc.c ****         if (udc_req_ep()) {
1048:tmk_core/protocol/arm_atsam/usb/udc.c ****             return true;
1049:tmk_core/protocol/arm_atsam/usb/udc.c ****         }
1050:tmk_core/protocol/arm_atsam/usb/udc.c ****     }
1051:tmk_core/protocol/arm_atsam/usb/udc.c **** 
1052:tmk_core/protocol/arm_atsam/usb/udc.c ****     // Here SETUP request unknown by UDC and UDIs
1053:tmk_core/protocol/arm_atsam/usb/udc.c **** #ifdef USB_DEVICE_SPECIFIC_REQUEST
1054:tmk_core/protocol/arm_atsam/usb/udc.c ****     // Try to decode it in specific callback
1055:tmk_core/protocol/arm_atsam/usb/udc.c ****     return USB_DEVICE_SPECIFIC_REQUEST();  // Ex: Vendor request,...
1056:tmk_core/protocol/arm_atsam/usb/udc.c **** #else
1057:tmk_core/protocol/arm_atsam/usb/udc.c ****     return false;
1058:tmk_core/protocol/arm_atsam/usb/udc.c **** #endif
1059:tmk_core/protocol/arm_atsam/usb/udc.c **** }
 713              		.loc 1 1059 1 view .LVU178
 714 001c 2846     		mov	r0, r5
 715 001e BDE8F081 		pop	{r4, r5, r6, r7, r8, pc}
 716              	.L79:
1032:tmk_core/protocol/arm_atsam/usb/udc.c ****         if (udc_reqstd()) {
 717              		.loc 1 1032 5 is_stmt 1 view .LVU179
1032:tmk_core/protocol/arm_atsam/usb/udc.c ****         if (udc_reqstd()) {
 718              		.loc 1 1032 8 is_stmt 0 view .LVU180
 719 0022 13F06001 		ands	r1, r3, #96
 720 0026 1ED1     		bne	.L82
 721              	.LBB48:
 722              	.LBB49:
 856:tmk_core/protocol/arm_atsam/usb/udc.c ****         // GET Standard Requests
 723              		.loc 1 856 8 view .LVU181
 724 0028 002A     		cmp	r2, #0
 725 002a 03F01F03 		and	r3, r3, #31
 726              	.LBE49:
 727              	.LBE48:
1033:tmk_core/protocol/arm_atsam/usb/udc.c ****             return true;
 728              		.loc 1 1033 9 is_stmt 1 view .LVU182
 729              	.LBB100:
 730              	.LBI48:
 855:tmk_core/protocol/arm_atsam/usb/udc.c ****     if (Udd_setup_is_in()) {
 731              		.loc 1 855 13 view .LVU183
 732              	.LBB96:
 856:tmk_core/protocol/arm_atsam/usb/udc.c ****         // GET Standard Requests
 733              		.loc 1 856 5 view .LVU184
 856:tmk_core/protocol/arm_atsam/usb/udc.c ****         // GET Standard Requests
 734              		.loc 1 856 8 is_stmt 0 view .LVU185
 735 002e 80F2F880 		bge	.L83
 858:tmk_core/protocol/arm_atsam/usb/udc.c ****             return false;  // Error for USB host
 736              		.loc 1 858 9 is_stmt 1 view .LVU186
 858:tmk_core/protocol/arm_atsam/usb/udc.c ****             return false;  // Error for USB host
 737              		.loc 1 858 30 is_stmt 0 view .LVU187
 738 0032 E588     		ldrh	r5, [r4, #6]
 858:tmk_core/protocol/arm_atsam/usb/udc.c ****             return false;  // Error for USB host
 739              		.loc 1 858 12 view .LVU188
 740 0034 BDB1     		cbz	r5, .L82
 862:tmk_core/protocol/arm_atsam/usb/udc.c ****             // Standard Get Device request
 741              		.loc 1 862 9 is_stmt 1 view .LVU189
 862:tmk_core/protocol/arm_atsam/usb/udc.c ****             // Standard Get Device request
 742              		.loc 1 862 12 is_stmt 0 view .LVU190
 743 0036 002B     		cmp	r3, #0
 744 0038 40F0B680 		bne	.L85
 864:tmk_core/protocol/arm_atsam/usb/udc.c ****                 case USB_REQ_GET_STATUS:
 745              		.loc 1 864 13 is_stmt 1 view .LVU191
 864:tmk_core/protocol/arm_atsam/usb/udc.c ****                 case USB_REQ_GET_STATUS:
 746              		.loc 1 864 38 is_stmt 0 view .LVU192
 747 003c 6378     		ldrb	r3, [r4, #1]	@ zero_extendqisi2
 864:tmk_core/protocol/arm_atsam/usb/udc.c ****                 case USB_REQ_GET_STATUS:
 748              		.loc 1 864 13 view .LVU193
 749 003e 062B     		cmp	r3, #6
 750 0040 0AD0     		beq	.L86
 751 0042 082B     		cmp	r3, #8
 752 0044 00F0A880 		beq	.L87
 753 0048 6BB9     		cbnz	r3, .L82
 866:tmk_core/protocol/arm_atsam/usb/udc.c ****                 case USB_REQ_GET_DESCRIPTOR:
 754              		.loc 1 866 21 is_stmt 1 view .LVU194
 755              	.LBB50:
 756              	.LBI50:
 396:tmk_core/protocol/arm_atsam/usb/udc.c ****     if (udd_g_ctrlreq.req.wLength != sizeof(udc_device_status)) {
 757              		.loc 1 396 13 view .LVU195
 758              	.LBB51:
 397:tmk_core/protocol/arm_atsam/usb/udc.c ****         return false;
 759              		.loc 1 397 5 view .LVU196
 397:tmk_core/protocol/arm_atsam/usb/udc.c ****         return false;
 760              		.loc 1 397 8 is_stmt 0 view .LVU197
 761 004a 022D     		cmp	r5, #2
 762 004c 0BD1     		bne	.L82
 401:tmk_core/protocol/arm_atsam/usb/udc.c ****     return true;
 763              		.loc 1 401 5 is_stmt 1 view .LVU198
 764 004e 9848     		ldr	r0, .L181+4
 765 0050 2946     		mov	r1, r5
 766              	.L180:
 767              	.LBE51:
 768              	.LBE50:
 769              	.LBB52:
 770              	.LBB53:
 420:tmk_core/protocol/arm_atsam/usb/udc.c ****     return true;
 771              		.loc 1 420 5 is_stmt 0 view .LVU199
 772 0052 FFF7FEFF 		bl	udd_set_setup_payload
 773              	.LVL47:
 421:tmk_core/protocol/arm_atsam/usb/udc.c **** }
 774              		.loc 1 421 5 is_stmt 1 view .LVU200
 775 0056 50E0     		b	.L178
 776              	.L86:
 777              	.LBE53:
 778              	.LBE52:
 868:tmk_core/protocol/arm_atsam/usb/udc.c ****                 case USB_REQ_GET_CONFIGURATION:
 779              		.loc 1 868 21 view .LVU201
 780              	.LBB55:
 781              	.LBI55:
 620:tmk_core/protocol/arm_atsam/usb/udc.c ****     uint8_t conf_num;
 782              		.loc 1 620 13 view .LVU202
 783              	.LBB56:
 621:tmk_core/protocol/arm_atsam/usb/udc.c **** 
 784              		.loc 1 621 5 view .LVU203
 623:tmk_core/protocol/arm_atsam/usb/udc.c **** 
 785              		.loc 1 623 5 view .LVU204
 623:tmk_core/protocol/arm_atsam/usb/udc.c **** 
 786              		.loc 1 623 33 is_stmt 0 view .LVU205
 787 0058 6388     		ldrh	r3, [r4, #2]
 788              	.LVL48:
 626:tmk_core/protocol/arm_atsam/usb/udc.c ****         case USB_DT_DEVICE:
 789              		.loc 1 626 5 is_stmt 1 view .LVU206
 626:tmk_core/protocol/arm_atsam/usb/udc.c ****         case USB_DT_DEVICE:
 790              		.loc 1 626 13 is_stmt 0 view .LVU207
 791 005a 1D0A     		lsrs	r5, r3, #8
 626:tmk_core/protocol/arm_atsam/usb/udc.c ****         case USB_DT_DEVICE:
 792              		.loc 1 626 5 view .LVU208
 793 005c 022D     		cmp	r5, #2
 794 005e 39D0     		beq	.L88
 795 0060 28D8     		bhi	.L89
 796 0062 012D     		cmp	r5, #1
 797 0064 30D0     		beq	.L90
 798              	.LVL49:
 799              	.L82:
 626:tmk_core/protocol/arm_atsam/usb/udc.c ****         case USB_DT_DEVICE:
 800              		.loc 1 626 5 view .LVU209
 801              	.LBE56:
 802              	.LBE55:
 803              	.LBE96:
 804              	.LBE100:
1039:tmk_core/protocol/arm_atsam/usb/udc.c ****         if (udc_req_iface()) {
 805              		.loc 1 1039 5 is_stmt 1 view .LVU210
1039:tmk_core/protocol/arm_atsam/usb/udc.c ****         if (udc_req_iface()) {
 806              		.loc 1 1039 8 is_stmt 0 view .LVU211
 807 0066 2378     		ldrb	r3, [r4]	@ zero_extendqisi2
 808 0068 03F01F03 		and	r3, r3, #31
 809 006c 012B     		cmp	r3, #1
 810 006e 00F09F81 		beq	.L121
 811              	.L124:
1046:tmk_core/protocol/arm_atsam/usb/udc.c ****         if (udc_req_ep()) {
 812              		.loc 1 1046 5 is_stmt 1 view .LVU212
1046:tmk_core/protocol/arm_atsam/usb/udc.c ****         if (udc_req_ep()) {
 813              		.loc 1 1046 8 is_stmt 0 view .LVU213
 814 0072 2378     		ldrb	r3, [r4]	@ zero_extendqisi2
 815 0074 03F01F03 		and	r3, r3, #31
 816 0078 022B     		cmp	r3, #2
 817 007a CED1     		bne	.L123
1047:tmk_core/protocol/arm_atsam/usb/udc.c ****             return true;
 818              		.loc 1 1047 9 is_stmt 1 view .LVU214
 819              	.LBB101:
 820              	.LBI101:
 982:tmk_core/protocol/arm_atsam/usb/udc.c ****     uint8_t   iface_num;
 821              		.loc 1 982 13 view .LVU215
 822              	.LBB102:
 983:tmk_core/protocol/arm_atsam/usb/udc.c ****     udi_api_t UDC_DESC_STORAGE *udi_api;
 823              		.loc 1 983 5 view .LVU216
 984:tmk_core/protocol/arm_atsam/usb/udc.c **** 
 824              		.loc 1 984 5 view .LVU217
 986:tmk_core/protocol/arm_atsam/usb/udc.c ****         return false;  // The device is not is configured state yet
 825              		.loc 1 986 5 view .LVU218
 986:tmk_core/protocol/arm_atsam/usb/udc.c ****         return false;  // The device is not is configured state yet
 826              		.loc 1 986 11 is_stmt 0 view .LVU219
 827 007c 8D4F     		ldr	r7, .L181+8
 986:tmk_core/protocol/arm_atsam/usb/udc.c ****         return false;  // The device is not is configured state yet
 828              		.loc 1 986 8 view .LVU220
 829 007e 3A78     		ldrb	r2, [r7]	@ zero_extendqisi2
 830 0080 002A     		cmp	r2, #0
 831 0082 CAD0     		beq	.L123
 832 0084 0025     		movs	r5, #0
 833              	.L125:
 991:tmk_core/protocol/arm_atsam/usb/udc.c ****         // Select the interface with the current alternate setting
 834              		.loc 1 991 49 view .LVU221
 835 0086 7B68     		ldr	r3, [r7, #4]
 991:tmk_core/protocol/arm_atsam/usb/udc.c ****         // Select the interface with the current alternate setting
 836              		.loc 1 991 55 view .LVU222
 837 0088 1A68     		ldr	r2, [r3]
 991:tmk_core/protocol/arm_atsam/usb/udc.c ****         // Select the interface with the current alternate setting
 838              		.loc 1 991 5 view .LVU223
 839 008a 1279     		ldrb	r2, [r2, #4]	@ zero_extendqisi2
 840 008c ECB2     		uxtb	r4, r5
 841              	.LVL50:
 991:tmk_core/protocol/arm_atsam/usb/udc.c ****         // Select the interface with the current alternate setting
 842              		.loc 1 991 5 view .LVU224
 843 008e A242     		cmp	r2, r4
 844 0090 C3D9     		bls	.L123
 993:tmk_core/protocol/arm_atsam/usb/udc.c ****         if (!udc_update_iface_desc(iface_num, udi_api->getsetting())) {
 845              		.loc 1 993 9 is_stmt 1 view .LVU225
 993:tmk_core/protocol/arm_atsam/usb/udc.c ****         if (!udc_update_iface_desc(iface_num, udi_api->getsetting())) {
 846              		.loc 1 993 17 is_stmt 0 view .LVU226
 847 0092 5B68     		ldr	r3, [r3, #4]
 848 0094 53F82460 		ldr	r6, [r3, r4, lsl #2]
 849              	.LVL51:
 994:tmk_core/protocol/arm_atsam/usb/udc.c ****             return false;
 850              		.loc 1 994 9 is_stmt 1 view .LVU227
 994:tmk_core/protocol/arm_atsam/usb/udc.c ****             return false;
 851              		.loc 1 994 14 is_stmt 0 view .LVU228
 852 0098 F368     		ldr	r3, [r6, #12]
 853 009a 9847     		blx	r3
 854              	.LVL52:
 855 009c 0146     		mov	r1, r0
 856 009e 2046     		mov	r0, r4
 857 00a0 FFF7FEFF 		bl	udc_update_iface_desc
 858              	.LVL53:
 994:tmk_core/protocol/arm_atsam/usb/udc.c ****             return false;
 859              		.loc 1 994 12 view .LVU229
 860 00a4 0028     		cmp	r0, #0
 861 00a6 B8D0     		beq	.L123
 999:tmk_core/protocol/arm_atsam/usb/udc.c ****             return true;
 862              		.loc 1 999 9 is_stmt 1 view .LVU230
 999:tmk_core/protocol/arm_atsam/usb/udc.c ****             return true;
 863              		.loc 1 999 13 is_stmt 0 view .LVU231
 864 00a8 B368     		ldr	r3, [r6, #8]
 865 00aa 9847     		blx	r3
 866              	.LVL54:
 867 00ac 0135     		adds	r5, r5, #1
 999:tmk_core/protocol/arm_atsam/usb/udc.c ****             return true;
 868              		.loc 1 999 12 view .LVU232
 869 00ae 0028     		cmp	r0, #0
 870 00b0 E9D0     		beq	.L125
 871 00b2 22E0     		b	.L178
 872              	.LVL55:
 873              	.L89:
 999:tmk_core/protocol/arm_atsam/usb/udc.c ****             return true;
 874              		.loc 1 999 12 view .LVU233
 875              	.LBE102:
 876              	.LBE101:
 877              	.LBB103:
 878              	.LBB97:
 879              	.LBB71:
 880              	.LBB69:
 626:tmk_core/protocol/arm_atsam/usb/udc.c ****         case USB_DT_DEVICE:
 881              		.loc 1 626 5 view .LVU234
 882 00b4 032D     		cmp	r5, #3
 883 00b6 22D0     		beq	.L91
 884 00b8 0F2D     		cmp	r5, #15
 885 00ba D4D1     		bne	.L82
 687:tmk_core/protocol/arm_atsam/usb/udc.c ****                 return false;
 886              		.loc 1 687 13 is_stmt 1 view .LVU235
 687:tmk_core/protocol/arm_atsam/usb/udc.c ****                 return false;
 887              		.loc 1 687 27 is_stmt 0 view .LVU236
 888 00bc 7E4B     		ldr	r3, .L181+12
 889              	.LVL56:
 687:tmk_core/protocol/arm_atsam/usb/udc.c ****                 return false;
 890              		.loc 1 687 27 view .LVU237
 891 00be 9868     		ldr	r0, [r3, #8]
 687:tmk_core/protocol/arm_atsam/usb/udc.c ****                 return false;
 892              		.loc 1 687 16 view .LVU238
 893 00c0 0028     		cmp	r0, #0
 894 00c2 D0D0     		beq	.L82
 690:tmk_core/protocol/arm_atsam/usb/udc.c ****             break;
 895              		.loc 1 690 13 is_stmt 1 view .LVU239
 896 00c4 4188     		ldrh	r1, [r0, #2]	@ unaligned
 897 00c6 02E0     		b	.L177
 898              	.LVL57:
 899              	.L90:
 635:tmk_core/protocol/arm_atsam/usb/udc.c ****             }
 900              		.loc 1 635 17 view .LVU240
 635:tmk_core/protocol/arm_atsam/usb/udc.c ****             }
 901              		.loc 1 635 60 is_stmt 0 view .LVU241
 902 00c8 7B4B     		ldr	r3, .L181+12
 903              	.LVL58:
 635:tmk_core/protocol/arm_atsam/usb/udc.c ****             }
 904              		.loc 1 635 60 view .LVU242
 905 00ca 1868     		ldr	r0, [r3]
 635:tmk_core/protocol/arm_atsam/usb/udc.c ****             }
 906              		.loc 1 635 17 view .LVU243
 907 00cc 0178     		ldrb	r1, [r0]	@ zero_extendqisi2
 908              	.L177:
 909              	.LBB57:
 910              	.LBB58:
 609:tmk_core/protocol/arm_atsam/usb/udc.c ****     }
 911              		.loc 1 609 9 is_stmt 1 view .LVU244
 912 00ce FFF7FEFF 		bl	udd_set_setup_payload
 913              	.LVL59:
 609:tmk_core/protocol/arm_atsam/usb/udc.c ****     }
 914              		.loc 1 609 9 is_stmt 0 view .LVU245
 915 00d2 0DE0     		b	.L93
 916              	.LVL60:
 917              	.L88:
 609:tmk_core/protocol/arm_atsam/usb/udc.c ****     }
 918              		.loc 1 609 9 view .LVU246
 919              	.LBE58:
 920              	.LBE57:
 652:tmk_core/protocol/arm_atsam/usb/udc.c ****                     return false;
 921              		.loc 1 652 43 view .LVU247
 922 00d4 784A     		ldr	r2, .L181+12
 652:tmk_core/protocol/arm_atsam/usb/udc.c ****                     return false;
 923              		.loc 1 652 56 view .LVU248
 924 00d6 1168     		ldr	r1, [r2]
 652:tmk_core/protocol/arm_atsam/usb/udc.c ****                     return false;
 925              		.loc 1 652 20 view .LVU249
 926 00d8 497C     		ldrb	r1, [r1, #17]	@ zero_extendqisi2
 623:tmk_core/protocol/arm_atsam/usb/udc.c **** 
 927              		.loc 1 623 14 view .LVU250
 928 00da DBB2     		uxtb	r3, r3
 652:tmk_core/protocol/arm_atsam/usb/udc.c ****                     return false;
 929              		.loc 1 652 17 is_stmt 1 view .LVU251
 652:tmk_core/protocol/arm_atsam/usb/udc.c ****                     return false;
 930              		.loc 1 652 20 is_stmt 0 view .LVU252
 931 00dc 9942     		cmp	r1, r3
 932 00de C2D9     		bls	.L82
 655:tmk_core/protocol/arm_atsam/usb/udc.c ****             }
 933              		.loc 1 655 17 is_stmt 1 view .LVU253
 655:tmk_core/protocol/arm_atsam/usb/udc.c ****             }
 934              		.loc 1 655 80 is_stmt 0 view .LVU254
 935 00e0 5268     		ldr	r2, [r2, #4]
 936 00e2 52F83300 		ldr	r0, [r2, r3, lsl #3]
 655:tmk_core/protocol/arm_atsam/usb/udc.c ****             }
 937              		.loc 1 655 17 view .LVU255
 938 00e6 4188     		ldrh	r1, [r0, #2]	@ unaligned
 939 00e8 FFF7FEFF 		bl	udd_set_setup_payload
 940              	.LVL61:
 657:tmk_core/protocol/arm_atsam/usb/udc.c ****             break;
 941              		.loc 1 657 13 is_stmt 1 view .LVU256
 657:tmk_core/protocol/arm_atsam/usb/udc.c ****             break;
 942              		.loc 1 657 46 is_stmt 0 view .LVU257
 943 00ec A368     		ldr	r3, [r4, #8]
 657:tmk_core/protocol/arm_atsam/usb/udc.c ****             break;
 944              		.loc 1 657 73 view .LVU258
 945 00ee 5D70     		strb	r5, [r3, #1]
 658:tmk_core/protocol/arm_atsam/usb/udc.c **** 
 946              		.loc 1 658 13 is_stmt 1 view .LVU259
 947              	.L93:
 705:tmk_core/protocol/arm_atsam/usb/udc.c ****         udd_g_ctrlreq.payload_size = udd_g_ctrlreq.req.wLength;
 948              		.loc 1 705 5 view .LVU260
 705:tmk_core/protocol/arm_atsam/usb/udc.c ****         udd_g_ctrlreq.payload_size = udd_g_ctrlreq.req.wLength;
 949              		.loc 1 705 26 is_stmt 0 view .LVU261
 950 00f0 E388     		ldrh	r3, [r4, #6]
 705:tmk_core/protocol/arm_atsam/usb/udc.c ****         udd_g_ctrlreq.payload_size = udd_g_ctrlreq.req.wLength;
 951              		.loc 1 705 8 view .LVU262
 952 00f2 A289     		ldrh	r2, [r4, #12]
 953 00f4 9A42     		cmp	r2, r3
 706:tmk_core/protocol/arm_atsam/usb/udc.c ****     }
 954              		.loc 1 706 9 is_stmt 1 view .LVU263
 706:tmk_core/protocol/arm_atsam/usb/udc.c ****     }
 955              		.loc 1 706 36 is_stmt 0 view .LVU264
 956 00f6 88BF     		it	hi
 957 00f8 A381     		strhhi	r3, [r4, #12]	@ movhi
 958              	.L178:
 706:tmk_core/protocol/arm_atsam/usb/udc.c ****     }
 959              		.loc 1 706 36 view .LVU265
 960              	.LBE69:
 961              	.LBE71:
 962              	.LBB72:
 963              	.LBB73:
 559:tmk_core/protocol/arm_atsam/usb/udc.c **** }
 964              		.loc 1 559 5 is_stmt 1 view .LVU266
 965              	.LBE73:
 966              	.LBE72:
 967              	.LBE97:
 968              	.LBE103:
1034:tmk_core/protocol/arm_atsam/usb/udc.c ****         }
 969              		.loc 1 1034 20 is_stmt 0 view .LVU267
 970 00fa 0125     		movs	r5, #1
 971 00fc 8EE7     		b	.L80
 972              	.LVL62:
 973              	.L91:
 974              	.LBB104:
 975              	.LBB98:
 976              	.LBB75:
 977              	.LBB70:
 695:tmk_core/protocol/arm_atsam/usb/udc.c ****                 return false;
 978              		.loc 1 695 13 is_stmt 1 view .LVU268
 979              	.LBB68:
 980              	.LBI57:
 567:tmk_core/protocol/arm_atsam/usb/udc.c ****     uint8_t        i;
 981              		.loc 1 567 13 view .LVU269
 982              	.LBB67:
 568:tmk_core/protocol/arm_atsam/usb/udc.c ****     const uint8_t *str;
 983              		.loc 1 568 5 view .LVU270
 569:tmk_core/protocol/arm_atsam/usb/udc.c ****     uint8_t        str_length = 0;
 984              		.loc 1 569 5 view .LVU271
 570:tmk_core/protocol/arm_atsam/usb/udc.c **** 
 985              		.loc 1 570 5 view .LVU272
 573:tmk_core/protocol/arm_atsam/usb/udc.c ****         case 0:
 986              		.loc 1 573 5 view .LVU273
 987 00fe DBB2     		uxtb	r3, r3
 573:tmk_core/protocol/arm_atsam/usb/udc.c ****         case 0:
 988              		.loc 1 573 5 is_stmt 0 view .LVU274
 989 0100 032B     		cmp	r3, #3
 990 0102 B0D8     		bhi	.L82
 991 0104 DFE803F0 		tbb	[pc, r3]
 992              	.L95:
 993 0108 15       		.byte	(.L98-.L95)/2
 994 0109 02       		.byte	(.L97-.L95)/2
 995 010a 45       		.byte	(.L127-.L95)/2
 996 010b 18       		.byte	(.L94-.L95)/2
 997              		.p2align 1
 998              	.L97:
 581:tmk_core/protocol/arm_atsam/usb/udc.c ****             break;
 999              		.loc 1 581 24 view .LVU275
 1000 010c 6B4B     		ldr	r3, .L181+16
 1001              	.LVL63:
 580:tmk_core/protocol/arm_atsam/usb/udc.c ****             str        = udc_string_manufacturer_name;
 1002              		.loc 1 580 24 view .LVU276
 1003 010e 0D21     		movs	r1, #13
 1004              	.LVL64:
 1005              	.L96:
 580:tmk_core/protocol/arm_atsam/usb/udc.c ****             str        = udc_string_manufacturer_name;
 1006              		.loc 1 580 24 view .LVU277
 1007 0110 6B4D     		ldr	r5, .L181+20
 1008              	.LBB59:
 1009              	.LBB60:
 157:tmk_core/protocol/arm_atsam/usb/udc.c **** #else
 1010              		.loc 1 157 12 view .LVU278
 1011 0112 0022     		movs	r2, #0
 1012 0114 2846     		mov	r0, r5
 1013              	.LVL65:
 1014              	.L104:
 157:tmk_core/protocol/arm_atsam/usb/udc.c **** #else
 1015              		.loc 1 157 12 view .LVU279
 1016              	.LBE60:
 1017              	.LBE59:
 605:tmk_core/protocol/arm_atsam/usb/udc.c ****         }
 1018              		.loc 1 605 13 is_stmt 1 view .LVU280
 605:tmk_core/protocol/arm_atsam/usb/udc.c ****         }
 1019              		.loc 1 605 41 is_stmt 0 view .LVU281
 1020 0116 9E5C     		ldrb	r6, [r3, r2]	@ zero_extendqisi2
 1021 0118 25F8026F 		strh	r6, [r5, #2]!	@ movhi
 1022              	.LVL66:
 605:tmk_core/protocol/arm_atsam/usb/udc.c ****         }
 1023              		.loc 1 605 41 view .LVU282
 1024 011c 0132     		adds	r2, r2, #1
 1025              	.LVL67:
 604:tmk_core/protocol/arm_atsam/usb/udc.c ****             udc_string_desc.string[i] = cpu_to_le16((le16_t)str[i]);
 1026              		.loc 1 604 9 view .LVU283
 1027 011e D6B2     		uxtb	r6, r2
 1028 0120 B142     		cmp	r1, r6
 1029 0122 F8D8     		bhi	.L104
 608:tmk_core/protocol/arm_atsam/usb/udc.c ****         udd_set_setup_payload((uint8_t *)&udc_string_desc, udc_string_desc.header.bLength);
 1030              		.loc 1 608 9 is_stmt 1 view .LVU284
 608:tmk_core/protocol/arm_atsam/usb/udc.c ****         udd_set_setup_payload((uint8_t *)&udc_string_desc, udc_string_desc.header.bLength);
 1031              		.loc 1 608 40 is_stmt 0 view .LVU285
 1032 0124 0131     		adds	r1, r1, #1
 1033 0126 4900     		lsls	r1, r1, #1
 1034 0128 664B     		ldr	r3, .L181+24
 1035 012a C9B2     		uxtb	r1, r1
 1036 012c 83F82010 		strb	r1, [r3, #32]
 1037 0130 CDE7     		b	.L177
 1038              	.LVL68:
 1039              	.L98:
 575:tmk_core/protocol/arm_atsam/usb/udc.c ****             break;
 1040              		.loc 1 575 13 is_stmt 1 view .LVU286
 1041 0132 0421     		movs	r1, #4
 1042 0134 6448     		ldr	r0, .L181+28
 1043 0136 CAE7     		b	.L177
 1044              	.L94:
 591:tmk_core/protocol/arm_atsam/usb/udc.c ****             str_length = usb_device_serial_name_size;
 1045              		.loc 1 591 13 view .LVU287
 1046              	.LBB65:
 1047              	.LBI59:
 129:tmk_core/protocol/arm_atsam/usb/udc.c **** #if defined           USB_DEVICE_SERIAL_USE_BOOTLOADER_SERIAL
 1048              		.loc 1 129 23 view .LVU288
 1049              	.LBB63:
 131:tmk_core/protocol/arm_atsam/usb/udc.c ****     uint32_t serial_address = *(uint32_t *)serial_ptrloc;  // Address of bootloader's serial number
 1050              		.loc 1 131 5 view .LVU289
 131:tmk_core/protocol/arm_atsam/usb/udc.c ****     uint32_t serial_address = *(uint32_t *)serial_ptrloc;  // Address of bootloader's serial number
 1051              		.loc 1 131 14 is_stmt 0 view .LVU290
 1052 0138 644B     		ldr	r3, .L181+32
 132:tmk_core/protocol/arm_atsam/usb/udc.c **** 
 1053              		.loc 1 132 14 view .LVU291
 1054 013a 53F8042C 		ldr	r2, [r3, #-4]
 131:tmk_core/protocol/arm_atsam/usb/udc.c ****     uint32_t serial_address = *(uint32_t *)serial_ptrloc;  // Address of bootloader's serial number
 1055              		.loc 1 131 14 view .LVU292
 1056 013e 191F     		subs	r1, r3, #4
 1057              	.LVL69:
 132:tmk_core/protocol/arm_atsam/usb/udc.c **** 
 1058              		.loc 1 132 5 is_stmt 1 view .LVU293
 134:tmk_core/protocol/arm_atsam/usb/udc.c ****     {
 1059              		.loc 1 134 5 view .LVU294
 134:tmk_core/protocol/arm_atsam/usb/udc.c ****     {
 1060              		.loc 1 134 8 is_stmt 0 view .LVU295
 1061 0140 531C     		adds	r3, r2, #1
 1062 0142 20D0     		beq	.L99
 134:tmk_core/protocol/arm_atsam/usb/udc.c ****     {
 1063              		.loc 1 134 38 view .LVU296
 1064 0144 9142     		cmp	r1, r2
 1065 0146 1ED9     		bls	.L99
 136:tmk_core/protocol/arm_atsam/usb/udc.c ****         {
 1066              		.loc 1 136 9 is_stmt 1 view .LVU297
 136:tmk_core/protocol/arm_atsam/usb/udc.c ****         {
 1067              		.loc 1 136 12 is_stmt 0 view .LVU298
 1068 0148 12F00303 		ands	r3, r2, #3
 1069 014c 1BD1     		bne	.L99
 1070              	.LBB61:
 138:tmk_core/protocol/arm_atsam/usb/udc.c ****             uint8_t   serial_length = 0;
 1071              		.loc 1 138 13 is_stmt 1 view .LVU299
 1072              	.LVL70:
 139:tmk_core/protocol/arm_atsam/usb/udc.c **** 
 1073              		.loc 1 139 13 view .LVU300
 141:tmk_core/protocol/arm_atsam/usb/udc.c ****                 bootloader_serial_number[serial_length] = *(serial_use + serial_length) & 0xFF;
 1074              		.loc 1 141 13 view .LVU301
 1075 014e 6048     		ldr	r0, .L181+36
 1076              	.LVL71:
 1077              	.L100:
 141:tmk_core/protocol/arm_atsam/usb/udc.c ****                 bootloader_serial_number[serial_length] = *(serial_use + serial_length) & 0xFF;
 1078              		.loc 1 141 21 is_stmt 0 view .LVU302
 1079 0150 32F81350 		ldrh	r5, [r2, r3, lsl #1]
 141:tmk_core/protocol/arm_atsam/usb/udc.c ****                 bootloader_serial_number[serial_length] = *(serial_use + serial_length) & 0xFF;
 1080              		.loc 1 141 19 view .LVU303
 1081 0154 A5F12106 		sub	r6, r5, #33
 1082 0158 5D2E     		cmp	r6, #93
 1083 015a D9B2     		uxtb	r1, r3
 1084              	.LVL72:
 141:tmk_core/protocol/arm_atsam/usb/udc.c ****                 bootloader_serial_number[serial_length] = *(serial_use + serial_length) & 0xFF;
 1085              		.loc 1 141 19 view .LVU304
 1086 015c 03D8     		bhi	.L101
 1087 015e 0133     		adds	r3, r3, #1
 141:tmk_core/protocol/arm_atsam/usb/udc.c ****                 bootloader_serial_number[serial_length] = *(serial_use + serial_length) & 0xFF;
 1088              		.loc 1 141 96 view .LVU305
 1089 0160 152B     		cmp	r3, #21
 1090 0162 0DD1     		bne	.L102
 1091 0164 1421     		movs	r1, #20
 1092              	.LVL73:
 1093              	.L101:
 145:tmk_core/protocol/arm_atsam/usb/udc.c **** 
 1094              		.loc 1 145 13 is_stmt 1 view .LVU306
 145:tmk_core/protocol/arm_atsam/usb/udc.c **** 
 1095              		.loc 1 145 53 is_stmt 0 view .LVU307
 1096 0166 534B     		ldr	r3, .L181+8
 1097 0168 5A18     		adds	r2, r3, r1
 1098              	.LVL74:
 145:tmk_core/protocol/arm_atsam/usb/udc.c **** 
 1099              		.loc 1 145 53 view .LVU308
 1100 016a 0020     		movs	r0, #0
 147:tmk_core/protocol/arm_atsam/usb/udc.c **** 
 1101              		.loc 1 147 41 view .LVU309
 1102 016c 83F82310 		strb	r1, [r3, #35]
 145:tmk_core/protocol/arm_atsam/usb/udc.c **** 
 1103              		.loc 1 145 53 view .LVU310
 1104 0170 9073     		strb	r0, [r2, #14]
 147:tmk_core/protocol/arm_atsam/usb/udc.c **** 
 1105              		.loc 1 147 13 is_stmt 1 view .LVU311
 149:tmk_core/protocol/arm_atsam/usb/udc.c ****         }
 1106              		.loc 1 149 13 view .LVU312
 149:tmk_core/protocol/arm_atsam/usb/udc.c ****         }
 1107              		.loc 1 149 20 is_stmt 0 view .LVU313
 1108 0172 0E33     		adds	r3, r3, #14
 1109              	.L103:
 1110              	.LVL75:
 149:tmk_core/protocol/arm_atsam/usb/udc.c ****         }
 1111              		.loc 1 149 20 view .LVU314
 1112              	.LBE61:
 1113              	.LBE63:
 1114              	.LBE65:
 592:tmk_core/protocol/arm_atsam/usb/udc.c ****             break;
 1115              		.loc 1 592 13 is_stmt 1 view .LVU315
 592:tmk_core/protocol/arm_atsam/usb/udc.c ****             break;
 1116              		.loc 1 592 24 is_stmt 0 view .LVU316
 1117 0174 4F4A     		ldr	r2, .L181+8
 1118 0176 92F82310 		ldrb	r1, [r2, #35]	@ zero_extendqisi2
 1119              	.LVL76:
 593:tmk_core/protocol/arm_atsam/usb/udc.c ****         default:
 1120              		.loc 1 593 13 is_stmt 1 view .LVU317
 603:tmk_core/protocol/arm_atsam/usb/udc.c ****         for (i = 0; i < str_length; i++) {
 1121              		.loc 1 603 5 view .LVU318
 603:tmk_core/protocol/arm_atsam/usb/udc.c ****         for (i = 0; i < str_length; i++) {
 1122              		.loc 1 603 8 is_stmt 0 view .LVU319
 1123 017a 0029     		cmp	r1, #0
 1124 017c C8D1     		bne	.L96
 1125 017e B7E7     		b	.L93
 1126              	.LVL77:
 1127              	.L102:
 1128              	.LBB66:
 1129              	.LBB64:
 1130              	.LBB62:
 142:tmk_core/protocol/arm_atsam/usb/udc.c ****                 serial_length++;
 1131              		.loc 1 142 17 is_stmt 1 view .LVU320
 142:tmk_core/protocol/arm_atsam/usb/udc.c ****                 serial_length++;
 1132              		.loc 1 142 57 is_stmt 0 view .LVU321
 1133 0180 00F8015B 		strb	r5, [r0], #1
 143:tmk_core/protocol/arm_atsam/usb/udc.c ****             }
 1134              		.loc 1 143 17 is_stmt 1 view .LVU322
 1135              	.LVL78:
 143:tmk_core/protocol/arm_atsam/usb/udc.c ****             }
 1136              		.loc 1 143 17 is_stmt 0 view .LVU323
 1137 0184 E4E7     		b	.L100
 1138              	.LVL79:
 1139              	.L99:
 143:tmk_core/protocol/arm_atsam/usb/udc.c ****             }
 1140              		.loc 1 143 17 view .LVU324
 1141              	.LBE62:
 154:tmk_core/protocol/arm_atsam/usb/udc.c **** 
 1142              		.loc 1 154 5 is_stmt 1 view .LVU325
 154:tmk_core/protocol/arm_atsam/usb/udc.c **** 
 1143              		.loc 1 154 33 is_stmt 0 view .LVU326
 1144 0186 4B4B     		ldr	r3, .L181+8
 1145 0188 0B22     		movs	r2, #11
 1146              	.LVL80:
 154:tmk_core/protocol/arm_atsam/usb/udc.c **** 
 1147              		.loc 1 154 33 view .LVU327
 1148 018a 83F82320 		strb	r2, [r3, #35]
 157:tmk_core/protocol/arm_atsam/usb/udc.c **** #else
 1149              		.loc 1 157 5 is_stmt 1 view .LVU328
 157:tmk_core/protocol/arm_atsam/usb/udc.c **** #else
 1150              		.loc 1 157 12 is_stmt 0 view .LVU329
 1151 018e 514B     		ldr	r3, .L181+40
 1152 0190 F0E7     		b	.L103
 1153              	.LVL81:
 1154              	.L127:
 157:tmk_core/protocol/arm_atsam/usb/udc.c **** #else
 1155              		.loc 1 157 12 view .LVU330
 1156              	.LBE64:
 1157              	.LBE66:
 586:tmk_core/protocol/arm_atsam/usb/udc.c ****             str        = udc_string_product_name;
 1158              		.loc 1 586 24 view .LVU331
 1159 0192 0D21     		movs	r1, #13
 587:tmk_core/protocol/arm_atsam/usb/udc.c ****             break;
 1160              		.loc 1 587 24 view .LVU332
 1161 0194 4B4B     		ldr	r3, .L181+24
 1162 0196 BBE7     		b	.L96
 1163              	.LVL82:
 1164              	.L87:
 587:tmk_core/protocol/arm_atsam/usb/udc.c ****             break;
 1165              		.loc 1 587 24 view .LVU333
 1166              	.LBE67:
 1167              	.LBE68:
 1168              	.LBE70:
 1169              	.LBE75:
 870:tmk_core/protocol/arm_atsam/usb/udc.c ****                 default:
 1170              		.loc 1 870 21 is_stmt 1 view .LVU334
 1171              	.LBB76:
 1172              	.LBI76:
 716:tmk_core/protocol/arm_atsam/usb/udc.c ****     if (udd_g_ctrlreq.req.wLength != 1) {
 1173              		.loc 1 716 13 view .LVU335
 1174              	.LBB77:
 717:tmk_core/protocol/arm_atsam/usb/udc.c ****         return false;
 1175              		.loc 1 717 5 view .LVU336
 717:tmk_core/protocol/arm_atsam/usb/udc.c ****         return false;
 1176              		.loc 1 717 8 is_stmt 0 view .LVU337
 1177 0198 012D     		cmp	r5, #1
 1178 019a 7FF464AF 		bne	.L82
 721:tmk_core/protocol/arm_atsam/usb/udc.c ****     return true;
 1179              		.loc 1 721 5 is_stmt 1 view .LVU338
 1180 019e 4548     		ldr	r0, .L181+8
 1181 01a0 2946     		mov	r1, r5
 1182              	.L179:
 1183              	.LBE77:
 1184              	.LBE76:
 1185              	.LBB78:
 1186              	.LBB79:
 818:tmk_core/protocol/arm_atsam/usb/udc.c ****     return true;
 1187              		.loc 1 818 5 is_stmt 0 view .LVU339
 1188 01a2 FFF7FEFF 		bl	udd_set_setup_payload
 1189              	.LVL83:
 819:tmk_core/protocol/arm_atsam/usb/udc.c **** }
 1190              		.loc 1 819 5 is_stmt 1 view .LVU340
 1191 01a6 39E7     		b	.L80
 1192              	.L85:
 1193              	.LBE79:
 1194              	.LBE78:
 876:tmk_core/protocol/arm_atsam/usb/udc.c ****             // Standard Get Interface request
 1195              		.loc 1 876 9 view .LVU341
 876:tmk_core/protocol/arm_atsam/usb/udc.c ****             // Standard Get Interface request
 1196              		.loc 1 876 12 is_stmt 0 view .LVU342
 1197 01a8 012B     		cmp	r3, #1
 1198 01aa 27D1     		bne	.L107
 878:tmk_core/protocol/arm_atsam/usb/udc.c ****                 case USB_REQ_GET_INTERFACE:
 1199              		.loc 1 878 13 is_stmt 1 view .LVU343
 1200 01ac 6378     		ldrb	r3, [r4, #1]	@ zero_extendqisi2
 1201 01ae 0A2B     		cmp	r3, #10
 1202 01b0 7FF459AF 		bne	.L82
 880:tmk_core/protocol/arm_atsam/usb/udc.c ****                 default:
 1203              		.loc 1 880 21 view .LVU344
 1204              	.LBB81:
 1205              	.LBI78:
 791:tmk_core/protocol/arm_atsam/usb/udc.c ****     uint8_t   iface_num;
 1206              		.loc 1 791 13 view .LVU345
 1207              	.LBB80:
 792:tmk_core/protocol/arm_atsam/usb/udc.c ****     udi_api_t UDC_DESC_STORAGE *udi_api;
 1208              		.loc 1 792 5 view .LVU346
 793:tmk_core/protocol/arm_atsam/usb/udc.c **** 
 1209              		.loc 1 793 5 view .LVU347
 795:tmk_core/protocol/arm_atsam/usb/udc.c ****         return false;  // Error in request
 1210              		.loc 1 795 5 view .LVU348
 795:tmk_core/protocol/arm_atsam/usb/udc.c ****         return false;  // Error in request
 1211              		.loc 1 795 8 is_stmt 0 view .LVU349
 1212 01b4 012D     		cmp	r5, #1
 1213 01b6 7FF456AF 		bne	.L82
 798:tmk_core/protocol/arm_atsam/usb/udc.c ****         return false;  // The device is not is configured state yet
 1214              		.loc 1 798 5 is_stmt 1 view .LVU350
 798:tmk_core/protocol/arm_atsam/usb/udc.c ****         return false;  // The device is not is configured state yet
 1215              		.loc 1 798 9 is_stmt 0 view .LVU351
 1216 01ba 3E4E     		ldr	r6, .L181+8
 798:tmk_core/protocol/arm_atsam/usb/udc.c ****         return false;  // The device is not is configured state yet
 1217              		.loc 1 798 8 view .LVU352
 1218 01bc 3378     		ldrb	r3, [r6]	@ zero_extendqisi2
 1219 01be 002B     		cmp	r3, #0
 1220 01c0 3FF451AF 		beq	.L82
 803:tmk_core/protocol/arm_atsam/usb/udc.c ****     if (iface_num >= udc_ptr_conf->desc->bNumInterfaces) {
 1221              		.loc 1 803 5 is_stmt 1 view .LVU353
 804:tmk_core/protocol/arm_atsam/usb/udc.c ****         return false;
 1222              		.loc 1 804 34 is_stmt 0 view .LVU354
 1223 01c4 D6F80480 		ldr	r8, [r6, #4]
 803:tmk_core/protocol/arm_atsam/usb/udc.c ****     if (iface_num >= udc_ptr_conf->desc->bNumInterfaces) {
 1224              		.loc 1 803 15 view .LVU355
 1225 01c8 2779     		ldrb	r7, [r4, #4]	@ zero_extendqisi2
 1226              	.LVL84:
 804:tmk_core/protocol/arm_atsam/usb/udc.c ****         return false;
 1227              		.loc 1 804 5 is_stmt 1 view .LVU356
 804:tmk_core/protocol/arm_atsam/usb/udc.c ****         return false;
 1228              		.loc 1 804 40 is_stmt 0 view .LVU357
 1229 01ca D8F80030 		ldr	r3, [r8]
 804:tmk_core/protocol/arm_atsam/usb/udc.c ****         return false;
 1230              		.loc 1 804 8 view .LVU358
 1231 01ce 1B79     		ldrb	r3, [r3, #4]	@ zero_extendqisi2
 1232 01d0 BB42     		cmp	r3, r7
 1233 01d2 7FF648AF 		bls	.L82
 810:tmk_core/protocol/arm_atsam/usb/udc.c ****         return false;
 1234              		.loc 1 810 5 is_stmt 1 view .LVU359
 810:tmk_core/protocol/arm_atsam/usb/udc.c ****         return false;
 1235              		.loc 1 810 10 is_stmt 0 view .LVU360
 1236 01d6 3846     		mov	r0, r7
 1237 01d8 FFF7FEFF 		bl	udc_update_iface_desc
 1238              	.LVL85:
 810:tmk_core/protocol/arm_atsam/usb/udc.c ****         return false;
 1239              		.loc 1 810 8 view .LVU361
 1240 01dc 0546     		mov	r5, r0
 1241 01de 0028     		cmp	r0, #0
 1242 01e0 3FF441AF 		beq	.L82
 814:tmk_core/protocol/arm_atsam/usb/udc.c ****     udc_iface_setting = udi_api->getsetting();
 1243              		.loc 1 814 5 is_stmt 1 view .LVU362
 1244              	.LVL86:
 815:tmk_core/protocol/arm_atsam/usb/udc.c **** 
 1245              		.loc 1 815 5 view .LVU363
 814:tmk_core/protocol/arm_atsam/usb/udc.c ****     udc_iface_setting = udi_api->getsetting();
 1246              		.loc 1 814 23 is_stmt 0 view .LVU364
 1247 01e4 D8F80430 		ldr	r3, [r8, #4]
 815:tmk_core/protocol/arm_atsam/usb/udc.c **** 
 1248              		.loc 1 815 32 view .LVU365
 1249 01e8 53F82730 		ldr	r3, [r3, r7, lsl #2]
 815:tmk_core/protocol/arm_atsam/usb/udc.c **** 
 1250              		.loc 1 815 25 view .LVU366
 1251 01ec DB68     		ldr	r3, [r3, #12]
 1252 01ee 9847     		blx	r3
 1253              	.LVL87:
 818:tmk_core/protocol/arm_atsam/usb/udc.c ****     return true;
 1254              		.loc 1 818 5 view .LVU367
 1255 01f0 0121     		movs	r1, #1
 815:tmk_core/protocol/arm_atsam/usb/udc.c **** 
 1256              		.loc 1 815 23 view .LVU368
 1257 01f2 86F82400 		strb	r0, [r6, #36]
 818:tmk_core/protocol/arm_atsam/usb/udc.c ****     return true;
 1258              		.loc 1 818 5 is_stmt 1 view .LVU369
 1259 01f6 06F12400 		add	r0, r6, #36
 1260 01fa D2E7     		b	.L179
 1261              	.LVL88:
 1262              	.L107:
 818:tmk_core/protocol/arm_atsam/usb/udc.c ****     return true;
 1263              		.loc 1 818 5 is_stmt 0 view .LVU370
 1264              	.LBE80:
 1265              	.LBE81:
 886:tmk_core/protocol/arm_atsam/usb/udc.c ****             // Standard Get Endpoint request
 1266              		.loc 1 886 9 is_stmt 1 view .LVU371
 886:tmk_core/protocol/arm_atsam/usb/udc.c ****             // Standard Get Endpoint request
 1267              		.loc 1 886 12 is_stmt 0 view .LVU372
 1268 01fc 022B     		cmp	r3, #2
 1269 01fe 7FF432AF 		bne	.L82
 888:tmk_core/protocol/arm_atsam/usb/udc.c ****                 case USB_REQ_GET_STATUS:
 1270              		.loc 1 888 13 is_stmt 1 view .LVU373
 1271 0202 6378     		ldrb	r3, [r4, #1]	@ zero_extendqisi2
 1272 0204 002B     		cmp	r3, #0
 1273 0206 7FF42EAF 		bne	.L82
 890:tmk_core/protocol/arm_atsam/usb/udc.c ****                 default:
 1274              		.loc 1 890 21 view .LVU374
 1275              	.LBB82:
 1276              	.LBI52:
 411:tmk_core/protocol/arm_atsam/usb/udc.c ****     static le16_t udc_ep_status;
 1277              		.loc 1 411 13 view .LVU375
 1278              	.LBB54:
 412:tmk_core/protocol/arm_atsam/usb/udc.c **** 
 1279              		.loc 1 412 5 view .LVU376
 414:tmk_core/protocol/arm_atsam/usb/udc.c ****         return false;
 1280              		.loc 1 414 5 view .LVU377
 414:tmk_core/protocol/arm_atsam/usb/udc.c ****         return false;
 1281              		.loc 1 414 8 is_stmt 0 view .LVU378
 1282 020a 022D     		cmp	r5, #2
 1283 020c 7FF42BAF 		bne	.L82
 418:tmk_core/protocol/arm_atsam/usb/udc.c **** 
 1284              		.loc 1 418 5 is_stmt 1 view .LVU379
 418:tmk_core/protocol/arm_atsam/usb/udc.c **** 
 1285              		.loc 1 418 21 is_stmt 0 view .LVU380
 1286 0210 2079     		ldrb	r0, [r4, #4]	@ zero_extendqisi2
 1287 0212 FFF7FEFF 		bl	udd_ep_is_halted
 1288              	.LVL89:
 1289 0216 0346     		mov	r3, r0
 418:tmk_core/protocol/arm_atsam/usb/udc.c **** 
 1290              		.loc 1 418 107 view .LVU381
 1291 0218 2648     		ldr	r0, .L181+8
 420:tmk_core/protocol/arm_atsam/usb/udc.c ****     return true;
 1292              		.loc 1 420 5 view .LVU382
 1293 021a 2946     		mov	r1, r5
 418:tmk_core/protocol/arm_atsam/usb/udc.c **** 
 1294              		.loc 1 418 107 view .LVU383
 1295 021c 20F8263F 		strh	r3, [r0, #38]!	@ movhi
 420:tmk_core/protocol/arm_atsam/usb/udc.c ****     return true;
 1296              		.loc 1 420 5 is_stmt 1 view .LVU384
 1297 0220 17E7     		b	.L180
 1298              	.L83:
 1299              	.LBE54:
 1300              	.LBE82:
 898:tmk_core/protocol/arm_atsam/usb/udc.c ****             // Standard Set Device request
 1301              		.loc 1 898 9 view .LVU385
 898:tmk_core/protocol/arm_atsam/usb/udc.c ****             // Standard Set Device request
 1302              		.loc 1 898 12 is_stmt 0 view .LVU386
 1303 0222 002B     		cmp	r3, #0
 1304 0224 40F08780 		bne	.L108
 900:tmk_core/protocol/arm_atsam/usb/udc.c ****                 case USB_REQ_SET_ADDRESS:
 1305              		.loc 1 900 13 is_stmt 1 view .LVU387
 1306 0228 6378     		ldrb	r3, [r4, #1]	@ zero_extendqisi2
 1307 022a 013B     		subs	r3, r3, #1
 1308 022c 082B     		cmp	r3, #8
 1309 022e 3FF61AAF 		bhi	.L82
 1310 0232 01A2     		adr	r2, .L110
 1311 0234 52F823F0 		ldr	pc, [r2, r3, lsl #2]
 1312              		.p2align 2
 1313              	.L110:
 1314 0238 6B020000 		.word	.L113+1
 1315 023c 67000000 		.word	.L82+1
 1316 0240 8B020000 		.word	.L112+1
 1317 0244 67000000 		.word	.L82+1
 1318 0248 5D020000 		.word	.L111+1
 1319 024c 67000000 		.word	.L82+1
 1320 0250 67000000 		.word	.L82+1
 1321 0254 67000000 		.word	.L82+1
 1322 0258 DD020000 		.word	.L109+1
 1323              		.p2align 1
 1324              	.L111:
 902:tmk_core/protocol/arm_atsam/usb/udc.c ****                 case USB_REQ_CLEAR_FEATURE:
 1325              		.loc 1 902 21 view .LVU388
 1326              	.LBB83:
 1327              	.LBI72:
 551:tmk_core/protocol/arm_atsam/usb/udc.c ****     if (udd_g_ctrlreq.req.wLength) {
 1328              		.loc 1 551 13 view .LVU389
 1329              	.LBB74:
 552:tmk_core/protocol/arm_atsam/usb/udc.c ****         return false;
 1330              		.loc 1 552 5 view .LVU390
 552:tmk_core/protocol/arm_atsam/usb/udc.c ****         return false;
 1331              		.loc 1 552 8 is_stmt 0 view .LVU391
 1332 025c E388     		ldrh	r3, [r4, #6]
 1333 025e 002B     		cmp	r3, #0
 1334 0260 7FF401AF 		bne	.L82
 558:tmk_core/protocol/arm_atsam/usb/udc.c ****     return true;
 1335              		.loc 1 558 5 is_stmt 1 view .LVU392
 558:tmk_core/protocol/arm_atsam/usb/udc.c ****     return true;
 1336              		.loc 1 558 28 is_stmt 0 view .LVU393
 1337 0264 1C4B     		ldr	r3, .L181+44
 1338 0266 2361     		str	r3, [r4, #16]
 1339 0268 47E7     		b	.L178
 1340              	.L113:
 1341              	.LBE74:
 1342              	.LBE83:
 904:tmk_core/protocol/arm_atsam/usb/udc.c ****                 case USB_REQ_SET_FEATURE:
 1343              		.loc 1 904 21 is_stmt 1 view .LVU394
 1344              	.LBB84:
 1345              	.LBI84:
 430:tmk_core/protocol/arm_atsam/usb/udc.c ****     if (udd_g_ctrlreq.req.wLength) {
 1346              		.loc 1 430 13 view .LVU395
 1347              	.LBB85:
 431:tmk_core/protocol/arm_atsam/usb/udc.c ****         return false;
 1348              		.loc 1 431 5 view .LVU396
 431:tmk_core/protocol/arm_atsam/usb/udc.c ****         return false;
 1349              		.loc 1 431 8 is_stmt 0 view .LVU397
 1350 026a E388     		ldrh	r3, [r4, #6]
 1351 026c 002B     		cmp	r3, #0
 1352 026e 7FF4FAAE 		bne	.L82
 435:tmk_core/protocol/arm_atsam/usb/udc.c ****         udc_device_status &= CPU_TO_LE16(~(uint32_t)USB_DEV_STATUS_REMOTEWAKEUP);
 1353              		.loc 1 435 5 is_stmt 1 view .LVU398
 435:tmk_core/protocol/arm_atsam/usb/udc.c ****         udc_device_status &= CPU_TO_LE16(~(uint32_t)USB_DEV_STATUS_REMOTEWAKEUP);
 1354              		.loc 1 435 8 is_stmt 0 view .LVU399
 1355 0272 6588     		ldrh	r5, [r4, #2]
 1356 0274 012D     		cmp	r5, #1
 1357 0276 7FF4F6AE 		bne	.L82
 436:tmk_core/protocol/arm_atsam/usb/udc.c **** #if (USB_CONFIG_ATTR_REMOTE_WAKEUP == (USB_DEVICE_ATTR & USB_CONFIG_ATTR_REMOTE_WAKEUP))
 1358              		.loc 1 436 9 is_stmt 1 view .LVU400
 436:tmk_core/protocol/arm_atsam/usb/udc.c **** #if (USB_CONFIG_ATTR_REMOTE_WAKEUP == (USB_DEVICE_ATTR & USB_CONFIG_ATTR_REMOTE_WAKEUP))
 1359              		.loc 1 436 27 is_stmt 0 view .LVU401
 1360 027a 0E4A     		ldr	r2, .L181+8
 1361 027c 9389     		ldrh	r3, [r2, #12]
 1362 027e 23F00203 		bic	r3, r3, #2
 1363 0282 9381     		strh	r3, [r2, #12]	@ movhi
 438:tmk_core/protocol/arm_atsam/usb/udc.c **** #endif
 1364              		.loc 1 438 9 is_stmt 1 view .LVU402
 1365 0284 FFF7FEFF 		bl	main_remotewakeup_disable
 1366              	.LVL90:
 440:tmk_core/protocol/arm_atsam/usb/udc.c ****     }
 1367              		.loc 1 440 9 view .LVU403
 1368 0288 C8E6     		b	.L80
 1369              	.L112:
 1370              	.LBE85:
 1371              	.LBE84:
 906:tmk_core/protocol/arm_atsam/usb/udc.c ****                 case USB_REQ_SET_CONFIGURATION:
 1372              		.loc 1 906 21 view .LVU404
 1373              	.LBB86:
 1374              	.LBI86:
 468:tmk_core/protocol/arm_atsam/usb/udc.c ****     if (udd_g_ctrlreq.req.wLength) {
 1375              		.loc 1 468 13 view .LVU405
 1376              	.LBB87:
 469:tmk_core/protocol/arm_atsam/usb/udc.c ****         return false;
 1377              		.loc 1 469 5 view .LVU406
 469:tmk_core/protocol/arm_atsam/usb/udc.c ****         return false;
 1378              		.loc 1 469 8 is_stmt 0 view .LVU407
 1379 028a E388     		ldrh	r3, [r4, #6]
 1380 028c 002B     		cmp	r3, #0
 1381 028e 7FF4EAAE 		bne	.L82
 473:tmk_core/protocol/arm_atsam/usb/udc.c ****         case USB_DEV_FEATURE_REMOTE_WAKEUP:
 1382              		.loc 1 473 5 is_stmt 1 view .LVU408
 1383 0292 6588     		ldrh	r5, [r4, #2]
 1384 0294 012D     		cmp	r5, #1
 1385 0296 7FF4E6AE 		bne	.L82
 476:tmk_core/protocol/arm_atsam/usb/udc.c ****             UDC_REMOTEWAKEUP_ENABLE();
 1386              		.loc 1 476 13 view .LVU409
 476:tmk_core/protocol/arm_atsam/usb/udc.c ****             UDC_REMOTEWAKEUP_ENABLE();
 1387              		.loc 1 476 31 is_stmt 0 view .LVU410
 1388 029a 064A     		ldr	r2, .L181+8
 1389 029c 9389     		ldrh	r3, [r2, #12]
 1390 029e 43F00203 		orr	r3, r3, #2
 1391 02a2 9381     		strh	r3, [r2, #12]	@ movhi
 477:tmk_core/protocol/arm_atsam/usb/udc.c ****             return true;
 1392              		.loc 1 477 13 is_stmt 1 view .LVU411
 1393 02a4 FFF7FEFF 		bl	main_remotewakeup_enable
 1394              	.LVL91:
 478:tmk_core/protocol/arm_atsam/usb/udc.c **** #else
 1395              		.loc 1 478 13 view .LVU412
 1396 02a8 B8E6     		b	.L80
 1397              	.L182:
 1398 02aa 00BF     		.align	2
 1399              	.L181:
 1400 02ac 00000000 		.word	udd_g_ctrlreq
 1401 02b0 0C000000 		.word	.LANCHOR0+12
 1402 02b4 00000000 		.word	.LANCHOR0
 1403 02b8 00000000 		.word	udc_config
 1404 02bc 0E000000 		.word	.LANCHOR1+14
 1405 02c0 20000000 		.word	.LANCHOR1+32
 1406 02c4 00000000 		.word	.LANCHOR1
 1407 02c8 1C000000 		.word	.LANCHOR1+28
 1408 02cc 00000000 		.word	_srom
 1409 02d0 0E000000 		.word	.LANCHOR0+14
 1410 02d4 00000000 		.word	.LC0
 1411 02d8 00000000 		.word	udc_valid_address
 1412              	.L109:
 1413              	.LBE87:
 1414              	.LBE86:
 908:tmk_core/protocol/arm_atsam/usb/udc.c ****                 case USB_REQ_SET_DESCRIPTOR:
 1415              		.loc 1 908 21 view .LVU413
 1416              	.LBB88:
 1417              	.LBI88:
 730:tmk_core/protocol/arm_atsam/usb/udc.c ****     uint8_t iface_num;
 1418              		.loc 1 730 13 view .LVU414
 1419              	.LBB89:
 731:tmk_core/protocol/arm_atsam/usb/udc.c **** 
 1420              		.loc 1 731 5 view .LVU415
 734:tmk_core/protocol/arm_atsam/usb/udc.c ****         return false;
 1421              		.loc 1 734 5 view .LVU416
 734:tmk_core/protocol/arm_atsam/usb/udc.c ****         return false;
 1422              		.loc 1 734 8 is_stmt 0 view .LVU417
 1423 02dc E588     		ldrh	r5, [r4, #6]
 1424 02de 002D     		cmp	r5, #0
 1425 02e0 7FF4C1AE 		bne	.L82
 738:tmk_core/protocol/arm_atsam/usb/udc.c ****         return false;
 1426              		.loc 1 738 5 is_stmt 1 view .LVU418
 738:tmk_core/protocol/arm_atsam/usb/udc.c ****         return false;
 1427              		.loc 1 738 10 is_stmt 0 view .LVU419
 1428 02e4 FFF7FEFF 		bl	udd_getaddress
 1429              	.LVL92:
 738:tmk_core/protocol/arm_atsam/usb/udc.c ****         return false;
 1430              		.loc 1 738 8 view .LVU420
 1431 02e8 0028     		cmp	r0, #0
 1432 02ea 3FF4BCAE 		beq	.L82
 752:tmk_core/protocol/arm_atsam/usb/udc.c ****             return false;
 1433              		.loc 1 752 9 is_stmt 1 view .LVU421
 752:tmk_core/protocol/arm_atsam/usb/udc.c ****             return false;
 1434              		.loc 1 752 59 is_stmt 0 view .LVU422
 1435 02ee 434F     		ldr	r7, .L183
 752:tmk_core/protocol/arm_atsam/usb/udc.c ****             return false;
 1436              		.loc 1 752 72 view .LVU423
 1437 02f0 3B68     		ldr	r3, [r7]
 752:tmk_core/protocol/arm_atsam/usb/udc.c ****             return false;
 1438              		.loc 1 752 12 view .LVU424
 1439 02f2 5A7C     		ldrb	r2, [r3, #17]	@ zero_extendqisi2
 1440 02f4 A378     		ldrb	r3, [r4, #2]	@ zero_extendqisi2
 1441 02f6 9A42     		cmp	r2, r3
 1442 02f8 FFF4B5AE 		bcc	.L82
 758:tmk_core/protocol/arm_atsam/usb/udc.c **** 
 1443              		.loc 1 758 5 is_stmt 1 view .LVU425
 1444 02fc FFF7FEFF 		bl	udc_reset
 1445              	.LVL93:
 761:tmk_core/protocol/arm_atsam/usb/udc.c ****     if (udc_num_configuration == 0) {
 1446              		.loc 1 761 5 view .LVU426
 761:tmk_core/protocol/arm_atsam/usb/udc.c ****     if (udc_num_configuration == 0) {
 1447              		.loc 1 761 27 is_stmt 0 view .LVU427
 1448 0300 3F4E     		ldr	r6, .L183+4
 1449 0302 A378     		ldrb	r3, [r4, #2]	@ zero_extendqisi2
 1450 0304 3370     		strb	r3, [r6]
 762:tmk_core/protocol/arm_atsam/usb/udc.c ****         return true;  // Default empty configuration requested
 1451              		.loc 1 762 5 is_stmt 1 view .LVU428
 762:tmk_core/protocol/arm_atsam/usb/udc.c ****         return true;  // Default empty configuration requested
 1452              		.loc 1 762 8 is_stmt 0 view .LVU429
 1453 0306 002B     		cmp	r3, #0
 1454 0308 3FF4F7AE 		beq	.L178
 774:tmk_core/protocol/arm_atsam/usb/udc.c ****     }
 1455              		.loc 1 774 9 is_stmt 1 view .LVU430
 774:tmk_core/protocol/arm_atsam/usb/udc.c ****     }
 1456              		.loc 1 774 24 is_stmt 0 view .LVU431
 1457 030c 03F10053 		add	r3, r3, #536870912
 1458 0310 7A68     		ldr	r2, [r7, #4]
 1459 0312 013B     		subs	r3, r3, #1
 1460 0314 02EBC303 		add	r3, r2, r3, lsl #3
 774:tmk_core/protocol/arm_atsam/usb/udc.c ****     }
 1461              		.loc 1 774 22 view .LVU432
 1462 0318 7360     		str	r3, [r6, #4]
 777:tmk_core/protocol/arm_atsam/usb/udc.c ****         if (!udc_iface_enable(iface_num, 0)) {
 1463              		.loc 1 777 5 is_stmt 1 view .LVU433
 1464              	.LVL94:
 1465              	.L115:
 777:tmk_core/protocol/arm_atsam/usb/udc.c ****         if (!udc_iface_enable(iface_num, 0)) {
 1466              		.loc 1 777 49 is_stmt 0 view .LVU434
 1467 031a 7368     		ldr	r3, [r6, #4]
 777:tmk_core/protocol/arm_atsam/usb/udc.c ****         if (!udc_iface_enable(iface_num, 0)) {
 1468              		.loc 1 777 55 view .LVU435
 1469 031c 1B68     		ldr	r3, [r3]
 777:tmk_core/protocol/arm_atsam/usb/udc.c ****         if (!udc_iface_enable(iface_num, 0)) {
 1470              		.loc 1 777 5 view .LVU436
 1471 031e 1B79     		ldrb	r3, [r3, #4]	@ zero_extendqisi2
 1472 0320 E8B2     		uxtb	r0, r5
 1473              	.LVL95:
 777:tmk_core/protocol/arm_atsam/usb/udc.c ****         if (!udc_iface_enable(iface_num, 0)) {
 1474              		.loc 1 777 5 view .LVU437
 1475 0322 8342     		cmp	r3, r0
 1476 0324 7FF6E9AE 		bls	.L178
 778:tmk_core/protocol/arm_atsam/usb/udc.c ****             return false;
 1477              		.loc 1 778 9 is_stmt 1 view .LVU438
 778:tmk_core/protocol/arm_atsam/usb/udc.c ****             return false;
 1478              		.loc 1 778 14 is_stmt 0 view .LVU439
 1479 0328 0021     		movs	r1, #0
 1480 032a FFF7FEFF 		bl	udc_iface_enable
 1481              	.LVL96:
 778:tmk_core/protocol/arm_atsam/usb/udc.c ****             return false;
 1482              		.loc 1 778 14 view .LVU440
 1483 032e 0135     		adds	r5, r5, #1
 1484              	.LVL97:
 778:tmk_core/protocol/arm_atsam/usb/udc.c ****             return false;
 1485              		.loc 1 778 12 view .LVU441
 1486 0330 0028     		cmp	r0, #0
 1487 0332 F2D1     		bne	.L115
 1488 0334 97E6     		b	.L82
 1489              	.L108:
 778:tmk_core/protocol/arm_atsam/usb/udc.c ****             return false;
 1490              		.loc 1 778 12 view .LVU442
 1491              	.LBE89:
 1492              	.LBE88:
 917:tmk_core/protocol/arm_atsam/usb/udc.c ****             // Standard Set Interface request
 1493              		.loc 1 917 9 is_stmt 1 view .LVU443
 917:tmk_core/protocol/arm_atsam/usb/udc.c ****             // Standard Set Interface request
 1494              		.loc 1 917 12 is_stmt 0 view .LVU444
 1495 0336 012B     		cmp	r3, #1
 1496 0338 1CD1     		bne	.L117
 919:tmk_core/protocol/arm_atsam/usb/udc.c ****                 case USB_REQ_SET_INTERFACE:
 1497              		.loc 1 919 13 is_stmt 1 view .LVU445
 1498 033a 6378     		ldrb	r3, [r4, #1]	@ zero_extendqisi2
 1499 033c 0B2B     		cmp	r3, #11
 1500 033e 7FF492AE 		bne	.L82
 921:tmk_core/protocol/arm_atsam/usb/udc.c ****                 default:
 1501              		.loc 1 921 21 view .LVU446
 1502              	.LBB90:
 1503              	.LBI90:
 828:tmk_core/protocol/arm_atsam/usb/udc.c ****     uint8_t iface_num, setting_num;
 1504              		.loc 1 828 13 view .LVU447
 1505              	.LBB91:
 829:tmk_core/protocol/arm_atsam/usb/udc.c **** 
 1506              		.loc 1 829 5 view .LVU448
 831:tmk_core/protocol/arm_atsam/usb/udc.c ****         return false;  // Error in request
 1507              		.loc 1 831 5 view .LVU449
 831:tmk_core/protocol/arm_atsam/usb/udc.c ****         return false;  // Error in request
 1508              		.loc 1 831 8 is_stmt 0 view .LVU450
 1509 0342 E388     		ldrh	r3, [r4, #6]
 1510 0344 002B     		cmp	r3, #0
 1511 0346 7FF48EAE 		bne	.L82
 834:tmk_core/protocol/arm_atsam/usb/udc.c ****         return false;  // The device is not is configured state yet
 1512              		.loc 1 834 5 is_stmt 1 view .LVU451
 834:tmk_core/protocol/arm_atsam/usb/udc.c ****         return false;  // The device is not is configured state yet
 1513              		.loc 1 834 9 is_stmt 0 view .LVU452
 1514 034a 2D4B     		ldr	r3, .L183+4
 834:tmk_core/protocol/arm_atsam/usb/udc.c ****         return false;  // The device is not is configured state yet
 1515              		.loc 1 834 8 view .LVU453
 1516 034c 1B78     		ldrb	r3, [r3]	@ zero_extendqisi2
 1517 034e 002B     		cmp	r3, #0
 1518 0350 3FF489AE 		beq	.L82
 838:tmk_core/protocol/arm_atsam/usb/udc.c ****     setting_num = udd_g_ctrlreq.req.wValue & 0xFF;
 1519              		.loc 1 838 5 is_stmt 1 view .LVU454
 838:tmk_core/protocol/arm_atsam/usb/udc.c ****     setting_num = udd_g_ctrlreq.req.wValue & 0xFF;
 1520              		.loc 1 838 17 is_stmt 0 view .LVU455
 1521 0354 2579     		ldrb	r5, [r4, #4]	@ zero_extendqisi2
 1522              	.LVL98:
 839:tmk_core/protocol/arm_atsam/usb/udc.c **** 
 1523              		.loc 1 839 5 is_stmt 1 view .LVU456
 839:tmk_core/protocol/arm_atsam/usb/udc.c **** 
 1524              		.loc 1 839 36 is_stmt 0 view .LVU457
 1525 0356 6688     		ldrh	r6, [r4, #2]
 1526              	.LVL99:
 842:tmk_core/protocol/arm_atsam/usb/udc.c ****         return false;
 1527              		.loc 1 842 5 is_stmt 1 view .LVU458
 842:tmk_core/protocol/arm_atsam/usb/udc.c ****         return false;
 1528              		.loc 1 842 10 is_stmt 0 view .LVU459
 1529 0358 2846     		mov	r0, r5
 1530 035a FFF7FEFF 		bl	udc_iface_disable
 1531              	.LVL100:
 842:tmk_core/protocol/arm_atsam/usb/udc.c ****         return false;
 1532              		.loc 1 842 8 view .LVU460
 1533 035e 0028     		cmp	r0, #0
 1534 0360 3FF481AE 		beq	.L82
 847:tmk_core/protocol/arm_atsam/usb/udc.c **** }
 1535              		.loc 1 847 5 is_stmt 1 view .LVU461
 847:tmk_core/protocol/arm_atsam/usb/udc.c **** }
 1536              		.loc 1 847 12 is_stmt 0 view .LVU462
 1537 0364 F1B2     		uxtb	r1, r6
 1538 0366 2846     		mov	r0, r5
 1539 0368 FFF7FEFF 		bl	udc_iface_enable
 1540              	.LVL101:
 1541              	.L118:
 847:tmk_core/protocol/arm_atsam/usb/udc.c **** }
 1542              		.loc 1 847 12 view .LVU463
 1543              	.LBE91:
 1544              	.LBE90:
 1545              	.LBE98:
 1546              	.LBE104:
1033:tmk_core/protocol/arm_atsam/usb/udc.c ****             return true;
 1547              		.loc 1 1033 12 view .LVU464
 1548 036c 0028     		cmp	r0, #0
 1549 036e 7FF4C4AE 		bne	.L178
 1550 0372 78E6     		b	.L82
 1551              	.L117:
 1552              	.LBB105:
 1553              	.LBB99:
 927:tmk_core/protocol/arm_atsam/usb/udc.c ****             // Standard Set Endpoint request
 1554              		.loc 1 927 9 is_stmt 1 view .LVU465
 927:tmk_core/protocol/arm_atsam/usb/udc.c ****             // Standard Set Endpoint request
 1555              		.loc 1 927 12 is_stmt 0 view .LVU466
 1556 0374 022B     		cmp	r3, #2
 1557 0376 7FF476AE 		bne	.L82
 929:tmk_core/protocol/arm_atsam/usb/udc.c ****                 case USB_REQ_CLEAR_FEATURE:
 1558              		.loc 1 929 13 is_stmt 1 view .LVU467
 929:tmk_core/protocol/arm_atsam/usb/udc.c ****                 case USB_REQ_CLEAR_FEATURE:
 1559              		.loc 1 929 38 is_stmt 0 view .LVU468
 1560 037a 6378     		ldrb	r3, [r4, #1]	@ zero_extendqisi2
 929:tmk_core/protocol/arm_atsam/usb/udc.c ****                 case USB_REQ_CLEAR_FEATURE:
 1561              		.loc 1 929 13 view .LVU469
 1562 037c 012B     		cmp	r3, #1
 1563 037e 0ED0     		beq	.L119
 1564 0380 032B     		cmp	r3, #3
 1565 0382 7FF470AE 		bne	.L82
 933:tmk_core/protocol/arm_atsam/usb/udc.c ****                 default:
 1566              		.loc 1 933 21 is_stmt 1 view .LVU470
 1567              	.LBB92:
 1568              	.LBI92:
 528:tmk_core/protocol/arm_atsam/usb/udc.c ****     if (udd_g_ctrlreq.req.wLength) {
 1569              		.loc 1 528 13 view .LVU471
 1570              	.LBB93:
 529:tmk_core/protocol/arm_atsam/usb/udc.c ****         return false;
 1571              		.loc 1 529 5 view .LVU472
 532:tmk_core/protocol/arm_atsam/usb/udc.c ****         udd_ep_abort(udd_g_ctrlreq.req.wIndex & 0xFF);
 1572              		.loc 1 532 5 view .LVU473
 532:tmk_core/protocol/arm_atsam/usb/udc.c ****         udd_ep_abort(udd_g_ctrlreq.req.wIndex & 0xFF);
 1573              		.loc 1 532 8 is_stmt 0 view .LVU474
 1574 0386 E288     		ldrh	r2, [r4, #6]
 1575 0388 6388     		ldrh	r3, [r4, #2]
 1576 038a 1343     		orrs	r3, r2, r3
 1577 038c 7FF46BAE 		bne	.L82
 533:tmk_core/protocol/arm_atsam/usb/udc.c ****         return udd_ep_set_halt(udd_g_ctrlreq.req.wIndex & 0xFF);
 1578              		.loc 1 533 9 is_stmt 1 view .LVU475
 1579 0390 2079     		ldrb	r0, [r4, #4]	@ zero_extendqisi2
 1580 0392 FFF7FEFF 		bl	udd_ep_abort
 1581              	.LVL102:
 534:tmk_core/protocol/arm_atsam/usb/udc.c ****     }
 1582              		.loc 1 534 9 view .LVU476
 534:tmk_core/protocol/arm_atsam/usb/udc.c ****     }
 1583              		.loc 1 534 16 is_stmt 0 view .LVU477
 1584 0396 2079     		ldrb	r0, [r4, #4]	@ zero_extendqisi2
 1585 0398 FFF7FEFF 		bl	udd_ep_set_halt
 1586              	.LVL103:
 1587 039c E6E7     		b	.L118
 1588              	.L119:
 1589              	.LBE93:
 1590              	.LBE92:
 931:tmk_core/protocol/arm_atsam/usb/udc.c ****                 case USB_REQ_SET_FEATURE:
 1591              		.loc 1 931 21 is_stmt 1 view .LVU478
 1592              	.LBB94:
 1593              	.LBI94:
 451:tmk_core/protocol/arm_atsam/usb/udc.c ****     if (udd_g_ctrlreq.req.wLength) {
 1594              		.loc 1 451 13 view .LVU479
 1595              	.LBB95:
 452:tmk_core/protocol/arm_atsam/usb/udc.c ****         return false;
 1596              		.loc 1 452 5 view .LVU480
 456:tmk_core/protocol/arm_atsam/usb/udc.c ****         return udd_ep_clear_halt(udd_g_ctrlreq.req.wIndex & 0xFF);
 1597              		.loc 1 456 5 view .LVU481
 456:tmk_core/protocol/arm_atsam/usb/udc.c ****         return udd_ep_clear_halt(udd_g_ctrlreq.req.wIndex & 0xFF);
 1598              		.loc 1 456 8 is_stmt 0 view .LVU482
 1599 039e E288     		ldrh	r2, [r4, #6]
 1600 03a0 6388     		ldrh	r3, [r4, #2]
 1601 03a2 1343     		orrs	r3, r2, r3
 1602 03a4 7FF45FAE 		bne	.L82
 457:tmk_core/protocol/arm_atsam/usb/udc.c ****     }
 1603              		.loc 1 457 9 is_stmt 1 view .LVU483
 457:tmk_core/protocol/arm_atsam/usb/udc.c ****     }
 1604              		.loc 1 457 16 is_stmt 0 view .LVU484
 1605 03a8 2079     		ldrb	r0, [r4, #4]	@ zero_extendqisi2
 1606 03aa FFF7FEFF 		bl	udd_ep_clear_halt
 1607              	.LVL104:
 1608 03ae DDE7     		b	.L118
 1609              	.L121:
 1610              	.LBE95:
 1611              	.LBE94:
 1612              	.LBE99:
 1613              	.LBE105:
1040:tmk_core/protocol/arm_atsam/usb/udc.c ****             return true;
 1614              		.loc 1 1040 9 is_stmt 1 view .LVU485
 1615              	.LBB106:
 1616              	.LBI106:
 948:tmk_core/protocol/arm_atsam/usb/udc.c ****     uint8_t   iface_num;
 1617              		.loc 1 948 13 view .LVU486
 1618              	.LBB107:
 949:tmk_core/protocol/arm_atsam/usb/udc.c ****     udi_api_t UDC_DESC_STORAGE *udi_api;
 1619              		.loc 1 949 5 view .LVU487
 950:tmk_core/protocol/arm_atsam/usb/udc.c **** 
 1620              		.loc 1 950 5 view .LVU488
 952:tmk_core/protocol/arm_atsam/usb/udc.c ****         return false;  // The device is not is configured state yet
 1621              		.loc 1 952 5 view .LVU489
 952:tmk_core/protocol/arm_atsam/usb/udc.c ****         return false;  // The device is not is configured state yet
 1622              		.loc 1 952 11 is_stmt 0 view .LVU490
 1623 03b0 134B     		ldr	r3, .L183+4
 952:tmk_core/protocol/arm_atsam/usb/udc.c ****         return false;  // The device is not is configured state yet
 1624              		.loc 1 952 8 view .LVU491
 1625 03b2 1A78     		ldrb	r2, [r3]	@ zero_extendqisi2
 1626 03b4 002A     		cmp	r2, #0
 1627 03b6 3FF430AE 		beq	.L123
 956:tmk_core/protocol/arm_atsam/usb/udc.c ****     if (iface_num >= udc_ptr_conf->desc->bNumInterfaces) {
 1628              		.loc 1 956 5 is_stmt 1 view .LVU492
 957:tmk_core/protocol/arm_atsam/usb/udc.c ****         return false;
 1629              		.loc 1 957 34 is_stmt 0 view .LVU493
 1630 03ba 5E68     		ldr	r6, [r3, #4]
 956:tmk_core/protocol/arm_atsam/usb/udc.c ****     if (iface_num >= udc_ptr_conf->desc->bNumInterfaces) {
 1631              		.loc 1 956 15 view .LVU494
 1632 03bc 2579     		ldrb	r5, [r4, #4]	@ zero_extendqisi2
 1633              	.LVL105:
 957:tmk_core/protocol/arm_atsam/usb/udc.c ****         return false;
 1634              		.loc 1 957 5 is_stmt 1 view .LVU495
 957:tmk_core/protocol/arm_atsam/usb/udc.c ****         return false;
 1635              		.loc 1 957 40 is_stmt 0 view .LVU496
 1636 03be 3368     		ldr	r3, [r6]
 957:tmk_core/protocol/arm_atsam/usb/udc.c ****         return false;
 1637              		.loc 1 957 8 view .LVU497
 1638 03c0 1B79     		ldrb	r3, [r3, #4]	@ zero_extendqisi2
 1639 03c2 AB42     		cmp	r3, r5
 1640 03c4 7FF629AE 		bls	.L123
 964:tmk_core/protocol/arm_atsam/usb/udc.c ****         return false;
 1641              		.loc 1 964 5 is_stmt 1 view .LVU498
 964:tmk_core/protocol/arm_atsam/usb/udc.c ****         return false;
 1642              		.loc 1 964 10 is_stmt 0 view .LVU499
 1643 03c8 0021     		movs	r1, #0
 1644 03ca 2846     		mov	r0, r5
 1645 03cc FFF7FEFF 		bl	udc_update_iface_desc
 1646              	.LVL106:
 964:tmk_core/protocol/arm_atsam/usb/udc.c ****         return false;
 1647              		.loc 1 964 8 view .LVU500
 1648 03d0 0028     		cmp	r0, #0
 1649 03d2 3FF44EAE 		beq	.L124
 968:tmk_core/protocol/arm_atsam/usb/udc.c ****     if (!udc_update_iface_desc(iface_num, udi_api->getsetting())) {
 1650              		.loc 1 968 5 is_stmt 1 view .LVU501
 968:tmk_core/protocol/arm_atsam/usb/udc.c ****     if (!udc_update_iface_desc(iface_num, udi_api->getsetting())) {
 1651              		.loc 1 968 13 is_stmt 0 view .LVU502
 1652 03d6 7368     		ldr	r3, [r6, #4]
 1653 03d8 53F82560 		ldr	r6, [r3, r5, lsl #2]
 1654              	.LVL107:
 969:tmk_core/protocol/arm_atsam/usb/udc.c ****         return false;
 1655              		.loc 1 969 5 is_stmt 1 view .LVU503
 969:tmk_core/protocol/arm_atsam/usb/udc.c ****         return false;
 1656              		.loc 1 969 10 is_stmt 0 view .LVU504
 1657 03dc F368     		ldr	r3, [r6, #12]
 1658 03de 9847     		blx	r3
 1659              	.LVL108:
 1660 03e0 0146     		mov	r1, r0
 1661 03e2 2846     		mov	r0, r5
 1662 03e4 FFF7FEFF 		bl	udc_update_iface_desc
 1663              	.LVL109:
 969:tmk_core/protocol/arm_atsam/usb/udc.c ****         return false;
 1664              		.loc 1 969 8 view .LVU505
 1665 03e8 0028     		cmp	r0, #0
 1666 03ea 3FF442AE 		beq	.L124
 974:tmk_core/protocol/arm_atsam/usb/udc.c **** }
 1667              		.loc 1 974 5 is_stmt 1 view .LVU506
 974:tmk_core/protocol/arm_atsam/usb/udc.c **** }
 1668              		.loc 1 974 12 is_stmt 0 view .LVU507
 1669 03ee B368     		ldr	r3, [r6, #8]
 1670 03f0 9847     		blx	r3
 1671              	.LVL110:
 974:tmk_core/protocol/arm_atsam/usb/udc.c **** }
 1672              		.loc 1 974 12 view .LVU508
 1673              	.LBE107:
 1674              	.LBE106:
1040:tmk_core/protocol/arm_atsam/usb/udc.c ****             return true;
 1675              		.loc 1 1040 12 view .LVU509
 1676 03f2 0028     		cmp	r0, #0
 1677 03f4 7FF481AE 		bne	.L178
 1678 03f8 3BE6     		b	.L124
 1679              	.L184:
 1680 03fa 00BF     		.align	2
 1681              	.L183:
 1682 03fc 00000000 		.word	udc_config
 1683 0400 00000000 		.word	.LANCHOR0
 1684              		.cfi_endproc
 1685              	.LFE42:
 1687              		.global	bootloader_serial_number
 1688              		.global	usb_device_serial_name_size
 1689              		.data
 1690              		.align	2
 1691              		.set	.LANCHOR1,. + 0
 1694              	udc_string_product_name:
 1695 0000 4354524C 		.ascii	"CTRL Keyboard\000"
 1695      204B6579 
 1695      626F6172 
 1695      6400
 1698              	udc_string_manufacturer_name:
 1699 000e 4D617373 		.ascii	"Massdrop Inc.\000"
 1699      64726F70 
 1699      20496E63 
 1699      2E00
 1702              	udc_string_desc_languageid:
 1703 001c 04       		.byte	4
 1704 001d 03       		.byte	3
 1705 001e 0904     		.short	1033
 1708              	udc_string_desc:
 1709 0020 00       		.space	1
 1710 0021 03       		.byte	3
 1711 0022 00000000 		.space	40
 1711      00000000 
 1711      00000000 
 1711      00000000 
 1711      00000000 
 1712              		.bss
 1713              		.align	2
 1714              		.set	.LANCHOR0,. + 0
 1717              	udc_num_configuration:
 1718 0000 00       		.space	1
 1719 0001 000000   		.space	3
 1722              	udc_ptr_conf:
 1723 0004 00000000 		.space	4
 1726              	udc_ptr_iface:
 1727 0008 00000000 		.space	4
 1730              	udc_device_status:
 1731 000c 0000     		.space	2
 1734              	bootloader_serial_number:
 1735 000e 00000000 		.space	21
 1735      00000000 
 1735      00000000 
 1735      00000000 
 1735      00000000 
 1738              	usb_device_serial_name_size:
 1739 0023 00       		.space	1
 1742              	udc_iface_setting:
 1743 0024 00       		.space	1
 1744 0025 00       		.space	1
 1747              	udc_ep_status.7651:
 1748 0026 0000     		.space	2
 1749              		.section	.rodata.str1.1,"aMS",%progbits,1
 1750              	.LC0:
 1751 0000 556E6176 		.ascii	"Unavailable\000"
 1751      61696C61 
 1751      626C6500 
 1752              		.text
 1753              	.Letext0:
 1754              		.file 2 "/usr/local/Cellar/arm-gcc-bin@8/8-2019-q3-update/arm-none-eabi/include/machine/_default_t
 1755              		.file 3 "/usr/local/Cellar/arm-gcc-bin@8/8-2019-q3-update/lib/gcc/arm-none-eabi/8.3.1/include/stdd
 1756              		.file 4 "/usr/local/Cellar/arm-gcc-bin@8/8-2019-q3-update/arm-none-eabi/include/sys/_types.h"
 1757              		.file 5 "/usr/local/Cellar/arm-gcc-bin@8/8-2019-q3-update/arm-none-eabi/include/sys/reent.h"
 1758              		.file 6 "/usr/local/Cellar/arm-gcc-bin@8/8-2019-q3-update/arm-none-eabi/include/sys/lock.h"
 1759              		.file 7 "/usr/local/Cellar/arm-gcc-bin@8/8-2019-q3-update/arm-none-eabi/include/sys/_stdint.h"
 1760              		.file 8 "/usr/local/Cellar/arm-gcc-bin@8/8-2019-q3-update/arm-none-eabi/include/stdlib.h"
 1761              		.file 9 "tmk_core/protocol/arm_atsam/usb/compiler.h"
 1762              		.file 10 "tmk_core/protocol/arm_atsam/usb/usb_protocol.h"
 1763              		.file 11 "tmk_core/protocol/arm_atsam/usb/udi_device_conf.h"
 1764              		.file 12 "tmk_core/protocol/arm_atsam/usb/udi.h"
 1765              		.file 13 "tmk_core/protocol/arm_atsam/usb/udc_desc.h"
 1766              		.file 14 "tmk_core/protocol/arm_atsam/usb/udi_hid_kbd.h"
 1767              		.file 15 "tmk_core/protocol/arm_atsam/usb/usb_main.h"
 1768              		.file 16 "tmk_core/protocol/arm_atsam/usb/udd.h"
 1769              		.file 17 "tmk_core/protocol/arm_atsam/md_bootloader.h"