Archive member included to satisfy reference by file (symbol)

/usr/local/Cellar/arm-gcc-bin@8/8-2019-q3-update/bin/../lib/gcc/arm-none-eabi/8.3.1/thumb/v7e-m+fp/hard/libgcc.a(_arm_addsubdf3.o)
                              .build/obj_massdrop_ctrl_greyasteroid/protocol/arm_atsam/main_arm_atsam.o (__aeabi_dadd)
/usr/local/Cellar/arm-gcc-bin@8/8-2019-q3-update/bin/../lib/gcc/arm-none-eabi/8.3.1/thumb/v7e-m+fp/hard/libgcc.a(_arm_muldivdf3.o)
                              .build/obj_massdrop_ctrl_greyasteroid/protocol/arm_atsam/main_arm_atsam.o (__aeabi_dmul)
/usr/local/Cellar/arm-gcc-bin@8/8-2019-q3-update/bin/../lib/gcc/arm-none-eabi/8.3.1/thumb/v7e-m+fp/hard/libgcc.a(_arm_fixunsdfsi.o)
                              .build/obj_massdrop_ctrl_greyasteroid/protocol/arm_atsam/main_arm_atsam.o (__aeabi_d2uiz)
/usr/local/Cellar/arm-gcc-bin@8/8-2019-q3-update/bin/../lib/gcc/arm-none-eabi/8.3.1/thumb/v7e-m+fp/hard/libgcc.a(_aeabi_ldivmod.o)
                              .build/obj_massdrop_ctrl_greyasteroid/protocol/arm_atsam/usb/usb_util.o (__aeabi_ldivmod)
/usr/local/Cellar/arm-gcc-bin@8/8-2019-q3-update/bin/../lib/gcc/arm-none-eabi/8.3.1/thumb/v7e-m+fp/hard/libgcc.a(_aeabi_uldivmod.o)
                              .build/obj_massdrop_ctrl_greyasteroid/protocol/arm_atsam/usb/usb2422.o (__aeabi_uldivmod)
/usr/local/Cellar/arm-gcc-bin@8/8-2019-q3-update/bin/../lib/gcc/arm-none-eabi/8.3.1/thumb/v7e-m+fp/hard/libgcc.a(_udivmoddi4.o)
                              /usr/local/Cellar/arm-gcc-bin@8/8-2019-q3-update/bin/../lib/gcc/arm-none-eabi/8.3.1/thumb/v7e-m+fp/hard/libgcc.a(_aeabi_ldivmod.o) (__udivmoddi4)
/usr/local/Cellar/arm-gcc-bin@8/8-2019-q3-update/bin/../lib/gcc/arm-none-eabi/8.3.1/thumb/v7e-m+fp/hard/libgcc.a(_dvmd_tls.o)
                              /usr/local/Cellar/arm-gcc-bin@8/8-2019-q3-update/bin/../lib/gcc/arm-none-eabi/8.3.1/thumb/v7e-m+fp/hard/libgcc.a(_aeabi_ldivmod.o) (__aeabi_ldiv0)
/usr/local/Cellar/arm-gcc-bin@8/8-2019-q3-update/bin/../lib/gcc/arm-none-eabi/8.3.1/../../../../arm-none-eabi/lib/thumb/v7e-m+fp/hard/libg.a(lib_a-ctype_.o)
                              .build/obj_massdrop_ctrl_greyasteroid/quantum/quantum.o (_ctype_)
/usr/local/Cellar/arm-gcc-bin@8/8-2019-q3-update/bin/../lib/gcc/arm-none-eabi/8.3.1/../../../../arm-none-eabi/lib/thumb/v7e-m+fp/hard/libg.a(lib_a-exit.o)
                              /usr/local/Cellar/arm-gcc-bin@8/8-2019-q3-update/bin/../lib/gcc/arm-none-eabi/8.3.1/../../../../arm-none-eabi/lib/thumb/v7e-m+fp/hard/rdimon-crt0.o (exit)
/usr/local/Cellar/arm-gcc-bin@8/8-2019-q3-update/bin/../lib/gcc/arm-none-eabi/8.3.1/../../../../arm-none-eabi/lib/thumb/v7e-m+fp/hard/libg.a(lib_a-impure.o)
                              /usr/local/Cellar/arm-gcc-bin@8/8-2019-q3-update/bin/../lib/gcc/arm-none-eabi/8.3.1/../../../../arm-none-eabi/lib/thumb/v7e-m+fp/hard/libg.a(lib_a-exit.o) (_global_impure_ptr)
/usr/local/Cellar/arm-gcc-bin@8/8-2019-q3-update/bin/../lib/gcc/arm-none-eabi/8.3.1/../../../../arm-none-eabi/lib/thumb/v7e-m+fp/hard/libg.a(lib_a-init.o)
                              /usr/local/Cellar/arm-gcc-bin@8/8-2019-q3-update/bin/../lib/gcc/arm-none-eabi/8.3.1/../../../../arm-none-eabi/lib/thumb/v7e-m+fp/hard/rdimon-crt0.o (__libc_init_array)
/usr/local/Cellar/arm-gcc-bin@8/8-2019-q3-update/bin/../lib/gcc/arm-none-eabi/8.3.1/../../../../arm-none-eabi/lib/thumb/v7e-m+fp/hard/libg.a(lib_a-memcpy.o)
                              .build/obj_massdrop_ctrl_greyasteroid/quantum/rgb_matrix.o (memcpy)
/usr/local/Cellar/arm-gcc-bin@8/8-2019-q3-update/bin/../lib/gcc/arm-none-eabi/8.3.1/../../../../arm-none-eabi/lib/thumb/v7e-m+fp/hard/libg.a(lib_a-memset.o)
                              /usr/local/Cellar/arm-gcc-bin@8/8-2019-q3-update/bin/../lib/gcc/arm-none-eabi/8.3.1/../../../../arm-none-eabi/lib/thumb/v7e-m+fp/hard/rdimon-crt0.o (memset)
/usr/local/Cellar/arm-gcc-bin@8/8-2019-q3-update/bin/../lib/gcc/arm-none-eabi/8.3.1/../../../../arm-none-eabi/lib/thumb/v7e-m+fp/hard/libg.a(lib_a-rand.o)
                              .build/obj_massdrop_ctrl_greyasteroid/quantum/quantum.o (rand)
/usr/local/Cellar/arm-gcc-bin@8/8-2019-q3-update/bin/../lib/gcc/arm-none-eabi/8.3.1/../../../../arm-none-eabi/lib/thumb/v7e-m+fp/hard/libg.a(lib_a-__call_atexit.o)
                              /usr/local/Cellar/arm-gcc-bin@8/8-2019-q3-update/bin/../lib/gcc/arm-none-eabi/8.3.1/../../../../arm-none-eabi/lib/thumb/v7e-m+fp/hard/libg.a(lib_a-exit.o) (__call_exitprocs)
/usr/local/Cellar/arm-gcc-bin@8/8-2019-q3-update/bin/../lib/gcc/arm-none-eabi/8.3.1/../../../../arm-none-eabi/lib/thumb/v7e-m+fp/hard/libg.a(lib_a-atexit.o)
                              /usr/local/Cellar/arm-gcc-bin@8/8-2019-q3-update/bin/../lib/gcc/arm-none-eabi/8.3.1/../../../../arm-none-eabi/lib/thumb/v7e-m+fp/hard/libg.a(lib_a-__call_atexit.o) (atexit)
/usr/local/Cellar/arm-gcc-bin@8/8-2019-q3-update/bin/../lib/gcc/arm-none-eabi/8.3.1/../../../../arm-none-eabi/lib/thumb/v7e-m+fp/hard/libg.a(lib_a-fini.o)
                              /usr/local/Cellar/arm-gcc-bin@8/8-2019-q3-update/bin/../lib/gcc/arm-none-eabi/8.3.1/../../../../arm-none-eabi/lib/thumb/v7e-m+fp/hard/libg.a(lib_a-__call_atexit.o) (__libc_fini_array)
/usr/local/Cellar/arm-gcc-bin@8/8-2019-q3-update/bin/../lib/gcc/arm-none-eabi/8.3.1/../../../../arm-none-eabi/lib/thumb/v7e-m+fp/hard/libg.a(lib_a-lock.o)
                              /usr/local/Cellar/arm-gcc-bin@8/8-2019-q3-update/bin/../lib/gcc/arm-none-eabi/8.3.1/../../../../arm-none-eabi/lib/thumb/v7e-m+fp/hard/libg.a(lib_a-__call_atexit.o) (__retarget_lock_acquire_recursive)
/usr/local/Cellar/arm-gcc-bin@8/8-2019-q3-update/bin/../lib/gcc/arm-none-eabi/8.3.1/../../../../arm-none-eabi/lib/thumb/v7e-m+fp/hard/libg.a(lib_a-__atexit.o)
                              /usr/local/Cellar/arm-gcc-bin@8/8-2019-q3-update/bin/../lib/gcc/arm-none-eabi/8.3.1/../../../../arm-none-eabi/lib/thumb/v7e-m+fp/hard/libg.a(lib_a-atexit.o) (__register_exitproc)
/usr/local/Cellar/arm-gcc-bin@8/8-2019-q3-update/bin/../lib/gcc/arm-none-eabi/8.3.1/../../../../arm-none-eabi/lib/thumb/v7e-m+fp/hard/librdimon.a(rdimon-syscalls.o)
                              /usr/local/Cellar/arm-gcc-bin@8/8-2019-q3-update/bin/../lib/gcc/arm-none-eabi/8.3.1/../../../../arm-none-eabi/lib/thumb/v7e-m+fp/hard/rdimon-crt0.o (initialise_monitor_handles)
/usr/local/Cellar/arm-gcc-bin@8/8-2019-q3-update/bin/../lib/gcc/arm-none-eabi/8.3.1/../../../../arm-none-eabi/lib/thumb/v7e-m+fp/hard/librdimon.a(rdimon-_exit.o)
                              /usr/local/Cellar/arm-gcc-bin@8/8-2019-q3-update/bin/../lib/gcc/arm-none-eabi/8.3.1/../../../../arm-none-eabi/lib/thumb/v7e-m+fp/hard/libg.a(lib_a-exit.o) (_exit)
/usr/local/Cellar/arm-gcc-bin@8/8-2019-q3-update/bin/../lib/gcc/arm-none-eabi/8.3.1/../../../../arm-none-eabi/lib/thumb/v7e-m+fp/hard/librdimon.a(rdimon-_kill.o)
                              /usr/local/Cellar/arm-gcc-bin@8/8-2019-q3-update/bin/../lib/gcc/arm-none-eabi/8.3.1/../../../../arm-none-eabi/lib/thumb/v7e-m+fp/hard/librdimon.a(rdimon-_exit.o) (_kill_shared)
/usr/local/Cellar/arm-gcc-bin@8/8-2019-q3-update/bin/../lib/gcc/arm-none-eabi/8.3.1/../../../../arm-none-eabi/lib/thumb/v7e-m+fp/hard/libc.a(lib_a-errno.o)
                              /usr/local/Cellar/arm-gcc-bin@8/8-2019-q3-update/bin/../lib/gcc/arm-none-eabi/8.3.1/../../../../arm-none-eabi/lib/thumb/v7e-m+fp/hard/librdimon.a(rdimon-syscalls.o) (__errno)
/usr/local/Cellar/arm-gcc-bin@8/8-2019-q3-update/bin/../lib/gcc/arm-none-eabi/8.3.1/../../../../arm-none-eabi/lib/thumb/v7e-m+fp/hard/libc.a(lib_a-findfp.o)
                              /usr/local/Cellar/arm-gcc-bin@8/8-2019-q3-update/bin/../lib/gcc/arm-none-eabi/8.3.1/../../../../arm-none-eabi/lib/thumb/v7e-m+fp/hard/librdimon.a(rdimon-syscalls.o) (__sinit)
/usr/local/Cellar/arm-gcc-bin@8/8-2019-q3-update/bin/../lib/gcc/arm-none-eabi/8.3.1/../../../../arm-none-eabi/lib/thumb/v7e-m+fp/hard/libc.a(lib_a-fwalk.o)
                              /usr/local/Cellar/arm-gcc-bin@8/8-2019-q3-update/bin/../lib/gcc/arm-none-eabi/8.3.1/../../../../arm-none-eabi/lib/thumb/v7e-m+fp/hard/libc.a(lib_a-findfp.o) (_fwalk)
/usr/local/Cellar/arm-gcc-bin@8/8-2019-q3-update/bin/../lib/gcc/arm-none-eabi/8.3.1/../../../../arm-none-eabi/lib/thumb/v7e-m+fp/hard/libc.a(lib_a-mallocr.o)
                              /usr/local/Cellar/arm-gcc-bin@8/8-2019-q3-update/bin/../lib/gcc/arm-none-eabi/8.3.1/../../../../arm-none-eabi/lib/thumb/v7e-m+fp/hard/libc.a(lib_a-findfp.o) (_malloc_r)
/usr/local/Cellar/arm-gcc-bin@8/8-2019-q3-update/bin/../lib/gcc/arm-none-eabi/8.3.1/../../../../arm-none-eabi/lib/thumb/v7e-m+fp/hard/libc.a(lib_a-mlock.o)
                              /usr/local/Cellar/arm-gcc-bin@8/8-2019-q3-update/bin/../lib/gcc/arm-none-eabi/8.3.1/../../../../arm-none-eabi/lib/thumb/v7e-m+fp/hard/libc.a(lib_a-mallocr.o) (__malloc_lock)
/usr/local/Cellar/arm-gcc-bin@8/8-2019-q3-update/bin/../lib/gcc/arm-none-eabi/8.3.1/../../../../arm-none-eabi/lib/thumb/v7e-m+fp/hard/libc.a(lib_a-sbrkr.o)
                              /usr/local/Cellar/arm-gcc-bin@8/8-2019-q3-update/bin/../lib/gcc/arm-none-eabi/8.3.1/../../../../arm-none-eabi/lib/thumb/v7e-m+fp/hard/libc.a(lib_a-mallocr.o) (_sbrk_r)
/usr/local/Cellar/arm-gcc-bin@8/8-2019-q3-update/bin/../lib/gcc/arm-none-eabi/8.3.1/../../../../arm-none-eabi/lib/thumb/v7e-m+fp/hard/libc.a(lib_a-stdio.o)
                              /usr/local/Cellar/arm-gcc-bin@8/8-2019-q3-update/bin/../lib/gcc/arm-none-eabi/8.3.1/../../../../arm-none-eabi/lib/thumb/v7e-m+fp/hard/libc.a(lib_a-findfp.o) (__sread)
/usr/local/Cellar/arm-gcc-bin@8/8-2019-q3-update/bin/../lib/gcc/arm-none-eabi/8.3.1/../../../../arm-none-eabi/lib/thumb/v7e-m+fp/hard/libc.a(lib_a-strlen.o)
                              /usr/local/Cellar/arm-gcc-bin@8/8-2019-q3-update/bin/../lib/gcc/arm-none-eabi/8.3.1/../../../../arm-none-eabi/lib/thumb/v7e-m+fp/hard/librdimon.a(rdimon-syscalls.o) (strlen)
/usr/local/Cellar/arm-gcc-bin@8/8-2019-q3-update/bin/../lib/gcc/arm-none-eabi/8.3.1/../../../../arm-none-eabi/lib/thumb/v7e-m+fp/hard/libc.a(lib_a-writer.o)
                              /usr/local/Cellar/arm-gcc-bin@8/8-2019-q3-update/bin/../lib/gcc/arm-none-eabi/8.3.1/../../../../arm-none-eabi/lib/thumb/v7e-m+fp/hard/libc.a(lib_a-stdio.o) (_write_r)
/usr/local/Cellar/arm-gcc-bin@8/8-2019-q3-update/bin/../lib/gcc/arm-none-eabi/8.3.1/../../../../arm-none-eabi/lib/thumb/v7e-m+fp/hard/libc.a(lib_a-closer.o)
                              /usr/local/Cellar/arm-gcc-bin@8/8-2019-q3-update/bin/../lib/gcc/arm-none-eabi/8.3.1/../../../../arm-none-eabi/lib/thumb/v7e-m+fp/hard/libc.a(lib_a-stdio.o) (_close_r)
/usr/local/Cellar/arm-gcc-bin@8/8-2019-q3-update/bin/../lib/gcc/arm-none-eabi/8.3.1/../../../../arm-none-eabi/lib/thumb/v7e-m+fp/hard/libc.a(lib_a-fclose.o)
                              /usr/local/Cellar/arm-gcc-bin@8/8-2019-q3-update/bin/../lib/gcc/arm-none-eabi/8.3.1/../../../../arm-none-eabi/lib/thumb/v7e-m+fp/hard/libc.a(lib_a-findfp.o) (_fclose_r)
/usr/local/Cellar/arm-gcc-bin@8/8-2019-q3-update/bin/../lib/gcc/arm-none-eabi/8.3.1/../../../../arm-none-eabi/lib/thumb/v7e-m+fp/hard/libc.a(lib_a-fflush.o)
                              /usr/local/Cellar/arm-gcc-bin@8/8-2019-q3-update/bin/../lib/gcc/arm-none-eabi/8.3.1/../../../../arm-none-eabi/lib/thumb/v7e-m+fp/hard/libc.a(lib_a-fclose.o) (__sflush_r)
/usr/local/Cellar/arm-gcc-bin@8/8-2019-q3-update/bin/../lib/gcc/arm-none-eabi/8.3.1/../../../../arm-none-eabi/lib/thumb/v7e-m+fp/hard/libc.a(lib_a-freer.o)
                              /usr/local/Cellar/arm-gcc-bin@8/8-2019-q3-update/bin/../lib/gcc/arm-none-eabi/8.3.1/../../../../arm-none-eabi/lib/thumb/v7e-m+fp/hard/libc.a(lib_a-mallocr.o) (_free_r)
/usr/local/Cellar/arm-gcc-bin@8/8-2019-q3-update/bin/../lib/gcc/arm-none-eabi/8.3.1/../../../../arm-none-eabi/lib/thumb/v7e-m+fp/hard/libc.a(lib_a-lseekr.o)
                              /usr/local/Cellar/arm-gcc-bin@8/8-2019-q3-update/bin/../lib/gcc/arm-none-eabi/8.3.1/../../../../arm-none-eabi/lib/thumb/v7e-m+fp/hard/libc.a(lib_a-stdio.o) (_lseek_r)
/usr/local/Cellar/arm-gcc-bin@8/8-2019-q3-update/bin/../lib/gcc/arm-none-eabi/8.3.1/../../../../arm-none-eabi/lib/thumb/v7e-m+fp/hard/libc.a(lib_a-readr.o)
                              /usr/local/Cellar/arm-gcc-bin@8/8-2019-q3-update/bin/../lib/gcc/arm-none-eabi/8.3.1/../../../../arm-none-eabi/lib/thumb/v7e-m+fp/hard/libc.a(lib_a-stdio.o) (_read_r)
/usr/local/Cellar/arm-gcc-bin@8/8-2019-q3-update/bin/../lib/gcc/arm-none-eabi/8.3.1/../../../../arm-none-eabi/lib/thumb/v7e-m+fp/hard/libc.a(lib_a-reent.o)
                              /usr/local/Cellar/arm-gcc-bin@8/8-2019-q3-update/bin/../lib/gcc/arm-none-eabi/8.3.1/../../../../arm-none-eabi/lib/thumb/v7e-m+fp/hard/libc.a(lib_a-sbrkr.o) (errno)

Allocating common symbols
Common symbol       size              file

dmac_desc_wb        0x10              .build/obj_massdrop_ctrl_greyasteroid/matrix.o
inbuf               0xc               .build/obj_massdrop_ctrl_greyasteroid/protocol/arm_atsam/usb/udi_cdc.o
usb_gcr_auto        0x1               .build/obj_massdrop_ctrl_greyasteroid/protocol/arm_atsam/usb/usb2422.o
udd_ep_out_cache_buffer
                    0x100             .build/obj_massdrop_ctrl_greyasteroid/protocol/arm_atsam/usb/usb_device_udd.o
usec_delay_mult     0x4               .build/obj_massdrop_ctrl_greyasteroid/protocol/arm_atsam/clks.o
usb_descriptor_table
                    0x100             .build/obj_massdrop_ctrl_greyasteroid/protocol/arm_atsam/usb/usb.o
__lock___atexit_recursive_mutex
                    0x1               /usr/local/Cellar/arm-gcc-bin@8/8-2019-q3-update/bin/../lib/gcc/arm-none-eabi/8.3.1/../../../../arm-none-eabi/lib/thumb/v7e-m+fp/hard/libg.a(lib_a-lock.o)
udi_hid_nkro_b_report_valid
                    0x1               .build/obj_massdrop_ctrl_greyasteroid/protocol/arm_atsam/usb/udi_hid_kbd.o
rgb_matrix_config   0x8               .build/obj_massdrop_ctrl_greyasteroid/quantum/rgb_matrix.o
keymap_config       0x2               .build/obj_massdrop_ctrl_greyasteroid/common/magic.o
__lock___arc4random_mutex
                    0x1               /usr/local/Cellar/arm-gcc-bin@8/8-2019-q3-update/bin/../lib/gcc/arm-none-eabi/8.3.1/../../../../arm-none-eabi/lib/thumb/v7e-m+fp/hard/libg.a(lib_a-lock.o)
printbuf            0x1               .build/obj_massdrop_ctrl_greyasteroid/protocol/arm_atsam/usb/udi_cdc.o
errno               0x4               /usr/local/Cellar/arm-gcc-bin@8/8-2019-q3-update/bin/../lib/gcc/arm-none-eabi/8.3.1/../../../../arm-none-eabi/lib/thumb/v7e-m+fp/hard/libc.a(lib_a-reent.o)
usb_device          0xb4              .build/obj_massdrop_ctrl_greyasteroid/protocol/arm_atsam/usb/usb_device_udd.o
udi_hid_kbd_report  0x8               .build/obj_massdrop_ctrl_greyasteroid/protocol/arm_atsam/usb/udi_hid_kbd.o
row_masks           0x8               .build/obj_massdrop_ctrl_greyasteroid/matrix.o
led_states          0x1               .build/obj_massdrop_ctrl_greyasteroid/protocol/arm_atsam/main_arm_atsam.o
udi_hid_kbd_b_report_valid
                    0x1               .build/obj_massdrop_ctrl_greyasteroid/protocol/arm_atsam/usb/udi_hid_kbd.o
i2c0_buf            0x22              .build/obj_massdrop_ctrl_greyasteroid/protocol/arm_atsam/usb/usb2422.o
v_con_1_boot        0x2               .build/obj_massdrop_ctrl_greyasteroid/protocol/arm_atsam/adc.o
issidrv             0x3c2             .build/obj_massdrop_ctrl_greyasteroid/protocol/arm_atsam/led_matrix.o
__lock___env_recursive_mutex
                    0x1               /usr/local/Cellar/arm-gcc-bin@8/8-2019-q3-update/bin/../lib/gcc/arm-none-eabi/8.3.1/../../../../arm-none-eabi/lib/thumb/v7e-m+fp/hard/libg.a(lib_a-lock.o)
led_buffer          0x165             .build/obj_massdrop_ctrl_greyasteroid/protocol/arm_atsam/led_matrix.o
i2c_led_q_running   0x1               .build/obj_massdrop_ctrl_greyasteroid/protocol/arm_atsam/i2c_master.o
__lock___sinit_recursive_mutex
                    0x1               /usr/local/Cellar/arm-gcc-bin@8/8-2019-q3-update/bin/../lib/gcc/arm-none-eabi/8.3.1/../../../../arm-none-eabi/lib/thumb/v7e-m+fp/hard/libg.a(lib_a-lock.o)
sr_exp_data         0x2               .build/obj_massdrop_ctrl_greyasteroid/protocol/arm_atsam/spi.o
gcr_desired         0x1               .build/obj_massdrop_ctrl_greyasteroid/protocol/arm_atsam/led_matrix.o
debug_code          0x4               .build/obj_massdrop_ctrl_greyasteroid/protocol/arm_atsam/d51_util.o
mdebounced          0xb               .build/obj_massdrop_ctrl_greyasteroid/matrix.o
v_con_1             0x2               .build/obj_massdrop_ctrl_greyasteroid/protocol/arm_atsam/adc.o
udi_hid_kbd_b_report_trans_ongoing
                    0x1               .build/obj_massdrop_ctrl_greyasteroid/protocol/arm_atsam/usb/udi_hid_kbd.o
__lock___malloc_recursive_mutex
                    0x1               /usr/local/Cellar/arm-gcc-bin@8/8-2019-q3-update/bin/../lib/gcc/arm-none-eabi/8.3.1/../../../../arm-none-eabi/lib/thumb/v7e-m+fp/hard/libg.a(lib_a-lock.o)
g_rgb_timer         0x4               .build/obj_massdrop_ctrl_greyasteroid/quantum/rgb_matrix.o
udi_hid_exk_b_report_valid
                    0x1               .build/obj_massdrop_ctrl_greyasteroid/protocol/arm_atsam/usb/udi_hid_kbd.o
usb_extra_state     0x1               .build/obj_massdrop_ctrl_greyasteroid/protocol/arm_atsam/usb/usb2422.o
udi_hid_nkro_b_report_trans_ongoing
                    0x1               .build/obj_massdrop_ctrl_greyasteroid/protocol/arm_atsam/usb/udi_hid_kbd.o
mlatest             0xb               .build/obj_massdrop_ctrl_greyasteroid/matrix.o
udi_hid_exk_report_set
                    0x1               .build/obj_massdrop_ctrl_greyasteroid/protocol/arm_atsam/usb/udi_hid_kbd.o
mlast               0xb               .build/obj_massdrop_ctrl_greyasteroid/matrix.o
udi_hid_nkro_report
                    0x20              .build/obj_massdrop_ctrl_greyasteroid/protocol/arm_atsam/usb/udi_hid_kbd.o
system_clks         0x68              .build/obj_massdrop_ctrl_greyasteroid/protocol/arm_atsam/clks.o
udd_g_ctrlreq       0x18              .build/obj_massdrop_ctrl_greyasteroid/protocol/arm_atsam/usb/usb_device_udd.o
gcr_actual          0x1               .build/obj_massdrop_ctrl_greyasteroid/protocol/arm_atsam/led_matrix.o
v_con_2             0x2               .build/obj_massdrop_ctrl_greyasteroid/protocol/arm_atsam/adc.o
ms_clk              0x8               .build/obj_massdrop_ctrl_greyasteroid/protocol/arm_atsam/clks.o
usb_extra_manual    0x1               .build/obj_massdrop_ctrl_greyasteroid/protocol/arm_atsam/usb/usb2422.o
udi_hid_exk_report  0x3               .build/obj_massdrop_ctrl_greyasteroid/protocol/arm_atsam/usb/udi_hid_kbd.o
tp_buttons          0x4               .build/obj_massdrop_ctrl_greyasteroid/common/action.o
v_con_2_boot        0x2               .build/obj_massdrop_ctrl_greyasteroid/protocol/arm_atsam/adc.o
v_5v                0x2               .build/obj_massdrop_ctrl_greyasteroid/protocol/arm_atsam/adc.o
dmac_desc           0x10              .build/obj_massdrop_ctrl_greyasteroid/matrix.o
g_last_hit_tracker  0x29              .build/obj_massdrop_ctrl_greyasteroid/quantum/rgb_matrix.o
adc_extra           0x2               .build/obj_massdrop_ctrl_greyasteroid/protocol/arm_atsam/usb/usb2422.o
udi_hid_nkro_report_set
                    0x1               .build/obj_massdrop_ctrl_greyasteroid/protocol/arm_atsam/usb/udi_hid_kbd.o
usb_host_port       0x1               .build/obj_massdrop_ctrl_greyasteroid/protocol/arm_atsam/usb/usb2422.o
__lock___at_quick_exit_mutex
                    0x1               /usr/local/Cellar/arm-gcc-bin@8/8-2019-q3-update/bin/../lib/gcc/arm-none-eabi/8.3.1/../../../../arm-none-eabi/lib/thumb/v7e-m+fp/hard/libg.a(lib_a-lock.o)
gcr_actual_last     0x1               .build/obj_massdrop_ctrl_greyasteroid/protocol/arm_atsam/led_matrix.o
__lock___dd_hash_mutex
                    0x1               /usr/local/Cellar/arm-gcc-bin@8/8-2019-q3-update/bin/../lib/gcc/arm-none-eabi/8.3.1/../../../../arm-none-eabi/lib/thumb/v7e-m+fp/hard/libg.a(lib_a-lock.o)
__lock___tz_mutex   0x1               /usr/local/Cellar/arm-gcc-bin@8/8-2019-q3-update/bin/../lib/gcc/arm-none-eabi/8.3.1/../../../../arm-none-eabi/lib/thumb/v7e-m+fp/hard/libg.a(lib_a-lock.o)
udd_ctrl_buffer     0x8               .build/obj_massdrop_ctrl_greyasteroid/protocol/arm_atsam/usb/usb_device_udd.o
udi_hid_kbd_report_set
                    0x1               .build/obj_massdrop_ctrl_greyasteroid/protocol/arm_atsam/usb/udi_hid_kbd.o
USB2422_shadow      0x100             .build/obj_massdrop_ctrl_greyasteroid/protocol/arm_atsam/usb/usb2422.o
__lock___sfp_recursive_mutex
                    0x1               /usr/local/Cellar/arm-gcc-bin@8/8-2019-q3-update/bin/../lib/gcc/arm-none-eabi/8.3.1/../../../../arm-none-eabi/lib/thumb/v7e-m+fp/hard/libg.a(lib_a-lock.o)
v_5v_avg            0x2               .build/obj_massdrop_ctrl_greyasteroid/protocol/arm_atsam/adc.o

Discarded input sections

 .text          0x0000000000000000        0x0 /usr/local/Cellar/arm-gcc-bin@8/8-2019-q3-update/bin/../lib/gcc/arm-none-eabi/8.3.1/thumb/v7e-m+fp/hard/crti.o
 .data          0x0000000000000000        0x0 /usr/local/Cellar/arm-gcc-bin@8/8-2019-q3-update/bin/../lib/gcc/arm-none-eabi/8.3.1/thumb/v7e-m+fp/hard/crti.o
 .bss           0x0000000000000000        0x0 /usr/local/Cellar/arm-gcc-bin@8/8-2019-q3-update/bin/../lib/gcc/arm-none-eabi/8.3.1/thumb/v7e-m+fp/hard/crti.o
 .data          0x0000000000000000        0x4 /usr/local/Cellar/arm-gcc-bin@8/8-2019-q3-update/bin/../lib/gcc/arm-none-eabi/8.3.1/thumb/v7e-m+fp/hard/crtbegin.o
 .text          0x0000000000000000       0xe8 /usr/local/Cellar/arm-gcc-bin@8/8-2019-q3-update/bin/../lib/gcc/arm-none-eabi/8.3.1/../../../../arm-none-eabi/lib/thumb/v7e-m+fp/hard/rdimon-crt0.o
 .data          0x0000000000000000      0x118 /usr/local/Cellar/arm-gcc-bin@8/8-2019-q3-update/bin/../lib/gcc/arm-none-eabi/8.3.1/../../../../arm-none-eabi/lib/thumb/v7e-m+fp/hard/rdimon-crt0.o
 .bss           0x0000000000000000        0x0 /usr/local/Cellar/arm-gcc-bin@8/8-2019-q3-update/bin/../lib/gcc/arm-none-eabi/8.3.1/../../../../arm-none-eabi/lib/thumb/v7e-m+fp/hard/rdimon-crt0.o
 .ARM.extab     0x0000000000000000        0x0 /usr/local/Cellar/arm-gcc-bin@8/8-2019-q3-update/bin/../lib/gcc/arm-none-eabi/8.3.1/../../../../arm-none-eabi/lib/thumb/v7e-m+fp/hard/rdimon-crt0.o
 .ARM.exidx     0x0000000000000000        0x8 /usr/local/Cellar/arm-gcc-bin@8/8-2019-q3-update/bin/../lib/gcc/arm-none-eabi/8.3.1/../../../../arm-none-eabi/lib/thumb/v7e-m+fp/hard/rdimon-crt0.o
 .ARM.attributes
                0x0000000000000000       0x1c /usr/local/Cellar/arm-gcc-bin@8/8-2019-q3-update/bin/../lib/gcc/arm-none-eabi/8.3.1/../../../../arm-none-eabi/lib/thumb/v7e-m+fp/hard/rdimon-crt0.o
 .text          0x0000000000000000        0x0 .build/obj_massdrop_ctrl_greyasteroid/matrix.o
 .text          0x0000000000000000        0x0 .build/obj_massdrop_ctrl_greyasteroid/config_led.o
 .bss           0x0000000000000000        0x0 .build/obj_massdrop_ctrl_greyasteroid/config_led.o
 .text          0x0000000000000000        0x0 .build/obj_massdrop_ctrl_greyasteroid/keyboards/massdrop/ctrl/keymaps/greyasteroid/keymap.o
 .data          0x0000000000000000        0x0 .build/obj_massdrop_ctrl_greyasteroid/keyboards/massdrop/ctrl/keymaps/greyasteroid/keymap.o
 .bss           0x0000000000000000        0x0 .build/obj_massdrop_ctrl_greyasteroid/keyboards/massdrop/ctrl/keymaps/greyasteroid/keymap.o
 .text          0x0000000000000000        0x0 .build/obj_massdrop_ctrl_greyasteroid/quantum/quantum.o
 .data          0x0000000000000000        0x0 .build/obj_massdrop_ctrl_greyasteroid/quantum/quantum.o
 .bss           0x0000000000000000        0x0 .build/obj_massdrop_ctrl_greyasteroid/quantum/quantum.o
 .text.do_code16
                0x0000000000000000       0x60 .build/obj_massdrop_ctrl_greyasteroid/quantum/quantum.o
 .text.register_code16
                0x0000000000000000       0x2c .build/obj_massdrop_ctrl_greyasteroid/quantum/quantum.o
 .text.unregister_code16
                0x0000000000000000       0x2c .build/obj_massdrop_ctrl_greyasteroid/quantum/quantum.o
 .text.tap_code16
                0x0000000000000000       0x12 .build/obj_massdrop_ctrl_greyasteroid/quantum/quantum.o
 .text.send_char
                0x0000000000000000       0x58 .build/obj_massdrop_ctrl_greyasteroid/quantum/quantum.o
 .text.send_string_with_delay
                0x0000000000000000       0x9c .build/obj_massdrop_ctrl_greyasteroid/quantum/quantum.o
 .text.send_string
                0x0000000000000000        0x6 .build/obj_massdrop_ctrl_greyasteroid/quantum/quantum.o
 .text.send_string_P
                0x0000000000000000        0x4 .build/obj_massdrop_ctrl_greyasteroid/quantum/quantum.o
 .text.send_string_with_delay_P
                0x0000000000000000        0x4 .build/obj_massdrop_ctrl_greyasteroid/quantum/quantum.o
 .text.set_single_persistent_default_layer
                0x0000000000000000       0x16 .build/obj_massdrop_ctrl_greyasteroid/quantum/quantum.o
 .text.update_tri_layer_state
                0x0000000000000000       0x1e .build/obj_massdrop_ctrl_greyasteroid/quantum/quantum.o
 .text.update_tri_layer
                0x0000000000000000       0x1c .build/obj_massdrop_ctrl_greyasteroid/quantum/quantum.o
 .text.tap_random_base64
                0x0000000000000000       0x82 .build/obj_massdrop_ctrl_greyasteroid/quantum/quantum.o
 .text.send_nibble
                0x0000000000000000       0x3e .build/obj_massdrop_ctrl_greyasteroid/quantum/quantum.o
 .text.send_byte
                0x0000000000000000       0x16 .build/obj_massdrop_ctrl_greyasteroid/quantum/quantum.o
 .text.send_word
                0x0000000000000000       0x14 .build/obj_massdrop_ctrl_greyasteroid/quantum/quantum.o
 .text.send_dword
                0x0000000000000000       0x14 .build/obj_massdrop_ctrl_greyasteroid/quantum/quantum.o
 .text.hex_to_keycode
                0x0000000000000000       0x18 .build/obj_massdrop_ctrl_greyasteroid/quantum/quantum.o
 .text.api_send_unicode
                0x0000000000000000        0x2 .build/obj_massdrop_ctrl_greyasteroid/quantum/quantum.o
 .text.led_init_ports
                0x0000000000000000        0x2 .build/obj_massdrop_ctrl_greyasteroid/quantum/quantum.o
 .text.startup_user
                0x0000000000000000        0x2 .build/obj_massdrop_ctrl_greyasteroid/quantum/quantum.o
 .rodata        0x0000000000000000       0xa0 .build/obj_massdrop_ctrl_greyasteroid/quantum/quantum.o
 .text          0x0000000000000000        0x0 .build/obj_massdrop_ctrl_greyasteroid/quantum/keymap_common.o
 .data          0x0000000000000000        0x0 .build/obj_massdrop_ctrl_greyasteroid/quantum/keymap_common.o
 .bss           0x0000000000000000        0x0 .build/obj_massdrop_ctrl_greyasteroid/quantum/keymap_common.o
 .text          0x0000000000000000        0x0 .build/obj_massdrop_ctrl_greyasteroid/quantum/keycode_config.o
 .data          0x0000000000000000        0x0 .build/obj_massdrop_ctrl_greyasteroid/quantum/keycode_config.o
 .bss           0x0000000000000000        0x0 .build/obj_massdrop_ctrl_greyasteroid/quantum/keycode_config.o
 .text          0x0000000000000000        0x0 .build/obj_massdrop_ctrl_greyasteroid/quantum/debounce/sym_g.o
 .data          0x0000000000000000        0x0 .build/obj_massdrop_ctrl_greyasteroid/quantum/debounce/sym_g.o
 .bss           0x0000000000000000        0x4 .build/obj_massdrop_ctrl_greyasteroid/quantum/debounce/sym_g.o
 .text.debounce_init
                0x0000000000000000        0x2 .build/obj_massdrop_ctrl_greyasteroid/quantum/debounce/sym_g.o
 .text.debounce
                0x0000000000000000       0x40 .build/obj_massdrop_ctrl_greyasteroid/quantum/debounce/sym_g.o
 .text.debounce_active
                0x0000000000000000        0xc .build/obj_massdrop_ctrl_greyasteroid/quantum/debounce/sym_g.o
 .debug_info    0x0000000000000000     0x1132 .build/obj_massdrop_ctrl_greyasteroid/quantum/debounce/sym_g.o
 .debug_abbrev  0x0000000000000000      0x2c9 .build/obj_massdrop_ctrl_greyasteroid/quantum/debounce/sym_g.o
 .debug_loc     0x0000000000000000       0xa3 .build/obj_massdrop_ctrl_greyasteroid/quantum/debounce/sym_g.o
 .debug_aranges
                0x0000000000000000       0x30 .build/obj_massdrop_ctrl_greyasteroid/quantum/debounce/sym_g.o
 .debug_ranges  0x0000000000000000       0x38 .build/obj_massdrop_ctrl_greyasteroid/quantum/debounce/sym_g.o
 .debug_line    0x0000000000000000      0x3a4 .build/obj_massdrop_ctrl_greyasteroid/quantum/debounce/sym_g.o
 .debug_str     0x0000000000000000      0xa09 .build/obj_massdrop_ctrl_greyasteroid/quantum/debounce/sym_g.o
 .comment       0x0000000000000000       0x77 .build/obj_massdrop_ctrl_greyasteroid/quantum/debounce/sym_g.o
 .debug_frame   0x0000000000000000       0x58 .build/obj_massdrop_ctrl_greyasteroid/quantum/debounce/sym_g.o
 .ARM.attributes
                0x0000000000000000       0x34 .build/obj_massdrop_ctrl_greyasteroid/quantum/debounce/sym_g.o
 .text          0x0000000000000000        0x0 .build/obj_massdrop_ctrl_greyasteroid/common/arm_atsam/eeprom.o
 .data          0x0000000000000000        0x0 .build/obj_massdrop_ctrl_greyasteroid/common/arm_atsam/eeprom.o
 .text.eeprom_write_byte
                0x0000000000000000        0xc .build/obj_massdrop_ctrl_greyasteroid/common/arm_atsam/eeprom.o
 .text.eeprom_read_dword
                0x0000000000000000       0x20 .build/obj_massdrop_ctrl_greyasteroid/common/arm_atsam/eeprom.o
 .text          0x0000000000000000        0x0 .build/obj_massdrop_ctrl_greyasteroid/quantum/color.o
 .data          0x0000000000000000        0x0 .build/obj_massdrop_ctrl_greyasteroid/quantum/color.o
 .bss           0x0000000000000000        0x0 .build/obj_massdrop_ctrl_greyasteroid/quantum/color.o
 .text          0x0000000000000000        0x0 .build/obj_massdrop_ctrl_greyasteroid/quantum/rgb_matrix.o
 .text.sqrt16   0x0000000000000000       0x44 .build/obj_massdrop_ctrl_greyasteroid/quantum/rgb_matrix.o
 .text.sin8_C   0x0000000000000000       0x40 .build/obj_massdrop_ctrl_greyasteroid/quantum/rgb_matrix.o
 .text.eeconfig_debug_rgb_matrix
                0x0000000000000000        0x2 .build/obj_massdrop_ctrl_greyasteroid/quantum/rgb_matrix.o
 .text.effect_runner_dx_dy_dist
                0x0000000000000000       0xe4 .build/obj_massdrop_ctrl_greyasteroid/quantum/rgb_matrix.o
 .text.effect_runner_dx_dy
                0x0000000000000000       0xc0 .build/obj_massdrop_ctrl_greyasteroid/quantum/rgb_matrix.o
 .text.effect_runner_i
                0x0000000000000000       0xa8 .build/obj_massdrop_ctrl_greyasteroid/quantum/rgb_matrix.o
 .text.effect_runner_sin_cos_i
                0x0000000000000000       0xc8 .build/obj_massdrop_ctrl_greyasteroid/quantum/rgb_matrix.o
 .text.effect_runner_reactive
                0x0000000000000000       0xdc .build/obj_massdrop_ctrl_greyasteroid/quantum/rgb_matrix.o
 .text.effect_runner_reactive_splash
                0x0000000000000000      0x130 .build/obj_massdrop_ctrl_greyasteroid/quantum/rgb_matrix.o
 .text.rgb_matrix_test
                0x0000000000000000       0x38 .build/obj_massdrop_ctrl_greyasteroid/quantum/rgb_matrix.o
 .text.rgb_matrix_indicators_kb
                0x0000000000000000        0x2 .build/obj_massdrop_ctrl_greyasteroid/quantum/rgb_matrix.o
 .text.rgb_matrix_set_suspend_state
                0x0000000000000000        0xc .build/obj_massdrop_ctrl_greyasteroid/quantum/rgb_matrix.o
 .text.rgb_matrix_get_suspend_state
                0x0000000000000000        0xc .build/obj_massdrop_ctrl_greyasteroid/quantum/rgb_matrix.o
 .text.rgb_matrix_enable_noeeprom
                0x0000000000000000       0x24 .build/obj_massdrop_ctrl_greyasteroid/quantum/rgb_matrix.o
 .text.rgb_matrix_enable
                0x0000000000000000        0xe .build/obj_massdrop_ctrl_greyasteroid/quantum/rgb_matrix.o
 .text.rgb_matrix_disable_noeeprom
                0x0000000000000000       0x20 .build/obj_massdrop_ctrl_greyasteroid/quantum/rgb_matrix.o
 .text.rgb_matrix_disable
                0x0000000000000000        0xe .build/obj_massdrop_ctrl_greyasteroid/quantum/rgb_matrix.o
 .text.rgb_matrix_is_enabled
                0x0000000000000000       0x10 .build/obj_massdrop_ctrl_greyasteroid/quantum/rgb_matrix.o
 .text.rgb_matrix_get_speed
                0x0000000000000000        0xc .build/obj_massdrop_ctrl_greyasteroid/quantum/rgb_matrix.o
 .text.rgb_matrix_get_flags
                0x0000000000000000        0xc .build/obj_massdrop_ctrl_greyasteroid/quantum/rgb_matrix.o
 .text.rgb_matrix_set_flags
                0x0000000000000000        0xc .build/obj_massdrop_ctrl_greyasteroid/quantum/rgb_matrix.o
 .text.rgb_matrix_mode_noeeprom
                0x0000000000000000       0x10 .build/obj_massdrop_ctrl_greyasteroid/quantum/rgb_matrix.o
 .text.rgb_matrix_get_mode
                0x0000000000000000        0xc .build/obj_massdrop_ctrl_greyasteroid/quantum/rgb_matrix.o
 .text.rgb_matrix_sethsv
                0x0000000000000000       0x10 .build/obj_massdrop_ctrl_greyasteroid/quantum/rgb_matrix.o
 .text.rgb_matrix_sethsv_noeeprom
                0x0000000000000000       0x10 .build/obj_massdrop_ctrl_greyasteroid/quantum/rgb_matrix.o
 .text.rgb_matrix_get_hsv
                0x0000000000000000       0x2c .build/obj_massdrop_ctrl_greyasteroid/quantum/rgb_matrix.o
 .text.rgb_matrix_get_hue
                0x0000000000000000        0xc .build/obj_massdrop_ctrl_greyasteroid/quantum/rgb_matrix.o
 .text.rgb_matrix_get_sat
                0x0000000000000000        0xc .build/obj_massdrop_ctrl_greyasteroid/quantum/rgb_matrix.o
 .text.rgb_matrix_get_val
                0x0000000000000000        0xc .build/obj_massdrop_ctrl_greyasteroid/quantum/rgb_matrix.o
 .text          0x0000000000000000        0x0 .build/obj_massdrop_ctrl_greyasteroid/quantum/rgb_matrix_drivers.o
 .data          0x0000000000000000        0x0 .build/obj_massdrop_ctrl_greyasteroid/quantum/rgb_matrix_drivers.o
 .bss           0x0000000000000000        0x0 .build/obj_massdrop_ctrl_greyasteroid/quantum/rgb_matrix_drivers.o
 .debug_info    0x0000000000000000     0x100c .build/obj_massdrop_ctrl_greyasteroid/quantum/rgb_matrix_drivers.o
 .debug_abbrev  0x0000000000000000      0x208 .build/obj_massdrop_ctrl_greyasteroid/quantum/rgb_matrix_drivers.o
 .debug_aranges
                0x0000000000000000       0x18 .build/obj_massdrop_ctrl_greyasteroid/quantum/rgb_matrix_drivers.o
 .debug_line    0x0000000000000000      0x2a4 .build/obj_massdrop_ctrl_greyasteroid/quantum/rgb_matrix_drivers.o
 .debug_str     0x0000000000000000      0x98d .build/obj_massdrop_ctrl_greyasteroid/quantum/rgb_matrix_drivers.o
 .comment       0x0000000000000000       0x77 .build/obj_massdrop_ctrl_greyasteroid/quantum/rgb_matrix_drivers.o
 .ARM.attributes
                0x0000000000000000       0x39 .build/obj_massdrop_ctrl_greyasteroid/quantum/rgb_matrix_drivers.o
 .text          0x0000000000000000        0x0 .build/obj_massdrop_ctrl_greyasteroid/quantum/process_keycode/process_rgb.o
 .data          0x0000000000000000        0x0 .build/obj_massdrop_ctrl_greyasteroid/quantum/process_keycode/process_rgb.o
 .bss           0x0000000000000000        0x0 .build/obj_massdrop_ctrl_greyasteroid/quantum/process_keycode/process_rgb.o
 .text.rgb_matrix_toggle
                0x0000000000000000        0x2 .build/obj_massdrop_ctrl_greyasteroid/quantum/process_keycode/process_rgb.o
 .text.rgb_matrix_step
                0x0000000000000000        0x2 .build/obj_massdrop_ctrl_greyasteroid/quantum/process_keycode/process_rgb.o
 .text.rgb_matrix_step_reverse
                0x0000000000000000        0x2 .build/obj_massdrop_ctrl_greyasteroid/quantum/process_keycode/process_rgb.o
 .text.rgb_matrix_increase_hue
                0x0000000000000000        0x2 .build/obj_massdrop_ctrl_greyasteroid/quantum/process_keycode/process_rgb.o
 .text.rgb_matrix_decrease_hue
                0x0000000000000000        0x2 .build/obj_massdrop_ctrl_greyasteroid/quantum/process_keycode/process_rgb.o
 .text.rgb_matrix_increase_sat
                0x0000000000000000        0x2 .build/obj_massdrop_ctrl_greyasteroid/quantum/process_keycode/process_rgb.o
 .text.rgb_matrix_decrease_sat
                0x0000000000000000        0x2 .build/obj_massdrop_ctrl_greyasteroid/quantum/process_keycode/process_rgb.o
 .text.rgb_matrix_increase_val
                0x0000000000000000        0x2 .build/obj_massdrop_ctrl_greyasteroid/quantum/process_keycode/process_rgb.o
 .text.rgb_matrix_decrease_val
                0x0000000000000000        0x2 .build/obj_massdrop_ctrl_greyasteroid/quantum/process_keycode/process_rgb.o
 .text.rgb_matrix_increase_speed
                0x0000000000000000        0x2 .build/obj_massdrop_ctrl_greyasteroid/quantum/process_keycode/process_rgb.o
 .text.rgb_matrix_decrease_speed
                0x0000000000000000        0x2 .build/obj_massdrop_ctrl_greyasteroid/quantum/process_keycode/process_rgb.o
 .text          0x0000000000000000        0x0 .build/obj_massdrop_ctrl_greyasteroid/quantum/led_tables.o
 .data          0x0000000000000000        0x0 .build/obj_massdrop_ctrl_greyasteroid/quantum/led_tables.o
 .bss           0x0000000000000000        0x0 .build/obj_massdrop_ctrl_greyasteroid/quantum/led_tables.o
 .text          0x0000000000000000        0x0 .build/obj_massdrop_ctrl_greyasteroid/quantum/process_keycode/process_space_cadet.o
 .data          0x0000000000000000        0x0 .build/obj_massdrop_ctrl_greyasteroid/quantum/process_keycode/process_space_cadet.o
 .text          0x0000000000000000        0x0 .build/obj_massdrop_ctrl_greyasteroid/quantum/process_keycode/process_magic.o
 .data          0x0000000000000000        0x0 .build/obj_massdrop_ctrl_greyasteroid/quantum/process_keycode/process_magic.o
 .bss           0x0000000000000000        0x0 .build/obj_massdrop_ctrl_greyasteroid/quantum/process_keycode/process_magic.o
 .text          0x0000000000000000        0x0 .build/obj_massdrop_ctrl_greyasteroid/quantum/process_keycode/process_grave_esc.o
 .data          0x0000000000000000        0x0 .build/obj_massdrop_ctrl_greyasteroid/quantum/process_keycode/process_grave_esc.o
 .text          0x0000000000000000        0x0 .build/obj_massdrop_ctrl_greyasteroid/common/host.o
 .data          0x0000000000000000        0x0 .build/obj_massdrop_ctrl_greyasteroid/common/host.o
 .text.host_get_driver
                0x0000000000000000        0xc .build/obj_massdrop_ctrl_greyasteroid/common/host.o
 .text.host_keyboard_led_state
                0x0000000000000000       0x14 .build/obj_massdrop_ctrl_greyasteroid/common/host.o
 .text.host_mouse_send
                0x0000000000000000       0x10 .build/obj_massdrop_ctrl_greyasteroid/common/host.o
 .text.host_last_system_report
                0x0000000000000000        0xc .build/obj_massdrop_ctrl_greyasteroid/common/host.o
 .text.host_last_consumer_report
                0x0000000000000000        0xc .build/obj_massdrop_ctrl_greyasteroid/common/host.o
 .text          0x0000000000000000        0x0 .build/obj_massdrop_ctrl_greyasteroid/common/keyboard.o
 .data          0x0000000000000000        0x0 .build/obj_massdrop_ctrl_greyasteroid/common/keyboard.o
 .text.disable_jtag
                0x0000000000000000        0x2 .build/obj_massdrop_ctrl_greyasteroid/common/keyboard.o
 .text.keyboard_set_leds
                0x0000000000000000        0x4 .build/obj_massdrop_ctrl_greyasteroid/common/keyboard.o
 .text          0x0000000000000000        0x0 .build/obj_massdrop_ctrl_greyasteroid/common/action.o
 .data          0x0000000000000000        0x0 .build/obj_massdrop_ctrl_greyasteroid/common/action.o
 .text.process_record_quantum
                0x0000000000000000        0x4 .build/obj_massdrop_ctrl_greyasteroid/common/action.o
 .text.post_process_record_quantum
                0x0000000000000000        0x2 .build/obj_massdrop_ctrl_greyasteroid/common/action.o
 .text.process_record_nocache
                0x0000000000000000       0x18 .build/obj_massdrop_ctrl_greyasteroid/common/action.o
 .text.register_weak_mods
                0x0000000000000000       0x12 .build/obj_massdrop_ctrl_greyasteroid/common/action.o
 .text.unregister_weak_mods
                0x0000000000000000       0x12 .build/obj_massdrop_ctrl_greyasteroid/common/action.o
 .text.debug_action
                0x0000000000000000        0x2 .build/obj_massdrop_ctrl_greyasteroid/common/action.o
 COMMON         0x0000000000000000        0x4 .build/obj_massdrop_ctrl_greyasteroid/common/action.o
 .text          0x0000000000000000        0x0 .build/obj_massdrop_ctrl_greyasteroid/common/action_tapping.o
 .data          0x0000000000000000        0x0 .build/obj_massdrop_ctrl_greyasteroid/common/action_tapping.o
 .text.get_tapping_term
                0x0000000000000000        0x4 .build/obj_massdrop_ctrl_greyasteroid/common/action_tapping.o
 .text          0x0000000000000000        0x0 .build/obj_massdrop_ctrl_greyasteroid/common/action_macro.o
 .data          0x0000000000000000        0x0 .build/obj_massdrop_ctrl_greyasteroid/common/action_macro.o
 .bss           0x0000000000000000        0x0 .build/obj_massdrop_ctrl_greyasteroid/common/action_macro.o
 .text          0x0000000000000000        0x0 .build/obj_massdrop_ctrl_greyasteroid/common/action_layer.o
 .data          0x0000000000000000        0x0 .build/obj_massdrop_ctrl_greyasteroid/common/action_layer.o
 .text.layer_state_cmp
                0x0000000000000000       0x12 .build/obj_massdrop_ctrl_greyasteroid/common/action_layer.o
 .text.layer_state_is
                0x0000000000000000       0x10 .build/obj_massdrop_ctrl_greyasteroid/common/action_layer.o
 .text          0x0000000000000000        0x0 .build/obj_massdrop_ctrl_greyasteroid/common/action_util.o
 .text.get_oneshot_locked_mods
                0x0000000000000000        0xc .build/obj_massdrop_ctrl_greyasteroid/common/action_util.o
 .text.has_oneshot_mods_timed_out
                0x0000000000000000        0x4 .build/obj_massdrop_ctrl_greyasteroid/common/action_util.o
 .text.set_mods
                0x0000000000000000        0xc .build/obj_massdrop_ctrl_greyasteroid/common/action_util.o
 .text.get_weak_mods
                0x0000000000000000        0xc .build/obj_massdrop_ctrl_greyasteroid/common/action_util.o
 .text.set_weak_mods
                0x0000000000000000        0xc .build/obj_massdrop_ctrl_greyasteroid/common/action_util.o
 .text.get_macro_mods
                0x0000000000000000        0xc .build/obj_massdrop_ctrl_greyasteroid/common/action_util.o
 .text.set_macro_mods
                0x0000000000000000        0xc .build/obj_massdrop_ctrl_greyasteroid/common/action_util.o
 .text.oneshot_locked_mods_changed_user
                0x0000000000000000        0x2 .build/obj_massdrop_ctrl_greyasteroid/common/action_util.o
 .text.oneshot_locked_mods_changed_kb
                0x0000000000000000        0x8 .build/obj_massdrop_ctrl_greyasteroid/common/action_util.o
 .text.set_oneshot_locked_mods
                0x0000000000000000       0x18 .build/obj_massdrop_ctrl_greyasteroid/common/action_util.o
 .text.clear_oneshot_locked_mods
                0x0000000000000000       0x18 .build/obj_massdrop_ctrl_greyasteroid/common/action_util.o
 .text.has_anymod
                0x0000000000000000        0xc .build/obj_massdrop_ctrl_greyasteroid/common/action_util.o
 .text          0x0000000000000000        0x0 .build/obj_massdrop_ctrl_greyasteroid/common/print.o
 .data          0x0000000000000000        0x0 .build/obj_massdrop_ctrl_greyasteroid/common/print.o
 .bss           0x0000000000000000        0x0 .build/obj_massdrop_ctrl_greyasteroid/common/print.o
 .debug_info    0x0000000000000000       0x64 .build/obj_massdrop_ctrl_greyasteroid/common/print.o
 .debug_abbrev  0x0000000000000000       0x26 .build/obj_massdrop_ctrl_greyasteroid/common/print.o
 .debug_aranges
                0x0000000000000000       0x18 .build/obj_massdrop_ctrl_greyasteroid/common/print.o
 .debug_line    0x0000000000000000       0x1d .build/obj_massdrop_ctrl_greyasteroid/common/print.o
 .debug_str     0x0000000000000000      0x1da .build/obj_massdrop_ctrl_greyasteroid/common/print.o
 .comment       0x0000000000000000       0x77 .build/obj_massdrop_ctrl_greyasteroid/common/print.o
 .ARM.attributes
                0x0000000000000000       0x39 .build/obj_massdrop_ctrl_greyasteroid/common/print.o
 .text          0x0000000000000000        0x0 .build/obj_massdrop_ctrl_greyasteroid/common/debug.o
 .data          0x0000000000000000        0x0 .build/obj_massdrop_ctrl_greyasteroid/common/debug.o
 .text          0x0000000000000000        0x0 .build/obj_massdrop_ctrl_greyasteroid/common/sendchar_null.o
 .data          0x0000000000000000        0x0 .build/obj_massdrop_ctrl_greyasteroid/common/sendchar_null.o
 .bss           0x0000000000000000        0x0 .build/obj_massdrop_ctrl_greyasteroid/common/sendchar_null.o
 .text.sendchar
                0x0000000000000000        0x4 .build/obj_massdrop_ctrl_greyasteroid/common/sendchar_null.o
 .debug_info    0x0000000000000000       0xc5 .build/obj_massdrop_ctrl_greyasteroid/common/sendchar_null.o
 .debug_abbrev  0x0000000000000000       0x69 .build/obj_massdrop_ctrl_greyasteroid/common/sendchar_null.o
 .debug_loc     0x0000000000000000       0x25 .build/obj_massdrop_ctrl_greyasteroid/common/sendchar_null.o
 .debug_aranges
                0x0000000000000000       0x20 .build/obj_massdrop_ctrl_greyasteroid/common/sendchar_null.o
 .debug_ranges  0x0000000000000000       0x10 .build/obj_massdrop_ctrl_greyasteroid/common/sendchar_null.o
 .debug_line    0x0000000000000000      0x114 .build/obj_massdrop_ctrl_greyasteroid/common/sendchar_null.o
 .debug_str     0x0000000000000000      0x20d .build/obj_massdrop_ctrl_greyasteroid/common/sendchar_null.o
 .comment       0x0000000000000000       0x77 .build/obj_massdrop_ctrl_greyasteroid/common/sendchar_null.o
 .debug_frame   0x0000000000000000       0x20 .build/obj_massdrop_ctrl_greyasteroid/common/sendchar_null.o
 .ARM.attributes
                0x0000000000000000       0x34 .build/obj_massdrop_ctrl_greyasteroid/common/sendchar_null.o
 .text          0x0000000000000000        0x0 .build/obj_massdrop_ctrl_greyasteroid/common/util.o
 .data          0x0000000000000000        0x0 .build/obj_massdrop_ctrl_greyasteroid/common/util.o
 .bss           0x0000000000000000        0x0 .build/obj_massdrop_ctrl_greyasteroid/common/util.o
 .text.bitpop   0x0000000000000000       0x12 .build/obj_massdrop_ctrl_greyasteroid/common/util.o
 .text.bitpop16
                0x0000000000000000       0x12 .build/obj_massdrop_ctrl_greyasteroid/common/util.o
 .text.bitpop32
                0x0000000000000000       0x12 .build/obj_massdrop_ctrl_greyasteroid/common/util.o
 .text.biton    0x0000000000000000       0x1e .build/obj_massdrop_ctrl_greyasteroid/common/util.o
 .text.biton16  0x0000000000000000       0x30 .build/obj_massdrop_ctrl_greyasteroid/common/util.o
 .text.biton32  0x0000000000000000       0x34 .build/obj_massdrop_ctrl_greyasteroid/common/util.o
 .text.bitrev   0x0000000000000000       0x26 .build/obj_massdrop_ctrl_greyasteroid/common/util.o
 .text.bitrev16
                0x0000000000000000       0x1a .build/obj_massdrop_ctrl_greyasteroid/common/util.o
 .text.bitrev32
                0x0000000000000000       0x18 .build/obj_massdrop_ctrl_greyasteroid/common/util.o
 .debug_info    0x0000000000000000      0x310 .build/obj_massdrop_ctrl_greyasteroid/common/util.o
 .debug_abbrev  0x0000000000000000       0xbf .build/obj_massdrop_ctrl_greyasteroid/common/util.o
 .debug_loc     0x0000000000000000     0x1137 .build/obj_massdrop_ctrl_greyasteroid/common/util.o
 .debug_aranges
                0x0000000000000000       0x60 .build/obj_massdrop_ctrl_greyasteroid/common/util.o
 .debug_ranges  0x0000000000000000       0x50 .build/obj_massdrop_ctrl_greyasteroid/common/util.o
 .debug_line    0x0000000000000000      0x36f .build/obj_massdrop_ctrl_greyasteroid/common/util.o
 .debug_str     0x0000000000000000      0x260 .build/obj_massdrop_ctrl_greyasteroid/common/util.o
 .comment       0x0000000000000000       0x77 .build/obj_massdrop_ctrl_greyasteroid/common/util.o
 .debug_frame   0x0000000000000000       0xbc .build/obj_massdrop_ctrl_greyasteroid/common/util.o
 .ARM.attributes
                0x0000000000000000       0x34 .build/obj_massdrop_ctrl_greyasteroid/common/util.o
 .text          0x0000000000000000        0x0 .build/obj_massdrop_ctrl_greyasteroid/common/eeconfig.o
 .data          0x0000000000000000        0x0 .build/obj_massdrop_ctrl_greyasteroid/common/eeconfig.o
 .bss           0x0000000000000000        0x0 .build/obj_massdrop_ctrl_greyasteroid/common/eeconfig.o
 .text.eeconfig_enable
                0x0000000000000000        0xa .build/obj_massdrop_ctrl_greyasteroid/common/eeconfig.o
 .text.eeconfig_disable
                0x0000000000000000        0xa .build/obj_massdrop_ctrl_greyasteroid/common/eeconfig.o
 .text.eeconfig_is_disabled
                0x0000000000000000       0x14 .build/obj_massdrop_ctrl_greyasteroid/common/eeconfig.o
 .text.eeconfig_update_debug
                0x0000000000000000        0x8 .build/obj_massdrop_ctrl_greyasteroid/common/eeconfig.o
 .text.eeconfig_update_default_layer
                0x0000000000000000        0x8 .build/obj_massdrop_ctrl_greyasteroid/common/eeconfig.o
 .text.eeconfig_read_backlight
                0x0000000000000000        0x6 .build/obj_massdrop_ctrl_greyasteroid/common/eeconfig.o
 .text.eeconfig_update_backlight
                0x0000000000000000        0x8 .build/obj_massdrop_ctrl_greyasteroid/common/eeconfig.o
 .text.eeconfig_read_audio
                0x0000000000000000        0x6 .build/obj_massdrop_ctrl_greyasteroid/common/eeconfig.o
 .text.eeconfig_update_audio
                0x0000000000000000        0x8 .build/obj_massdrop_ctrl_greyasteroid/common/eeconfig.o
 .text.eeconfig_read_kb
                0x0000000000000000        0x6 .build/obj_massdrop_ctrl_greyasteroid/common/eeconfig.o
 .text.eeconfig_read_user
                0x0000000000000000        0x6 .build/obj_massdrop_ctrl_greyasteroid/common/eeconfig.o
 .text.eeconfig_read_haptic
                0x0000000000000000        0x6 .build/obj_massdrop_ctrl_greyasteroid/common/eeconfig.o
 .text.eeconfig_update_haptic
                0x0000000000000000        0x8 .build/obj_massdrop_ctrl_greyasteroid/common/eeconfig.o
 .text.eeconfig_read_handedness
                0x0000000000000000       0x10 .build/obj_massdrop_ctrl_greyasteroid/common/eeconfig.o
 .text          0x0000000000000000        0x0 .build/obj_massdrop_ctrl_greyasteroid/common/report.o
 .data          0x0000000000000000        0x0 .build/obj_massdrop_ctrl_greyasteroid/common/report.o
 .bss           0x0000000000000000        0x0 .build/obj_massdrop_ctrl_greyasteroid/common/report.o
 .text.get_first_key
                0x0000000000000000       0x44 .build/obj_massdrop_ctrl_greyasteroid/common/report.o
 .text          0x0000000000000000        0x0 .build/obj_massdrop_ctrl_greyasteroid/common/arm_atsam/suspend.o
 .data          0x0000000000000000        0x0 .build/obj_massdrop_ctrl_greyasteroid/common/arm_atsam/suspend.o
 .bss           0x0000000000000000        0x0 .build/obj_massdrop_ctrl_greyasteroid/common/arm_atsam/suspend.o
 .text.suspend_idle
                0x0000000000000000        0x2 .build/obj_massdrop_ctrl_greyasteroid/common/arm_atsam/suspend.o
 .text          0x0000000000000000        0x0 .build/obj_massdrop_ctrl_greyasteroid/common/arm_atsam/timer.o
 .data          0x0000000000000000        0x0 .build/obj_massdrop_ctrl_greyasteroid/common/arm_atsam/timer.o
 .bss           0x0000000000000000        0x0 .build/obj_massdrop_ctrl_greyasteroid/common/arm_atsam/timer.o
 .text.set_time
                0x0000000000000000        0xc .build/obj_massdrop_ctrl_greyasteroid/common/arm_atsam/timer.o
 .text          0x0000000000000000        0x0 .build/obj_massdrop_ctrl_greyasteroid/common/arm_atsam/bootloader.o
 .data          0x0000000000000000        0x0 .build/obj_massdrop_ctrl_greyasteroid/common/arm_atsam/bootloader.o
 .bss           0x0000000000000000        0x0 .build/obj_massdrop_ctrl_greyasteroid/common/arm_atsam/bootloader.o
 .text          0x0000000000000000        0x0 .build/obj_massdrop_ctrl_greyasteroid/common/arm_atsam/printf.o
 .data          0x0000000000000000        0x0 .build/obj_massdrop_ctrl_greyasteroid/common/arm_atsam/printf.o
 .bss           0x0000000000000000        0x0 .build/obj_massdrop_ctrl_greyasteroid/common/arm_atsam/printf.o
 .debug_line    0x0000000000000000        0x0 .build/obj_massdrop_ctrl_greyasteroid/common/arm_atsam/printf.o
 .debug_str     0x0000000000000000      0x161 .build/obj_massdrop_ctrl_greyasteroid/common/arm_atsam/printf.o
 .comment       0x0000000000000000       0x77 .build/obj_massdrop_ctrl_greyasteroid/common/arm_atsam/printf.o
 .ARM.attributes
                0x0000000000000000       0x39 .build/obj_massdrop_ctrl_greyasteroid/common/arm_atsam/printf.o
 .text          0x0000000000000000        0x0 .build/obj_massdrop_ctrl_greyasteroid/common/magic.o
 .data          0x0000000000000000        0x0 .build/obj_massdrop_ctrl_greyasteroid/common/magic.o
 .bss           0x0000000000000000        0x0 .build/obj_massdrop_ctrl_greyasteroid/common/magic.o
 .text          0x0000000000000000        0x0 .build/obj_massdrop_ctrl_greyasteroid/protocol/arm_atsam/adc.o
 .data          0x0000000000000000        0x0 .build/obj_massdrop_ctrl_greyasteroid/protocol/arm_atsam/adc.o
 .bss           0x0000000000000000        0x0 .build/obj_massdrop_ctrl_greyasteroid/protocol/arm_atsam/adc.o
 .text          0x0000000000000000        0x0 .build/obj_massdrop_ctrl_greyasteroid/protocol/arm_atsam/clks.o
 .data          0x0000000000000000        0x0 .build/obj_massdrop_ctrl_greyasteroid/protocol/arm_atsam/clks.o
 .bss           0x0000000000000000        0x0 .build/obj_massdrop_ctrl_greyasteroid/protocol/arm_atsam/clks.o
 .text          0x0000000000000000        0x0 .build/obj_massdrop_ctrl_greyasteroid/protocol/arm_atsam/d51_util.o
 .data          0x0000000000000000        0x0 .build/obj_massdrop_ctrl_greyasteroid/protocol/arm_atsam/d51_util.o
 .text.dbg_print
                0x0000000000000000       0xdc .build/obj_massdrop_ctrl_greyasteroid/protocol/arm_atsam/d51_util.o
 .text          0x0000000000000000        0x0 .build/obj_massdrop_ctrl_greyasteroid/protocol/arm_atsam/i2c_master.o
 .data          0x0000000000000000        0x0 .build/obj_massdrop_ctrl_greyasteroid/protocol/arm_atsam/i2c_master.o
 .text.i2c_led_send_GCR
                0x0000000000000000       0x3c .build/obj_massdrop_ctrl_greyasteroid/protocol/arm_atsam/i2c_master.o
 .text.i2c_led_send_onoff
                0x0000000000000000       0x34 .build/obj_massdrop_ctrl_greyasteroid/protocol/arm_atsam/i2c_master.o
 .text.i2c_led_send_pwm
                0x0000000000000000       0x38 .build/obj_massdrop_ctrl_greyasteroid/protocol/arm_atsam/i2c_master.o
 .text          0x0000000000000000        0x0 .build/obj_massdrop_ctrl_greyasteroid/protocol/arm_atsam/led_matrix_programs.o
 .data          0x0000000000000000        0x0 .build/obj_massdrop_ctrl_greyasteroid/protocol/arm_atsam/led_matrix_programs.o
 .bss           0x0000000000000000        0x0 .build/obj_massdrop_ctrl_greyasteroid/protocol/arm_atsam/led_matrix_programs.o
 .debug_line    0x0000000000000000        0x0 .build/obj_massdrop_ctrl_greyasteroid/protocol/arm_atsam/led_matrix_programs.o
 .debug_str     0x0000000000000000      0x170 .build/obj_massdrop_ctrl_greyasteroid/protocol/arm_atsam/led_matrix_programs.o
 .comment       0x0000000000000000       0x77 .build/obj_massdrop_ctrl_greyasteroid/protocol/arm_atsam/led_matrix_programs.o
 .ARM.attributes
                0x0000000000000000       0x39 .build/obj_massdrop_ctrl_greyasteroid/protocol/arm_atsam/led_matrix_programs.o
 .text          0x0000000000000000        0x0 .build/obj_massdrop_ctrl_greyasteroid/protocol/arm_atsam/led_matrix.o
 .text          0x0000000000000000        0x0 .build/obj_massdrop_ctrl_greyasteroid/protocol/arm_atsam/main_arm_atsam.o
 COMMON         0x0000000000000000        0x1 .build/obj_massdrop_ctrl_greyasteroid/protocol/arm_atsam/main_arm_atsam.o
 .text          0x0000000000000000        0x0 .build/obj_massdrop_ctrl_greyasteroid/protocol/arm_atsam/spi.o
 .data          0x0000000000000000        0x0 .build/obj_massdrop_ctrl_greyasteroid/protocol/arm_atsam/spi.o
 .bss           0x0000000000000000        0x0 .build/obj_massdrop_ctrl_greyasteroid/protocol/arm_atsam/spi.o
 .text          0x0000000000000000        0x0 .build/obj_massdrop_ctrl_greyasteroid/protocol/arm_atsam/startup.o
 .data          0x0000000000000000        0x0 .build/obj_massdrop_ctrl_greyasteroid/protocol/arm_atsam/startup.o
 .bss           0x0000000000000000        0x0 .build/obj_massdrop_ctrl_greyasteroid/protocol/arm_atsam/startup.o
 .text          0x0000000000000000        0x0 .build/obj_massdrop_ctrl_greyasteroid/protocol/arm_atsam/usb/main_usb.o
 .text          0x0000000000000000        0x0 .build/obj_massdrop_ctrl_greyasteroid/protocol/arm_atsam/usb/udc.o
 .text.udc_stop
                0x0000000000000000        0xe .build/obj_massdrop_ctrl_greyasteroid/protocol/arm_atsam/usb/udc.o
 .text          0x0000000000000000        0x0 .build/obj_massdrop_ctrl_greyasteroid/protocol/arm_atsam/usb/udi_cdc.o
 .data          0x0000000000000000        0x0 .build/obj_massdrop_ctrl_greyasteroid/protocol/arm_atsam/usb/udi_cdc.o
 .bss           0x0000000000000000        0x0 .build/obj_massdrop_ctrl_greyasteroid/protocol/arm_atsam/usb/udi_cdc.o
 .text.CDC_send
                0x0000000000000000        0x2 .build/obj_massdrop_ctrl_greyasteroid/protocol/arm_atsam/usb/udi_cdc.o
 .text.CDC_printf
                0x0000000000000000        0x8 .build/obj_massdrop_ctrl_greyasteroid/protocol/arm_atsam/usb/udi_cdc.o
 .text.CDC_input
                0x0000000000000000        0x4 .build/obj_massdrop_ctrl_greyasteroid/protocol/arm_atsam/usb/udi_cdc.o
 .text          0x0000000000000000        0x0 .build/obj_massdrop_ctrl_greyasteroid/protocol/arm_atsam/usb/udi_hid.o
 .data          0x0000000000000000        0x0 .build/obj_massdrop_ctrl_greyasteroid/protocol/arm_atsam/usb/udi_hid.o
 .bss           0x0000000000000000        0x0 .build/obj_massdrop_ctrl_greyasteroid/protocol/arm_atsam/usb/udi_hid.o
 .text          0x0000000000000000        0x0 .build/obj_massdrop_ctrl_greyasteroid/protocol/arm_atsam/usb/udi_hid_kbd.o
 .text          0x0000000000000000        0x0 .build/obj_massdrop_ctrl_greyasteroid/protocol/arm_atsam/usb/udi_hid_kbd_desc.o
 .bss           0x0000000000000000        0x0 .build/obj_massdrop_ctrl_greyasteroid/protocol/arm_atsam/usb/udi_hid_kbd_desc.o
 .text          0x0000000000000000        0x0 .build/obj_massdrop_ctrl_greyasteroid/protocol/arm_atsam/usb/ui.o
 .data          0x0000000000000000        0x0 .build/obj_massdrop_ctrl_greyasteroid/protocol/arm_atsam/usb/ui.o
 .bss           0x0000000000000000        0x0 .build/obj_massdrop_ctrl_greyasteroid/protocol/arm_atsam/usb/ui.o
 .text.ui_init  0x0000000000000000        0x2 .build/obj_massdrop_ctrl_greyasteroid/protocol/arm_atsam/usb/ui.o
 .text.ui_kbd_led
                0x0000000000000000        0x2 .build/obj_massdrop_ctrl_greyasteroid/protocol/arm_atsam/usb/ui.o
 .text          0x0000000000000000        0x0 .build/obj_massdrop_ctrl_greyasteroid/protocol/arm_atsam/usb/usb2422.o
 .data          0x0000000000000000        0x0 .build/obj_massdrop_ctrl_greyasteroid/protocol/arm_atsam/usb/usb2422.o
 .bss           0x0000000000000000        0x0 .build/obj_massdrop_ctrl_greyasteroid/protocol/arm_atsam/usb/usb2422.o
 .text          0x0000000000000000        0x0 .build/obj_massdrop_ctrl_greyasteroid/protocol/arm_atsam/usb/usb.o
 .data          0x0000000000000000        0x0 .build/obj_massdrop_ctrl_greyasteroid/protocol/arm_atsam/usb/usb.o
 .text.usb_device_unregister_callback
                0x0000000000000000       0x24 .build/obj_massdrop_ctrl_greyasteroid/protocol/arm_atsam/usb/usb.o
 .text.usb_device_endpoint_is_configured
                0x0000000000000000       0x22 .build/obj_massdrop_ctrl_greyasteroid/protocol/arm_atsam/usb/usb.o
 .text.usb_disable
                0x0000000000000000       0x20 .build/obj_massdrop_ctrl_greyasteroid/protocol/arm_atsam/usb/usb.o
 .text          0x0000000000000000        0x0 .build/obj_massdrop_ctrl_greyasteroid/protocol/arm_atsam/usb/usb_device_udd.o
 .data          0x0000000000000000        0x0 .build/obj_massdrop_ctrl_greyasteroid/protocol/arm_atsam/usb/usb_device_udd.o
 .text.udd_is_high_speed
                0x0000000000000000        0x4 .build/obj_massdrop_ctrl_greyasteroid/protocol/arm_atsam/usb/usb_device_udd.o
 .text.udd_get_micro_frame_number
                0x0000000000000000        0xc .build/obj_massdrop_ctrl_greyasteroid/protocol/arm_atsam/usb/usb_device_udd.o
 .text.udd_ep_wait_stall_clear
                0x0000000000000000       0x50 .build/obj_massdrop_ctrl_greyasteroid/protocol/arm_atsam/usb/usb_device_udd.o
 .text.udd_detach
                0x0000000000000000       0x14 .build/obj_massdrop_ctrl_greyasteroid/protocol/arm_atsam/usb/usb_device_udd.o
 .text.udd_disable
                0x0000000000000000        0x4 .build/obj_massdrop_ctrl_greyasteroid/protocol/arm_atsam/usb/usb_device_udd.o
 .text          0x0000000000000000        0x0 .build/obj_massdrop_ctrl_greyasteroid/protocol/arm_atsam/usb/usb_util.o
 .data          0x0000000000000000        0x0 .build/obj_massdrop_ctrl_greyasteroid/protocol/arm_atsam/usb/usb_util.o
 .bss           0x0000000000000000        0x0 .build/obj_massdrop_ctrl_greyasteroid/protocol/arm_atsam/usb/usb_util.o
 .text.digit    0x0000000000000000        0xe .build/obj_massdrop_ctrl_greyasteroid/protocol/arm_atsam/usb/usb_util.o
 .text.UTIL_ltoa_radix
                0x0000000000000000       0x92 .build/obj_massdrop_ctrl_greyasteroid/protocol/arm_atsam/usb/usb_util.o
 .text.UTIL_ltoa
                0x0000000000000000        0x6 .build/obj_massdrop_ctrl_greyasteroid/protocol/arm_atsam/usb/usb_util.o
 .text.UTIL_itoa
                0x0000000000000000        0xa .build/obj_massdrop_ctrl_greyasteroid/protocol/arm_atsam/usb/usb_util.o
 .text.UTIL_utoa
                0x0000000000000000        0xa .build/obj_massdrop_ctrl_greyasteroid/protocol/arm_atsam/usb/usb_util.o
 .debug_info    0x0000000000000000      0xc1a .build/obj_massdrop_ctrl_greyasteroid/protocol/arm_atsam/usb/usb_util.o
 .debug_abbrev  0x0000000000000000      0x312 .build/obj_massdrop_ctrl_greyasteroid/protocol/arm_atsam/usb/usb_util.o
 .debug_loc     0x0000000000000000      0x282 .build/obj_massdrop_ctrl_greyasteroid/protocol/arm_atsam/usb/usb_util.o
 .debug_aranges
                0x0000000000000000       0x40 .build/obj_massdrop_ctrl_greyasteroid/protocol/arm_atsam/usb/usb_util.o
 .debug_ranges  0x0000000000000000       0x48 .build/obj_massdrop_ctrl_greyasteroid/protocol/arm_atsam/usb/usb_util.o
 .debug_line    0x0000000000000000      0x386 .build/obj_massdrop_ctrl_greyasteroid/protocol/arm_atsam/usb/usb_util.o
 .debug_str     0x0000000000000000      0x6ab .build/obj_massdrop_ctrl_greyasteroid/protocol/arm_atsam/usb/usb_util.o
 .comment       0x0000000000000000       0x77 .build/obj_massdrop_ctrl_greyasteroid/protocol/arm_atsam/usb/usb_util.o
 .debug_frame   0x0000000000000000       0x8c .build/obj_massdrop_ctrl_greyasteroid/protocol/arm_atsam/usb/usb_util.o
 .ARM.attributes
                0x0000000000000000       0x34 .build/obj_massdrop_ctrl_greyasteroid/protocol/arm_atsam/usb/usb_util.o
 .data          0x0000000000000000        0x0 /usr/local/Cellar/arm-gcc-bin@8/8-2019-q3-update/bin/../lib/gcc/arm-none-eabi/8.3.1/thumb/v7e-m+fp/hard/libgcc.a(_arm_addsubdf3.o)
 .bss           0x0000000000000000        0x0 /usr/local/Cellar/arm-gcc-bin@8/8-2019-q3-update/bin/../lib/gcc/arm-none-eabi/8.3.1/thumb/v7e-m+fp/hard/libgcc.a(_arm_addsubdf3.o)
 .data          0x0000000000000000        0x0 /usr/local/Cellar/arm-gcc-bin@8/8-2019-q3-update/bin/../lib/gcc/arm-none-eabi/8.3.1/thumb/v7e-m+fp/hard/libgcc.a(_arm_muldivdf3.o)
 .bss           0x0000000000000000        0x0 /usr/local/Cellar/arm-gcc-bin@8/8-2019-q3-update/bin/../lib/gcc/arm-none-eabi/8.3.1/thumb/v7e-m+fp/hard/libgcc.a(_arm_muldivdf3.o)
 .data          0x0000000000000000        0x0 /usr/local/Cellar/arm-gcc-bin@8/8-2019-q3-update/bin/../lib/gcc/arm-none-eabi/8.3.1/thumb/v7e-m+fp/hard/libgcc.a(_arm_fixunsdfsi.o)
 .bss           0x0000000000000000        0x0 /usr/local/Cellar/arm-gcc-bin@8/8-2019-q3-update/bin/../lib/gcc/arm-none-eabi/8.3.1/thumb/v7e-m+fp/hard/libgcc.a(_arm_fixunsdfsi.o)
 .text          0x0000000000000000       0xa0 /usr/local/Cellar/arm-gcc-bin@8/8-2019-q3-update/bin/../lib/gcc/arm-none-eabi/8.3.1/thumb/v7e-m+fp/hard/libgcc.a(_aeabi_ldivmod.o)
 .data          0x0000000000000000        0x0 /usr/local/Cellar/arm-gcc-bin@8/8-2019-q3-update/bin/../lib/gcc/arm-none-eabi/8.3.1/thumb/v7e-m+fp/hard/libgcc.a(_aeabi_ldivmod.o)
 .bss           0x0000000000000000        0x0 /usr/local/Cellar/arm-gcc-bin@8/8-2019-q3-update/bin/../lib/gcc/arm-none-eabi/8.3.1/thumb/v7e-m+fp/hard/libgcc.a(_aeabi_ldivmod.o)
 .debug_frame   0x0000000000000000       0x44 /usr/local/Cellar/arm-gcc-bin@8/8-2019-q3-update/bin/../lib/gcc/arm-none-eabi/8.3.1/thumb/v7e-m+fp/hard/libgcc.a(_aeabi_ldivmod.o)
 .ARM.attributes
                0x0000000000000000       0x1e /usr/local/Cellar/arm-gcc-bin@8/8-2019-q3-update/bin/../lib/gcc/arm-none-eabi/8.3.1/thumb/v7e-m+fp/hard/libgcc.a(_aeabi_ldivmod.o)
 .data          0x0000000000000000        0x0 /usr/local/Cellar/arm-gcc-bin@8/8-2019-q3-update/bin/../lib/gcc/arm-none-eabi/8.3.1/thumb/v7e-m+fp/hard/libgcc.a(_aeabi_uldivmod.o)
 .bss           0x0000000000000000        0x0 /usr/local/Cellar/arm-gcc-bin@8/8-2019-q3-update/bin/../lib/gcc/arm-none-eabi/8.3.1/thumb/v7e-m+fp/hard/libgcc.a(_aeabi_uldivmod.o)
 .data          0x0000000000000000        0x0 /usr/local/Cellar/arm-gcc-bin@8/8-2019-q3-update/bin/../lib/gcc/arm-none-eabi/8.3.1/thumb/v7e-m+fp/hard/libgcc.a(_udivmoddi4.o)
 .bss           0x0000000000000000        0x0 /usr/local/Cellar/arm-gcc-bin@8/8-2019-q3-update/bin/../lib/gcc/arm-none-eabi/8.3.1/thumb/v7e-m+fp/hard/libgcc.a(_udivmoddi4.o)
 .ARM.extab     0x0000000000000000        0x0 /usr/local/Cellar/arm-gcc-bin@8/8-2019-q3-update/bin/../lib/gcc/arm-none-eabi/8.3.1/thumb/v7e-m+fp/hard/libgcc.a(_udivmoddi4.o)
 .data          0x0000000000000000        0x0 /usr/local/Cellar/arm-gcc-bin@8/8-2019-q3-update/bin/../lib/gcc/arm-none-eabi/8.3.1/thumb/v7e-m+fp/hard/libgcc.a(_dvmd_tls.o)
 .bss           0x0000000000000000        0x0 /usr/local/Cellar/arm-gcc-bin@8/8-2019-q3-update/bin/../lib/gcc/arm-none-eabi/8.3.1/thumb/v7e-m+fp/hard/libgcc.a(_dvmd_tls.o)
 .text          0x0000000000000000        0x0 /usr/local/Cellar/arm-gcc-bin@8/8-2019-q3-update/bin/../lib/gcc/arm-none-eabi/8.3.1/../../../../arm-none-eabi/lib/thumb/v7e-m+fp/hard/libg.a(lib_a-ctype_.o)
 .data          0x0000000000000000        0x0 /usr/local/Cellar/arm-gcc-bin@8/8-2019-q3-update/bin/../lib/gcc/arm-none-eabi/8.3.1/../../../../arm-none-eabi/lib/thumb/v7e-m+fp/hard/libg.a(lib_a-ctype_.o)
 .bss           0x0000000000000000        0x0 /usr/local/Cellar/arm-gcc-bin@8/8-2019-q3-update/bin/../lib/gcc/arm-none-eabi/8.3.1/../../../../arm-none-eabi/lib/thumb/v7e-m+fp/hard/libg.a(lib_a-ctype_.o)
 .rodata._ctype_
                0x0000000000000000      0x101 /usr/local/Cellar/arm-gcc-bin@8/8-2019-q3-update/bin/../lib/gcc/arm-none-eabi/8.3.1/../../../../arm-none-eabi/lib/thumb/v7e-m+fp/hard/libg.a(lib_a-ctype_.o)
 .ARM.attributes
                0x0000000000000000       0x32 /usr/local/Cellar/arm-gcc-bin@8/8-2019-q3-update/bin/../lib/gcc/arm-none-eabi/8.3.1/../../../../arm-none-eabi/lib/thumb/v7e-m+fp/hard/libg.a(lib_a-ctype_.o)
 .text          0x0000000000000000        0x0 /usr/local/Cellar/arm-gcc-bin@8/8-2019-q3-update/bin/../lib/gcc/arm-none-eabi/8.3.1/../../../../arm-none-eabi/lib/thumb/v7e-m+fp/hard/libg.a(lib_a-exit.o)
 .data          0x0000000000000000        0x0 /usr/local/Cellar/arm-gcc-bin@8/8-2019-q3-update/bin/../lib/gcc/arm-none-eabi/8.3.1/../../../../arm-none-eabi/lib/thumb/v7e-m+fp/hard/libg.a(lib_a-exit.o)
 .bss           0x0000000000000000        0x0 /usr/local/Cellar/arm-gcc-bin@8/8-2019-q3-update/bin/../lib/gcc/arm-none-eabi/8.3.1/../../../../arm-none-eabi/lib/thumb/v7e-m+fp/hard/libg.a(lib_a-exit.o)
 .text.exit     0x0000000000000000       0x20 /usr/local/Cellar/arm-gcc-bin@8/8-2019-q3-update/bin/../lib/gcc/arm-none-eabi/8.3.1/../../../../arm-none-eabi/lib/thumb/v7e-m+fp/hard/libg.a(lib_a-exit.o)
 .debug_frame   0x0000000000000000       0x28 /usr/local/Cellar/arm-gcc-bin@8/8-2019-q3-update/bin/../lib/gcc/arm-none-eabi/8.3.1/../../../../arm-none-eabi/lib/thumb/v7e-m+fp/hard/libg.a(lib_a-exit.o)
 .ARM.attributes
                0x0000000000000000       0x34 /usr/local/Cellar/arm-gcc-bin@8/8-2019-q3-update/bin/../lib/gcc/arm-none-eabi/8.3.1/../../../../arm-none-eabi/lib/thumb/v7e-m+fp/hard/libg.a(lib_a-exit.o)
 .text          0x0000000000000000        0x0 /usr/local/Cellar/arm-gcc-bin@8/8-2019-q3-update/bin/../lib/gcc/arm-none-eabi/8.3.1/../../../../arm-none-eabi/lib/thumb/v7e-m+fp/hard/libg.a(lib_a-impure.o)
 .data          0x0000000000000000        0x0 /usr/local/Cellar/arm-gcc-bin@8/8-2019-q3-update/bin/../lib/gcc/arm-none-eabi/8.3.1/../../../../arm-none-eabi/lib/thumb/v7e-m+fp/hard/libg.a(lib_a-impure.o)
 .bss           0x0000000000000000        0x0 /usr/local/Cellar/arm-gcc-bin@8/8-2019-q3-update/bin/../lib/gcc/arm-none-eabi/8.3.1/../../../../arm-none-eabi/lib/thumb/v7e-m+fp/hard/libg.a(lib_a-impure.o)
 .data._impure_ptr
                0x0000000000000000        0x4 /usr/local/Cellar/arm-gcc-bin@8/8-2019-q3-update/bin/../lib/gcc/arm-none-eabi/8.3.1/../../../../arm-none-eabi/lib/thumb/v7e-m+fp/hard/libg.a(lib_a-impure.o)
 .text          0x0000000000000000        0x0 /usr/local/Cellar/arm-gcc-bin@8/8-2019-q3-update/bin/../lib/gcc/arm-none-eabi/8.3.1/../../../../arm-none-eabi/lib/thumb/v7e-m+fp/hard/libg.a(lib_a-init.o)
 .data          0x0000000000000000        0x0 /usr/local/Cellar/arm-gcc-bin@8/8-2019-q3-update/bin/../lib/gcc/arm-none-eabi/8.3.1/../../../../arm-none-eabi/lib/thumb/v7e-m+fp/hard/libg.a(lib_a-init.o)
 .bss           0x0000000000000000        0x0 /usr/local/Cellar/arm-gcc-bin@8/8-2019-q3-update/bin/../lib/gcc/arm-none-eabi/8.3.1/../../../../arm-none-eabi/lib/thumb/v7e-m+fp/hard/libg.a(lib_a-init.o)
 .data          0x0000000000000000        0x0 /usr/local/Cellar/arm-gcc-bin@8/8-2019-q3-update/bin/../lib/gcc/arm-none-eabi/8.3.1/../../../../arm-none-eabi/lib/thumb/v7e-m+fp/hard/libg.a(lib_a-memcpy.o)
 .bss           0x0000000000000000        0x0 /usr/local/Cellar/arm-gcc-bin@8/8-2019-q3-update/bin/../lib/gcc/arm-none-eabi/8.3.1/../../../../arm-none-eabi/lib/thumb/v7e-m+fp/hard/libg.a(lib_a-memcpy.o)
 .text          0x0000000000000000        0x0 /usr/local/Cellar/arm-gcc-bin@8/8-2019-q3-update/bin/../lib/gcc/arm-none-eabi/8.3.1/../../../../arm-none-eabi/lib/thumb/v7e-m+fp/hard/libg.a(lib_a-memset.o)
 .data          0x0000000000000000        0x0 /usr/local/Cellar/arm-gcc-bin@8/8-2019-q3-update/bin/../lib/gcc/arm-none-eabi/8.3.1/../../../../arm-none-eabi/lib/thumb/v7e-m+fp/hard/libg.a(lib_a-memset.o)
 .bss           0x0000000000000000        0x0 /usr/local/Cellar/arm-gcc-bin@8/8-2019-q3-update/bin/../lib/gcc/arm-none-eabi/8.3.1/../../../../arm-none-eabi/lib/thumb/v7e-m+fp/hard/libg.a(lib_a-memset.o)
 .text          0x0000000000000000        0x0 /usr/local/Cellar/arm-gcc-bin@8/8-2019-q3-update/bin/../lib/gcc/arm-none-eabi/8.3.1/../../../../arm-none-eabi/lib/thumb/v7e-m+fp/hard/libg.a(lib_a-rand.o)
 .data          0x0000000000000000        0x0 /usr/local/Cellar/arm-gcc-bin@8/8-2019-q3-update/bin/../lib/gcc/arm-none-eabi/8.3.1/../../../../arm-none-eabi/lib/thumb/v7e-m+fp/hard/libg.a(lib_a-rand.o)
 .bss           0x0000000000000000        0x0 /usr/local/Cellar/arm-gcc-bin@8/8-2019-q3-update/bin/../lib/gcc/arm-none-eabi/8.3.1/../../../../arm-none-eabi/lib/thumb/v7e-m+fp/hard/libg.a(lib_a-rand.o)
 .text.srand    0x0000000000000000       0x10 /usr/local/Cellar/arm-gcc-bin@8/8-2019-q3-update/bin/../lib/gcc/arm-none-eabi/8.3.1/../../../../arm-none-eabi/lib/thumb/v7e-m+fp/hard/libg.a(lib_a-rand.o)
 .text.rand     0x0000000000000000       0x3c /usr/local/Cellar/arm-gcc-bin@8/8-2019-q3-update/bin/../lib/gcc/arm-none-eabi/8.3.1/../../../../arm-none-eabi/lib/thumb/v7e-m+fp/hard/libg.a(lib_a-rand.o)
 .debug_frame   0x0000000000000000       0x3c /usr/local/Cellar/arm-gcc-bin@8/8-2019-q3-update/bin/../lib/gcc/arm-none-eabi/8.3.1/../../../../arm-none-eabi/lib/thumb/v7e-m+fp/hard/libg.a(lib_a-rand.o)
 .ARM.attributes
                0x0000000000000000       0x34 /usr/local/Cellar/arm-gcc-bin@8/8-2019-q3-update/bin/../lib/gcc/arm-none-eabi/8.3.1/../../../../arm-none-eabi/lib/thumb/v7e-m+fp/hard/libg.a(lib_a-rand.o)
 .text          0x0000000000000000        0x0 /usr/local/Cellar/arm-gcc-bin@8/8-2019-q3-update/bin/../lib/gcc/arm-none-eabi/8.3.1/../../../../arm-none-eabi/lib/thumb/v7e-m+fp/hard/libg.a(lib_a-__call_atexit.o)
 .data          0x0000000000000000        0x0 /usr/local/Cellar/arm-gcc-bin@8/8-2019-q3-update/bin/../lib/gcc/arm-none-eabi/8.3.1/../../../../arm-none-eabi/lib/thumb/v7e-m+fp/hard/libg.a(lib_a-__call_atexit.o)
 .bss           0x0000000000000000        0x0 /usr/local/Cellar/arm-gcc-bin@8/8-2019-q3-update/bin/../lib/gcc/arm-none-eabi/8.3.1/../../../../arm-none-eabi/lib/thumb/v7e-m+fp/hard/libg.a(lib_a-__call_atexit.o)
 .text.__call_exitprocs
                0x0000000000000000       0xb0 /usr/local/Cellar/arm-gcc-bin@8/8-2019-q3-update/bin/../lib/gcc/arm-none-eabi/8.3.1/../../../../arm-none-eabi/lib/thumb/v7e-m+fp/hard/libg.a(lib_a-__call_atexit.o)
 .text          0x0000000000000000        0x0 /usr/local/Cellar/arm-gcc-bin@8/8-2019-q3-update/bin/../lib/gcc/arm-none-eabi/8.3.1/../../../../arm-none-eabi/lib/thumb/v7e-m+fp/hard/libg.a(lib_a-atexit.o)
 .data          0x0000000000000000        0x0 /usr/local/Cellar/arm-gcc-bin@8/8-2019-q3-update/bin/../lib/gcc/arm-none-eabi/8.3.1/../../../../arm-none-eabi/lib/thumb/v7e-m+fp/hard/libg.a(lib_a-atexit.o)
 .bss           0x0000000000000000        0x0 /usr/local/Cellar/arm-gcc-bin@8/8-2019-q3-update/bin/../lib/gcc/arm-none-eabi/8.3.1/../../../../arm-none-eabi/lib/thumb/v7e-m+fp/hard/libg.a(lib_a-atexit.o)
 .text          0x0000000000000000        0x0 /usr/local/Cellar/arm-gcc-bin@8/8-2019-q3-update/bin/../lib/gcc/arm-none-eabi/8.3.1/../../../../arm-none-eabi/lib/thumb/v7e-m+fp/hard/libg.a(lib_a-fini.o)
 .data          0x0000000000000000        0x0 /usr/local/Cellar/arm-gcc-bin@8/8-2019-q3-update/bin/../lib/gcc/arm-none-eabi/8.3.1/../../../../arm-none-eabi/lib/thumb/v7e-m+fp/hard/libg.a(lib_a-fini.o)
 .bss           0x0000000000000000        0x0 /usr/local/Cellar/arm-gcc-bin@8/8-2019-q3-update/bin/../lib/gcc/arm-none-eabi/8.3.1/../../../../arm-none-eabi/lib/thumb/v7e-m+fp/hard/libg.a(lib_a-fini.o)
 .text          0x0000000000000000        0x0 /usr/local/Cellar/arm-gcc-bin@8/8-2019-q3-update/bin/../lib/gcc/arm-none-eabi/8.3.1/../../../../arm-none-eabi/lib/thumb/v7e-m+fp/hard/libg.a(lib_a-lock.o)
 .data          0x0000000000000000        0x0 /usr/local/Cellar/arm-gcc-bin@8/8-2019-q3-update/bin/../lib/gcc/arm-none-eabi/8.3.1/../../../../arm-none-eabi/lib/thumb/v7e-m+fp/hard/libg.a(lib_a-lock.o)
 .bss           0x0000000000000000        0x0 /usr/local/Cellar/arm-gcc-bin@8/8-2019-q3-update/bin/../lib/gcc/arm-none-eabi/8.3.1/../../../../arm-none-eabi/lib/thumb/v7e-m+fp/hard/libg.a(lib_a-lock.o)
 .text.__retarget_lock_init
                0x0000000000000000        0x4 /usr/local/Cellar/arm-gcc-bin@8/8-2019-q3-update/bin/../lib/gcc/arm-none-eabi/8.3.1/../../../../arm-none-eabi/lib/thumb/v7e-m+fp/hard/libg.a(lib_a-lock.o)
 .text.__retarget_lock_init_recursive
                0x0000000000000000        0x4 /usr/local/Cellar/arm-gcc-bin@8/8-2019-q3-update/bin/../lib/gcc/arm-none-eabi/8.3.1/../../../../arm-none-eabi/lib/thumb/v7e-m+fp/hard/libg.a(lib_a-lock.o)
 .text.__retarget_lock_close
                0x0000000000000000        0x4 /usr/local/Cellar/arm-gcc-bin@8/8-2019-q3-update/bin/../lib/gcc/arm-none-eabi/8.3.1/../../../../arm-none-eabi/lib/thumb/v7e-m+fp/hard/libg.a(lib_a-lock.o)
 .text.__retarget_lock_close_recursive
                0x0000000000000000        0x4 /usr/local/Cellar/arm-gcc-bin@8/8-2019-q3-update/bin/../lib/gcc/arm-none-eabi/8.3.1/../../../../arm-none-eabi/lib/thumb/v7e-m+fp/hard/libg.a(lib_a-lock.o)
 .text.__retarget_lock_acquire
                0x0000000000000000        0x4 /usr/local/Cellar/arm-gcc-bin@8/8-2019-q3-update/bin/../lib/gcc/arm-none-eabi/8.3.1/../../../../arm-none-eabi/lib/thumb/v7e-m+fp/hard/libg.a(lib_a-lock.o)
 .text.__retarget_lock_try_acquire
                0x0000000000000000        0x4 /usr/local/Cellar/arm-gcc-bin@8/8-2019-q3-update/bin/../lib/gcc/arm-none-eabi/8.3.1/../../../../arm-none-eabi/lib/thumb/v7e-m+fp/hard/libg.a(lib_a-lock.o)
 .text.__retarget_lock_try_acquire_recursive
                0x0000000000000000        0x4 /usr/local/Cellar/arm-gcc-bin@8/8-2019-q3-update/bin/../lib/gcc/arm-none-eabi/8.3.1/../../../../arm-none-eabi/lib/thumb/v7e-m+fp/hard/libg.a(lib_a-lock.o)
 .text.__retarget_lock_release
                0x0000000000000000        0x4 /usr/local/Cellar/arm-gcc-bin@8/8-2019-q3-update/bin/../lib/gcc/arm-none-eabi/8.3.1/../../../../arm-none-eabi/lib/thumb/v7e-m+fp/hard/libg.a(lib_a-lock.o)
 .text          0x0000000000000000        0x0 /usr/local/Cellar/arm-gcc-bin@8/8-2019-q3-update/bin/../lib/gcc/arm-none-eabi/8.3.1/../../../../arm-none-eabi/lib/thumb/v7e-m+fp/hard/libg.a(lib_a-__atexit.o)
 .data          0x0000000000000000        0x0 /usr/local/Cellar/arm-gcc-bin@8/8-2019-q3-update/bin/../lib/gcc/arm-none-eabi/8.3.1/../../../../arm-none-eabi/lib/thumb/v7e-m+fp/hard/libg.a(lib_a-__atexit.o)
 .bss           0x0000000000000000        0x0 /usr/local/Cellar/arm-gcc-bin@8/8-2019-q3-update/bin/../lib/gcc/arm-none-eabi/8.3.1/../../../../arm-none-eabi/lib/thumb/v7e-m+fp/hard/libg.a(lib_a-__atexit.o)
 .text          0x0000000000000000        0x0 /usr/local/Cellar/arm-gcc-bin@8/8-2019-q3-update/bin/../lib/gcc/arm-none-eabi/8.3.1/../../../../arm-none-eabi/lib/thumb/v7e-m+fp/hard/librdimon.a(rdimon-syscalls.o)
 .data          0x0000000000000000        0x0 /usr/local/Cellar/arm-gcc-bin@8/8-2019-q3-update/bin/../lib/gcc/arm-none-eabi/8.3.1/../../../../arm-none-eabi/lib/thumb/v7e-m+fp/hard/librdimon.a(rdimon-syscalls.o)
 .bss           0x0000000000000000        0x0 /usr/local/Cellar/arm-gcc-bin@8/8-2019-q3-update/bin/../lib/gcc/arm-none-eabi/8.3.1/../../../../arm-none-eabi/lib/thumb/v7e-m+fp/hard/librdimon.a(rdimon-syscalls.o)
 .text.findslot
                0x0000000000000000       0x38 /usr/local/Cellar/arm-gcc-bin@8/8-2019-q3-update/bin/../lib/gcc/arm-none-eabi/8.3.1/../../../../arm-none-eabi/lib/thumb/v7e-m+fp/hard/librdimon.a(rdimon-syscalls.o)
 .text.checkerror.part.0
                0x0000000000000000       0x1c /usr/local/Cellar/arm-gcc-bin@8/8-2019-q3-update/bin/../lib/gcc/arm-none-eabi/8.3.1/../../../../arm-none-eabi/lib/thumb/v7e-m+fp/hard/librdimon.a(rdimon-syscalls.o)
 .text._swiread
                0x0000000000000000       0x28 /usr/local/Cellar/arm-gcc-bin@8/8-2019-q3-update/bin/../lib/gcc/arm-none-eabi/8.3.1/../../../../arm-none-eabi/lib/thumb/v7e-m+fp/hard/librdimon.a(rdimon-syscalls.o)
 .text._read    0x0000000000000000       0x50 /usr/local/Cellar/arm-gcc-bin@8/8-2019-q3-update/bin/../lib/gcc/arm-none-eabi/8.3.1/../../../../arm-none-eabi/lib/thumb/v7e-m+fp/hard/librdimon.a(rdimon-syscalls.o)
 .text._swilseek
                0x0000000000000000       0x98 /usr/local/Cellar/arm-gcc-bin@8/8-2019-q3-update/bin/../lib/gcc/arm-none-eabi/8.3.1/../../../../arm-none-eabi/lib/thumb/v7e-m+fp/hard/librdimon.a(rdimon-syscalls.o)
 .text._lseek   0x0000000000000000        0x4 /usr/local/Cellar/arm-gcc-bin@8/8-2019-q3-update/bin/../lib/gcc/arm-none-eabi/8.3.1/../../../../arm-none-eabi/lib/thumb/v7e-m+fp/hard/librdimon.a(rdimon-syscalls.o)
 .text._swiwrite
                0x0000000000000000       0x28 /usr/local/Cellar/arm-gcc-bin@8/8-2019-q3-update/bin/../lib/gcc/arm-none-eabi/8.3.1/../../../../arm-none-eabi/lib/thumb/v7e-m+fp/hard/librdimon.a(rdimon-syscalls.o)
 .text._write   0x0000000000000000       0x74 /usr/local/Cellar/arm-gcc-bin@8/8-2019-q3-update/bin/../lib/gcc/arm-none-eabi/8.3.1/../../../../arm-none-eabi/lib/thumb/v7e-m+fp/hard/librdimon.a(rdimon-syscalls.o)
 .text._swiclose
                0x0000000000000000       0x24 /usr/local/Cellar/arm-gcc-bin@8/8-2019-q3-update/bin/../lib/gcc/arm-none-eabi/8.3.1/../../../../arm-none-eabi/lib/thumb/v7e-m+fp/hard/librdimon.a(rdimon-syscalls.o)
 .text._close   0x0000000000000000       0x68 /usr/local/Cellar/arm-gcc-bin@8/8-2019-q3-update/bin/../lib/gcc/arm-none-eabi/8.3.1/../../../../arm-none-eabi/lib/thumb/v7e-m+fp/hard/librdimon.a(rdimon-syscalls.o)
 .text._getpid  0x0000000000000000        0x4 /usr/local/Cellar/arm-gcc-bin@8/8-2019-q3-update/bin/../lib/gcc/arm-none-eabi/8.3.1/../../../../arm-none-eabi/lib/thumb/v7e-m+fp/hard/librdimon.a(rdimon-syscalls.o)
 .text._sbrk    0x0000000000000000       0x4c /usr/local/Cellar/arm-gcc-bin@8/8-2019-q3-update/bin/../lib/gcc/arm-none-eabi/8.3.1/../../../../arm-none-eabi/lib/thumb/v7e-m+fp/hard/librdimon.a(rdimon-syscalls.o)
 .text._swistat
                0x0000000000000000       0x48 /usr/local/Cellar/arm-gcc-bin@8/8-2019-q3-update/bin/../lib/gcc/arm-none-eabi/8.3.1/../../../../arm-none-eabi/lib/thumb/v7e-m+fp/hard/librdimon.a(rdimon-syscalls.o)
 .text._fstat   0x0000000000000000       0x1c /usr/local/Cellar/arm-gcc-bin@8/8-2019-q3-update/bin/../lib/gcc/arm-none-eabi/8.3.1/../../../../arm-none-eabi/lib/thumb/v7e-m+fp/hard/librdimon.a(rdimon-syscalls.o)
 .text._stat    0x0000000000000000       0x3c /usr/local/Cellar/arm-gcc-bin@8/8-2019-q3-update/bin/../lib/gcc/arm-none-eabi/8.3.1/../../../../arm-none-eabi/lib/thumb/v7e-m+fp/hard/librdimon.a(rdimon-syscalls.o)
 .text._swiopen
                0x0000000000000000       0xc8 /usr/local/Cellar/arm-gcc-bin@8/8-2019-q3-update/bin/../lib/gcc/arm-none-eabi/8.3.1/../../../../arm-none-eabi/lib/thumb/v7e-m+fp/hard/librdimon.a(rdimon-syscalls.o)
 .text._open    0x0000000000000000       0x14 /usr/local/Cellar/arm-gcc-bin@8/8-2019-q3-update/bin/../lib/gcc/arm-none-eabi/8.3.1/../../../../arm-none-eabi/lib/thumb/v7e-m+fp/hard/librdimon.a(rdimon-syscalls.o)
 .text._get_semihosting_exts
                0x0000000000000000       0xcc /usr/local/Cellar/arm-gcc-bin@8/8-2019-q3-update/bin/../lib/gcc/arm-none-eabi/8.3.1/../../../../arm-none-eabi/lib/thumb/v7e-m+fp/hard/librdimon.a(rdimon-syscalls.o)
 .text.initialise_semihosting_exts
                0x0000000000000000       0x3c /usr/local/Cellar/arm-gcc-bin@8/8-2019-q3-update/bin/../lib/gcc/arm-none-eabi/8.3.1/../../../../arm-none-eabi/lib/thumb/v7e-m+fp/hard/librdimon.a(rdimon-syscalls.o)
 .text._has_ext_exit_extended
                0x0000000000000000       0x18 /usr/local/Cellar/arm-gcc-bin@8/8-2019-q3-update/bin/../lib/gcc/arm-none-eabi/8.3.1/../../../../arm-none-eabi/lib/thumb/v7e-m+fp/hard/librdimon.a(rdimon-syscalls.o)
 .text._has_ext_stdout_stderr
                0x0000000000000000       0x18 /usr/local/Cellar/arm-gcc-bin@8/8-2019-q3-update/bin/../lib/gcc/arm-none-eabi/8.3.1/../../../../arm-none-eabi/lib/thumb/v7e-m+fp/hard/librdimon.a(rdimon-syscalls.o)
 .text.initialise_monitor_handles
                0x0000000000000000      0x10c /usr/local/Cellar/arm-gcc-bin@8/8-2019-q3-update/bin/../lib/gcc/arm-none-eabi/8.3.1/../../../../arm-none-eabi/lib/thumb/v7e-m+fp/hard/librdimon.a(rdimon-syscalls.o)
 .text._link    0x0000000000000000       0x10 /usr/local/Cellar/arm-gcc-bin@8/8-2019-q3-update/bin/../lib/gcc/arm-none-eabi/8.3.1/../../../../arm-none-eabi/lib/thumb/v7e-m+fp/hard/librdimon.a(rdimon-syscalls.o)
 .text._unlink  0x0000000000000000       0x3c /usr/local/Cellar/arm-gcc-bin@8/8-2019-q3-update/bin/../lib/gcc/arm-none-eabi/8.3.1/../../../../arm-none-eabi/lib/thumb/v7e-m+fp/hard/librdimon.a(rdimon-syscalls.o)
 .text._gettimeofday
                0x0000000000000000       0x2c /usr/local/Cellar/arm-gcc-bin@8/8-2019-q3-update/bin/../lib/gcc/arm-none-eabi/8.3.1/../../../../arm-none-eabi/lib/thumb/v7e-m+fp/hard/librdimon.a(rdimon-syscalls.o)
 .text._clock   0x0000000000000000       0x14 /usr/local/Cellar/arm-gcc-bin@8/8-2019-q3-update/bin/../lib/gcc/arm-none-eabi/8.3.1/../../../../arm-none-eabi/lib/thumb/v7e-m+fp/hard/librdimon.a(rdimon-syscalls.o)
 .text._times   0x0000000000000000       0x20 /usr/local/Cellar/arm-gcc-bin@8/8-2019-q3-update/bin/../lib/gcc/arm-none-eabi/8.3.1/../../../../arm-none-eabi/lib/thumb/v7e-m+fp/hard/librdimon.a(rdimon-syscalls.o)
 .text._isatty  0x0000000000000000       0x3c /usr/local/Cellar/arm-gcc-bin@8/8-2019-q3-update/bin/../lib/gcc/arm-none-eabi/8.3.1/../../../../arm-none-eabi/lib/thumb/v7e-m+fp/hard/librdimon.a(rdimon-syscalls.o)
 .text._system  0x0000000000000000       0x48 /usr/local/Cellar/arm-gcc-bin@8/8-2019-q3-update/bin/../lib/gcc/arm-none-eabi/8.3.1/../../../../arm-none-eabi/lib/thumb/v7e-m+fp/hard/librdimon.a(rdimon-syscalls.o)
 .text._rename  0x0000000000000000       0x3c /usr/local/Cellar/arm-gcc-bin@8/8-2019-q3-update/bin/../lib/gcc/arm-none-eabi/8.3.1/../../../../arm-none-eabi/lib/thumb/v7e-m+fp/hard/librdimon.a(rdimon-syscalls.o)
 .bss.heap_end.7689
                0x0000000000000000        0x4 /usr/local/Cellar/arm-gcc-bin@8/8-2019-q3-update/bin/../lib/gcc/arm-none-eabi/8.3.1/../../../../arm-none-eabi/lib/thumb/v7e-m+fp/hard/librdimon.a(rdimon-syscalls.o)
 .bss.monitor_stderr
                0x0000000000000000        0x4 /usr/local/Cellar/arm-gcc-bin@8/8-2019-q3-update/bin/../lib/gcc/arm-none-eabi/8.3.1/../../../../arm-none-eabi/lib/thumb/v7e-m+fp/hard/librdimon.a(rdimon-syscalls.o)
 .bss.monitor_stdin
                0x0000000000000000        0x4 /usr/local/Cellar/arm-gcc-bin@8/8-2019-q3-update/bin/../lib/gcc/arm-none-eabi/8.3.1/../../../../arm-none-eabi/lib/thumb/v7e-m+fp/hard/librdimon.a(rdimon-syscalls.o)
 .bss.monitor_stdout
                0x0000000000000000        0x4 /usr/local/Cellar/arm-gcc-bin@8/8-2019-q3-update/bin/../lib/gcc/arm-none-eabi/8.3.1/../../../../arm-none-eabi/lib/thumb/v7e-m+fp/hard/librdimon.a(rdimon-syscalls.o)
 .bss.openfiles
                0x0000000000000000       0xa0 /usr/local/Cellar/arm-gcc-bin@8/8-2019-q3-update/bin/../lib/gcc/arm-none-eabi/8.3.1/../../../../arm-none-eabi/lib/thumb/v7e-m+fp/hard/librdimon.a(rdimon-syscalls.o)
 .data.__heap_limit
                0x0000000000000000        0x4 /usr/local/Cellar/arm-gcc-bin@8/8-2019-q3-update/bin/../lib/gcc/arm-none-eabi/8.3.1/../../../../arm-none-eabi/lib/thumb/v7e-m+fp/hard/librdimon.a(rdimon-syscalls.o)
 .data.supports_ext_exit_extended
                0x0000000000000000        0x4 /usr/local/Cellar/arm-gcc-bin@8/8-2019-q3-update/bin/../lib/gcc/arm-none-eabi/8.3.1/../../../../arm-none-eabi/lib/thumb/v7e-m+fp/hard/librdimon.a(rdimon-syscalls.o)
 .data.supports_ext_stdout_stderr
                0x0000000000000000        0x4 /usr/local/Cellar/arm-gcc-bin@8/8-2019-q3-update/bin/../lib/gcc/arm-none-eabi/8.3.1/../../../../arm-none-eabi/lib/thumb/v7e-m+fp/hard/librdimon.a(rdimon-syscalls.o)
 .rodata._get_semihosting_exts.str1.4
                0x0000000000000000       0x16 /usr/local/Cellar/arm-gcc-bin@8/8-2019-q3-update/bin/../lib/gcc/arm-none-eabi/8.3.1/../../../../arm-none-eabi/lib/thumb/v7e-m+fp/hard/librdimon.a(rdimon-syscalls.o)
 .rodata.initialise_monitor_handles.str1.4
                0x0000000000000000        0x4 /usr/local/Cellar/arm-gcc-bin@8/8-2019-q3-update/bin/../lib/gcc/arm-none-eabi/8.3.1/../../../../arm-none-eabi/lib/thumb/v7e-m+fp/hard/librdimon.a(rdimon-syscalls.o)
 .debug_frame   0x0000000000000000      0x3fc /usr/local/Cellar/arm-gcc-bin@8/8-2019-q3-update/bin/../lib/gcc/arm-none-eabi/8.3.1/../../../../arm-none-eabi/lib/thumb/v7e-m+fp/hard/librdimon.a(rdimon-syscalls.o)
 .ARM.attributes
                0x0000000000000000       0x34 /usr/local/Cellar/arm-gcc-bin@8/8-2019-q3-update/bin/../lib/gcc/arm-none-eabi/8.3.1/../../../../arm-none-eabi/lib/thumb/v7e-m+fp/hard/librdimon.a(rdimon-syscalls.o)
 .text          0x0000000000000000        0x0 /usr/local/Cellar/arm-gcc-bin@8/8-2019-q3-update/bin/../lib/gcc/arm-none-eabi/8.3.1/../../../../arm-none-eabi/lib/thumb/v7e-m+fp/hard/librdimon.a(rdimon-_exit.o)
 .data          0x0000000000000000        0x0 /usr/local/Cellar/arm-gcc-bin@8/8-2019-q3-update/bin/../lib/gcc/arm-none-eabi/8.3.1/../../../../arm-none-eabi/lib/thumb/v7e-m+fp/hard/librdimon.a(rdimon-_exit.o)
 .bss           0x0000000000000000        0x0 /usr/local/Cellar/arm-gcc-bin@8/8-2019-q3-update/bin/../lib/gcc/arm-none-eabi/8.3.1/../../../../arm-none-eabi/lib/thumb/v7e-m+fp/hard/librdimon.a(rdimon-_exit.o)
 .text._exit    0x0000000000000000       0x14 /usr/local/Cellar/arm-gcc-bin@8/8-2019-q3-update/bin/../lib/gcc/arm-none-eabi/8.3.1/../../../../arm-none-eabi/lib/thumb/v7e-m+fp/hard/librdimon.a(rdimon-_exit.o)
 .debug_frame   0x0000000000000000       0x28 /usr/local/Cellar/arm-gcc-bin@8/8-2019-q3-update/bin/../lib/gcc/arm-none-eabi/8.3.1/../../../../arm-none-eabi/lib/thumb/v7e-m+fp/hard/librdimon.a(rdimon-_exit.o)
 .ARM.attributes
                0x0000000000000000       0x34 /usr/local/Cellar/arm-gcc-bin@8/8-2019-q3-update/bin/../lib/gcc/arm-none-eabi/8.3.1/../../../../arm-none-eabi/lib/thumb/v7e-m+fp/hard/librdimon.a(rdimon-_exit.o)
 .text          0x0000000000000000        0x0 /usr/local/Cellar/arm-gcc-bin@8/8-2019-q3-update/bin/../lib/gcc/arm-none-eabi/8.3.1/../../../../arm-none-eabi/lib/thumb/v7e-m+fp/hard/librdimon.a(rdimon-_kill.o)
 .data          0x0000000000000000        0x0 /usr/local/Cellar/arm-gcc-bin@8/8-2019-q3-update/bin/../lib/gcc/arm-none-eabi/8.3.1/../../../../arm-none-eabi/lib/thumb/v7e-m+fp/hard/librdimon.a(rdimon-_kill.o)
 .bss           0x0000000000000000        0x0 /usr/local/Cellar/arm-gcc-bin@8/8-2019-q3-update/bin/../lib/gcc/arm-none-eabi/8.3.1/../../../../arm-none-eabi/lib/thumb/v7e-m+fp/hard/librdimon.a(rdimon-_kill.o)
 .text._kill_shared
                0x0000000000000000       0x30 /usr/local/Cellar/arm-gcc-bin@8/8-2019-q3-update/bin/../lib/gcc/arm-none-eabi/8.3.1/../../../../arm-none-eabi/lib/thumb/v7e-m+fp/hard/librdimon.a(rdimon-_kill.o)
 .text._kill    0x0000000000000000       0x1c /usr/local/Cellar/arm-gcc-bin@8/8-2019-q3-update/bin/../lib/gcc/arm-none-eabi/8.3.1/../../../../arm-none-eabi/lib/thumb/v7e-m+fp/hard/librdimon.a(rdimon-_kill.o)
 .debug_frame   0x0000000000000000       0x40 /usr/local/Cellar/arm-gcc-bin@8/8-2019-q3-update/bin/../lib/gcc/arm-none-eabi/8.3.1/../../../../arm-none-eabi/lib/thumb/v7e-m+fp/hard/librdimon.a(rdimon-_kill.o)
 .ARM.attributes
                0x0000000000000000       0x34 /usr/local/Cellar/arm-gcc-bin@8/8-2019-q3-update/bin/../lib/gcc/arm-none-eabi/8.3.1/../../../../arm-none-eabi/lib/thumb/v7e-m+fp/hard/librdimon.a(rdimon-_kill.o)
 .text          0x0000000000000000        0x0 /usr/local/Cellar/arm-gcc-bin@8/8-2019-q3-update/bin/../lib/gcc/arm-none-eabi/8.3.1/../../../../arm-none-eabi/lib/thumb/v7e-m+fp/hard/libc.a(lib_a-errno.o)
 .data          0x0000000000000000        0x0 /usr/local/Cellar/arm-gcc-bin@8/8-2019-q3-update/bin/../lib/gcc/arm-none-eabi/8.3.1/../../../../arm-none-eabi/lib/thumb/v7e-m+fp/hard/libc.a(lib_a-errno.o)
 .bss           0x0000000000000000        0x0 /usr/local/Cellar/arm-gcc-bin@8/8-2019-q3-update/bin/../lib/gcc/arm-none-eabi/8.3.1/../../../../arm-none-eabi/lib/thumb/v7e-m+fp/hard/libc.a(lib_a-errno.o)
 .text.__errno  0x0000000000000000        0xc /usr/local/Cellar/arm-gcc-bin@8/8-2019-q3-update/bin/../lib/gcc/arm-none-eabi/8.3.1/../../../../arm-none-eabi/lib/thumb/v7e-m+fp/hard/libc.a(lib_a-errno.o)
 .debug_frame   0x0000000000000000       0x20 /usr/local/Cellar/arm-gcc-bin@8/8-2019-q3-update/bin/../lib/gcc/arm-none-eabi/8.3.1/../../../../arm-none-eabi/lib/thumb/v7e-m+fp/hard/libc.a(lib_a-errno.o)
 .ARM.attributes
                0x0000000000000000       0x34 /usr/local/Cellar/arm-gcc-bin@8/8-2019-q3-update/bin/../lib/gcc/arm-none-eabi/8.3.1/../../../../arm-none-eabi/lib/thumb/v7e-m+fp/hard/libc.a(lib_a-errno.o)
 .text          0x0000000000000000        0x0 /usr/local/Cellar/arm-gcc-bin@8/8-2019-q3-update/bin/../lib/gcc/arm-none-eabi/8.3.1/../../../../arm-none-eabi/lib/thumb/v7e-m+fp/hard/libc.a(lib_a-findfp.o)
 .data          0x0000000000000000        0x0 /usr/local/Cellar/arm-gcc-bin@8/8-2019-q3-update/bin/../lib/gcc/arm-none-eabi/8.3.1/../../../../arm-none-eabi/lib/thumb/v7e-m+fp/hard/libc.a(lib_a-findfp.o)
 .bss           0x0000000000000000        0x0 /usr/local/Cellar/arm-gcc-bin@8/8-2019-q3-update/bin/../lib/gcc/arm-none-eabi/8.3.1/../../../../arm-none-eabi/lib/thumb/v7e-m+fp/hard/libc.a(lib_a-findfp.o)
 .text.std      0x0000000000000000       0x50 /usr/local/Cellar/arm-gcc-bin@8/8-2019-q3-update/bin/../lib/gcc/arm-none-eabi/8.3.1/../../../../arm-none-eabi/lib/thumb/v7e-m+fp/hard/libc.a(lib_a-findfp.o)
 .text._cleanup_r
                0x0000000000000000        0xc /usr/local/Cellar/arm-gcc-bin@8/8-2019-q3-update/bin/../lib/gcc/arm-none-eabi/8.3.1/../../../../arm-none-eabi/lib/thumb/v7e-m+fp/hard/libc.a(lib_a-findfp.o)
 .text.__fp_lock
                0x0000000000000000       0x1c /usr/local/Cellar/arm-gcc-bin@8/8-2019-q3-update/bin/../lib/gcc/arm-none-eabi/8.3.1/../../../../arm-none-eabi/lib/thumb/v7e-m+fp/hard/libc.a(lib_a-findfp.o)
 .text.__fp_unlock
                0x0000000000000000       0x1c /usr/local/Cellar/arm-gcc-bin@8/8-2019-q3-update/bin/../lib/gcc/arm-none-eabi/8.3.1/../../../../arm-none-eabi/lib/thumb/v7e-m+fp/hard/libc.a(lib_a-findfp.o)
 .text.__sfmoreglue
                0x0000000000000000       0x30 /usr/local/Cellar/arm-gcc-bin@8/8-2019-q3-update/bin/../lib/gcc/arm-none-eabi/8.3.1/../../../../arm-none-eabi/lib/thumb/v7e-m+fp/hard/libc.a(lib_a-findfp.o)
 .text._cleanup
                0x0000000000000000       0x14 /usr/local/Cellar/arm-gcc-bin@8/8-2019-q3-update/bin/../lib/gcc/arm-none-eabi/8.3.1/../../../../arm-none-eabi/lib/thumb/v7e-m+fp/hard/libc.a(lib_a-findfp.o)
 .text.__sinit  0x0000000000000000       0x54 /usr/local/Cellar/arm-gcc-bin@8/8-2019-q3-update/bin/../lib/gcc/arm-none-eabi/8.3.1/../../../../arm-none-eabi/lib/thumb/v7e-m+fp/hard/libc.a(lib_a-findfp.o)
 .text.__sfp    0x0000000000000000       0xa4 /usr/local/Cellar/arm-gcc-bin@8/8-2019-q3-update/bin/../lib/gcc/arm-none-eabi/8.3.1/../../../../arm-none-eabi/lib/thumb/v7e-m+fp/hard/libc.a(lib_a-findfp.o)
 .text.__sfp_lock_acquire
                0x0000000000000000        0xc /usr/local/Cellar/arm-gcc-bin@8/8-2019-q3-update/bin/../lib/gcc/arm-none-eabi/8.3.1/../../../../arm-none-eabi/lib/thumb/v7e-m+fp/hard/libc.a(lib_a-findfp.o)
 .text.__sfp_lock_release
                0x0000000000000000        0xc /usr/local/Cellar/arm-gcc-bin@8/8-2019-q3-update/bin/../lib/gcc/arm-none-eabi/8.3.1/../../../../arm-none-eabi/lib/thumb/v7e-m+fp/hard/libc.a(lib_a-findfp.o)
 .text.__sinit_lock_acquire
                0x0000000000000000        0xc /usr/local/Cellar/arm-gcc-bin@8/8-2019-q3-update/bin/../lib/gcc/arm-none-eabi/8.3.1/../../../../arm-none-eabi/lib/thumb/v7e-m+fp/hard/libc.a(lib_a-findfp.o)
 .text.__sinit_lock_release
                0x0000000000000000        0xc /usr/local/Cellar/arm-gcc-bin@8/8-2019-q3-update/bin/../lib/gcc/arm-none-eabi/8.3.1/../../../../arm-none-eabi/lib/thumb/v7e-m+fp/hard/libc.a(lib_a-findfp.o)
 .text.__fp_lock_all
                0x0000000000000000       0x24 /usr/local/Cellar/arm-gcc-bin@8/8-2019-q3-update/bin/../lib/gcc/arm-none-eabi/8.3.1/../../../../arm-none-eabi/lib/thumb/v7e-m+fp/hard/libc.a(lib_a-findfp.o)
 .text.__fp_unlock_all
                0x0000000000000000       0x24 /usr/local/Cellar/arm-gcc-bin@8/8-2019-q3-update/bin/../lib/gcc/arm-none-eabi/8.3.1/../../../../arm-none-eabi/lib/thumb/v7e-m+fp/hard/libc.a(lib_a-findfp.o)
 .debug_frame   0x0000000000000000      0x148 /usr/local/Cellar/arm-gcc-bin@8/8-2019-q3-update/bin/../lib/gcc/arm-none-eabi/8.3.1/../../../../arm-none-eabi/lib/thumb/v7e-m+fp/hard/libc.a(lib_a-findfp.o)
 .ARM.attributes
                0x0000000000000000       0x34 /usr/local/Cellar/arm-gcc-bin@8/8-2019-q3-update/bin/../lib/gcc/arm-none-eabi/8.3.1/../../../../arm-none-eabi/lib/thumb/v7e-m+fp/hard/libc.a(lib_a-findfp.o)
 .text          0x0000000000000000        0x0 /usr/local/Cellar/arm-gcc-bin@8/8-2019-q3-update/bin/../lib/gcc/arm-none-eabi/8.3.1/../../../../arm-none-eabi/lib/thumb/v7e-m+fp/hard/libc.a(lib_a-fwalk.o)
 .data          0x0000000000000000        0x0 /usr/local/Cellar/arm-gcc-bin@8/8-2019-q3-update/bin/../lib/gcc/arm-none-eabi/8.3.1/../../../../arm-none-eabi/lib/thumb/v7e-m+fp/hard/libc.a(lib_a-fwalk.o)
 .bss           0x0000000000000000        0x0 /usr/local/Cellar/arm-gcc-bin@8/8-2019-q3-update/bin/../lib/gcc/arm-none-eabi/8.3.1/../../../../arm-none-eabi/lib/thumb/v7e-m+fp/hard/libc.a(lib_a-fwalk.o)
 .text._fwalk   0x0000000000000000       0x4c /usr/local/Cellar/arm-gcc-bin@8/8-2019-q3-update/bin/../lib/gcc/arm-none-eabi/8.3.1/../../../../arm-none-eabi/lib/thumb/v7e-m+fp/hard/libc.a(lib_a-fwalk.o)
 .text._fwalk_reent
                0x0000000000000000       0x54 /usr/local/Cellar/arm-gcc-bin@8/8-2019-q3-update/bin/../lib/gcc/arm-none-eabi/8.3.1/../../../../arm-none-eabi/lib/thumb/v7e-m+fp/hard/libc.a(lib_a-fwalk.o)
 .debug_frame   0x0000000000000000       0x54 /usr/local/Cellar/arm-gcc-bin@8/8-2019-q3-update/bin/../lib/gcc/arm-none-eabi/8.3.1/../../../../arm-none-eabi/lib/thumb/v7e-m+fp/hard/libc.a(lib_a-fwalk.o)
 .ARM.attributes
                0x0000000000000000       0x34 /usr/local/Cellar/arm-gcc-bin@8/8-2019-q3-update/bin/../lib/gcc/arm-none-eabi/8.3.1/../../../../arm-none-eabi/lib/thumb/v7e-m+fp/hard/libc.a(lib_a-fwalk.o)
 .text          0x0000000000000000        0x0 /usr/local/Cellar/arm-gcc-bin@8/8-2019-q3-update/bin/../lib/gcc/arm-none-eabi/8.3.1/../../../../arm-none-eabi/lib/thumb/v7e-m+fp/hard/libc.a(lib_a-mallocr.o)
 .data          0x0000000000000000        0x0 /usr/local/Cellar/arm-gcc-bin@8/8-2019-q3-update/bin/../lib/gcc/arm-none-eabi/8.3.1/../../../../arm-none-eabi/lib/thumb/v7e-m+fp/hard/libc.a(lib_a-mallocr.o)
 .bss           0x0000000000000000        0x0 /usr/local/Cellar/arm-gcc-bin@8/8-2019-q3-update/bin/../lib/gcc/arm-none-eabi/8.3.1/../../../../arm-none-eabi/lib/thumb/v7e-m+fp/hard/libc.a(lib_a-mallocr.o)
 .text._malloc_r
                0x0000000000000000      0x570 /usr/local/Cellar/arm-gcc-bin@8/8-2019-q3-update/bin/../lib/gcc/arm-none-eabi/8.3.1/../../../../arm-none-eabi/lib/thumb/v7e-m+fp/hard/libc.a(lib_a-mallocr.o)
 .bss.__malloc_current_mallinfo
                0x0000000000000000       0x28 /usr/local/Cellar/arm-gcc-bin@8/8-2019-q3-update/bin/../lib/gcc/arm-none-eabi/8.3.1/../../../../arm-none-eabi/lib/thumb/v7e-m+fp/hard/libc.a(lib_a-mallocr.o)
 .bss.__malloc_max_sbrked_mem
                0x0000000000000000        0x4 /usr/local/Cellar/arm-gcc-bin@8/8-2019-q3-update/bin/../lib/gcc/arm-none-eabi/8.3.1/../../../../arm-none-eabi/lib/thumb/v7e-m+fp/hard/libc.a(lib_a-mallocr.o)
 .bss.__malloc_max_total_mem
                0x0000000000000000        0x4 /usr/local/Cellar/arm-gcc-bin@8/8-2019-q3-update/bin/../lib/gcc/arm-none-eabi/8.3.1/../../../../arm-none-eabi/lib/thumb/v7e-m+fp/hard/libc.a(lib_a-mallocr.o)
 .bss.__malloc_top_pad
                0x0000000000000000        0x4 /usr/local/Cellar/arm-gcc-bin@8/8-2019-q3-update/bin/../lib/gcc/arm-none-eabi/8.3.1/../../../../arm-none-eabi/lib/thumb/v7e-m+fp/hard/libc.a(lib_a-mallocr.o)
 .data.__malloc_av_
                0x0000000000000000      0x408 /usr/local/Cellar/arm-gcc-bin@8/8-2019-q3-update/bin/../lib/gcc/arm-none-eabi/8.3.1/../../../../arm-none-eabi/lib/thumb/v7e-m+fp/hard/libc.a(lib_a-mallocr.o)
 .data.__malloc_sbrk_base
                0x0000000000000000        0x4 /usr/local/Cellar/arm-gcc-bin@8/8-2019-q3-update/bin/../lib/gcc/arm-none-eabi/8.3.1/../../../../arm-none-eabi/lib/thumb/v7e-m+fp/hard/libc.a(lib_a-mallocr.o)
 .data.__malloc_trim_threshold
                0x0000000000000000        0x4 /usr/local/Cellar/arm-gcc-bin@8/8-2019-q3-update/bin/../lib/gcc/arm-none-eabi/8.3.1/../../../../arm-none-eabi/lib/thumb/v7e-m+fp/hard/libc.a(lib_a-mallocr.o)
 .debug_frame   0x0000000000000000       0x4c /usr/local/Cellar/arm-gcc-bin@8/8-2019-q3-update/bin/../lib/gcc/arm-none-eabi/8.3.1/../../../../arm-none-eabi/lib/thumb/v7e-m+fp/hard/libc.a(lib_a-mallocr.o)
 .ARM.attributes
                0x0000000000000000       0x34 /usr/local/Cellar/arm-gcc-bin@8/8-2019-q3-update/bin/../lib/gcc/arm-none-eabi/8.3.1/../../../../arm-none-eabi/lib/thumb/v7e-m+fp/hard/libc.a(lib_a-mallocr.o)
 .text          0x0000000000000000        0x0 /usr/local/Cellar/arm-gcc-bin@8/8-2019-q3-update/bin/../lib/gcc/arm-none-eabi/8.3.1/../../../../arm-none-eabi/lib/thumb/v7e-m+fp/hard/libc.a(lib_a-mlock.o)
 .data          0x0000000000000000        0x0 /usr/local/Cellar/arm-gcc-bin@8/8-2019-q3-update/bin/../lib/gcc/arm-none-eabi/8.3.1/../../../../arm-none-eabi/lib/thumb/v7e-m+fp/hard/libc.a(lib_a-mlock.o)
 .bss           0x0000000000000000        0x0 /usr/local/Cellar/arm-gcc-bin@8/8-2019-q3-update/bin/../lib/gcc/arm-none-eabi/8.3.1/../../../../arm-none-eabi/lib/thumb/v7e-m+fp/hard/libc.a(lib_a-mlock.o)
 .text.__malloc_lock
                0x0000000000000000        0xc /usr/local/Cellar/arm-gcc-bin@8/8-2019-q3-update/bin/../lib/gcc/arm-none-eabi/8.3.1/../../../../arm-none-eabi/lib/thumb/v7e-m+fp/hard/libc.a(lib_a-mlock.o)
 .text.__malloc_unlock
                0x0000000000000000        0xc /usr/local/Cellar/arm-gcc-bin@8/8-2019-q3-update/bin/../lib/gcc/arm-none-eabi/8.3.1/../../../../arm-none-eabi/lib/thumb/v7e-m+fp/hard/libc.a(lib_a-mlock.o)
 .debug_frame   0x0000000000000000       0x30 /usr/local/Cellar/arm-gcc-bin@8/8-2019-q3-update/bin/../lib/gcc/arm-none-eabi/8.3.1/../../../../arm-none-eabi/lib/thumb/v7e-m+fp/hard/libc.a(lib_a-mlock.o)
 .ARM.attributes
                0x0000000000000000       0x34 /usr/local/Cellar/arm-gcc-bin@8/8-2019-q3-update/bin/../lib/gcc/arm-none-eabi/8.3.1/../../../../arm-none-eabi/lib/thumb/v7e-m+fp/hard/libc.a(lib_a-mlock.o)
 .text          0x0000000000000000        0x0 /usr/local/Cellar/arm-gcc-bin@8/8-2019-q3-update/bin/../lib/gcc/arm-none-eabi/8.3.1/../../../../arm-none-eabi/lib/thumb/v7e-m+fp/hard/libc.a(lib_a-sbrkr.o)
 .data          0x0000000000000000        0x0 /usr/local/Cellar/arm-gcc-bin@8/8-2019-q3-update/bin/../lib/gcc/arm-none-eabi/8.3.1/../../../../arm-none-eabi/lib/thumb/v7e-m+fp/hard/libc.a(lib_a-sbrkr.o)
 .bss           0x0000000000000000        0x0 /usr/local/Cellar/arm-gcc-bin@8/8-2019-q3-update/bin/../lib/gcc/arm-none-eabi/8.3.1/../../../../arm-none-eabi/lib/thumb/v7e-m+fp/hard/libc.a(lib_a-sbrkr.o)
 .text._sbrk_r  0x0000000000000000       0x24 /usr/local/Cellar/arm-gcc-bin@8/8-2019-q3-update/bin/../lib/gcc/arm-none-eabi/8.3.1/../../../../arm-none-eabi/lib/thumb/v7e-m+fp/hard/libc.a(lib_a-sbrkr.o)
 .debug_frame   0x0000000000000000       0x2c /usr/local/Cellar/arm-gcc-bin@8/8-2019-q3-update/bin/../lib/gcc/arm-none-eabi/8.3.1/../../../../arm-none-eabi/lib/thumb/v7e-m+fp/hard/libc.a(lib_a-sbrkr.o)
 .ARM.attributes
                0x0000000000000000       0x34 /usr/local/Cellar/arm-gcc-bin@8/8-2019-q3-update/bin/../lib/gcc/arm-none-eabi/8.3.1/../../../../arm-none-eabi/lib/thumb/v7e-m+fp/hard/libc.a(lib_a-sbrkr.o)
 .text          0x0000000000000000        0x0 /usr/local/Cellar/arm-gcc-bin@8/8-2019-q3-update/bin/../lib/gcc/arm-none-eabi/8.3.1/../../../../arm-none-eabi/lib/thumb/v7e-m+fp/hard/libc.a(lib_a-stdio.o)
 .data          0x0000000000000000        0x0 /usr/local/Cellar/arm-gcc-bin@8/8-2019-q3-update/bin/../lib/gcc/arm-none-eabi/8.3.1/../../../../arm-none-eabi/lib/thumb/v7e-m+fp/hard/libc.a(lib_a-stdio.o)
 .bss           0x0000000000000000        0x0 /usr/local/Cellar/arm-gcc-bin@8/8-2019-q3-update/bin/../lib/gcc/arm-none-eabi/8.3.1/../../../../arm-none-eabi/lib/thumb/v7e-m+fp/hard/libc.a(lib_a-stdio.o)
 .text.__sread  0x0000000000000000       0x24 /usr/local/Cellar/arm-gcc-bin@8/8-2019-q3-update/bin/../lib/gcc/arm-none-eabi/8.3.1/../../../../arm-none-eabi/lib/thumb/v7e-m+fp/hard/libc.a(lib_a-stdio.o)
 .text.__seofread
                0x0000000000000000        0x4 /usr/local/Cellar/arm-gcc-bin@8/8-2019-q3-update/bin/../lib/gcc/arm-none-eabi/8.3.1/../../../../arm-none-eabi/lib/thumb/v7e-m+fp/hard/libc.a(lib_a-stdio.o)
 .text.__swrite
                0x0000000000000000       0x40 /usr/local/Cellar/arm-gcc-bin@8/8-2019-q3-update/bin/../lib/gcc/arm-none-eabi/8.3.1/../../../../arm-none-eabi/lib/thumb/v7e-m+fp/hard/libc.a(lib_a-stdio.o)
 .text.__sseek  0x0000000000000000       0x20 /usr/local/Cellar/arm-gcc-bin@8/8-2019-q3-update/bin/../lib/gcc/arm-none-eabi/8.3.1/../../../../arm-none-eabi/lib/thumb/v7e-m+fp/hard/libc.a(lib_a-stdio.o)
 .text.__sclose
                0x0000000000000000        0x8 /usr/local/Cellar/arm-gcc-bin@8/8-2019-q3-update/bin/../lib/gcc/arm-none-eabi/8.3.1/../../../../arm-none-eabi/lib/thumb/v7e-m+fp/hard/libc.a(lib_a-stdio.o)
 .debug_frame   0x0000000000000000       0x8c /usr/local/Cellar/arm-gcc-bin@8/8-2019-q3-update/bin/../lib/gcc/arm-none-eabi/8.3.1/../../../../arm-none-eabi/lib/thumb/v7e-m+fp/hard/libc.a(lib_a-stdio.o)
 .ARM.attributes
                0x0000000000000000       0x34 /usr/local/Cellar/arm-gcc-bin@8/8-2019-q3-update/bin/../lib/gcc/arm-none-eabi/8.3.1/../../../../arm-none-eabi/lib/thumb/v7e-m+fp/hard/libc.a(lib_a-stdio.o)
 .text          0x0000000000000000       0xdc /usr/local/Cellar/arm-gcc-bin@8/8-2019-q3-update/bin/../lib/gcc/arm-none-eabi/8.3.1/../../../../arm-none-eabi/lib/thumb/v7e-m+fp/hard/libc.a(lib_a-strlen.o)
 .data          0x0000000000000000        0x0 /usr/local/Cellar/arm-gcc-bin@8/8-2019-q3-update/bin/../lib/gcc/arm-none-eabi/8.3.1/../../../../arm-none-eabi/lib/thumb/v7e-m+fp/hard/libc.a(lib_a-strlen.o)
 .bss           0x0000000000000000        0x0 /usr/local/Cellar/arm-gcc-bin@8/8-2019-q3-update/bin/../lib/gcc/arm-none-eabi/8.3.1/../../../../arm-none-eabi/lib/thumb/v7e-m+fp/hard/libc.a(lib_a-strlen.o)
 .ARM.attributes
                0x0000000000000000       0x1c /usr/local/Cellar/arm-gcc-bin@8/8-2019-q3-update/bin/../lib/gcc/arm-none-eabi/8.3.1/../../../../arm-none-eabi/lib/thumb/v7e-m+fp/hard/libc.a(lib_a-strlen.o)
 .text          0x0000000000000000        0x0 /usr/local/Cellar/arm-gcc-bin@8/8-2019-q3-update/bin/../lib/gcc/arm-none-eabi/8.3.1/../../../../arm-none-eabi/lib/thumb/v7e-m+fp/hard/libc.a(lib_a-writer.o)
 .data          0x0000000000000000        0x0 /usr/local/Cellar/arm-gcc-bin@8/8-2019-q3-update/bin/../lib/gcc/arm-none-eabi/8.3.1/../../../../arm-none-eabi/lib/thumb/v7e-m+fp/hard/libc.a(lib_a-writer.o)
 .bss           0x0000000000000000        0x0 /usr/local/Cellar/arm-gcc-bin@8/8-2019-q3-update/bin/../lib/gcc/arm-none-eabi/8.3.1/../../../../arm-none-eabi/lib/thumb/v7e-m+fp/hard/libc.a(lib_a-writer.o)
 .text._write_r
                0x0000000000000000       0x2c /usr/local/Cellar/arm-gcc-bin@8/8-2019-q3-update/bin/../lib/gcc/arm-none-eabi/8.3.1/../../../../arm-none-eabi/lib/thumb/v7e-m+fp/hard/libc.a(lib_a-writer.o)
 .debug_frame   0x0000000000000000       0x2c /usr/local/Cellar/arm-gcc-bin@8/8-2019-q3-update/bin/../lib/gcc/arm-none-eabi/8.3.1/../../../../arm-none-eabi/lib/thumb/v7e-m+fp/hard/libc.a(lib_a-writer.o)
 .ARM.attributes
                0x0000000000000000       0x34 /usr/local/Cellar/arm-gcc-bin@8/8-2019-q3-update/bin/../lib/gcc/arm-none-eabi/8.3.1/../../../../arm-none-eabi/lib/thumb/v7e-m+fp/hard/libc.a(lib_a-writer.o)
 .text          0x0000000000000000        0x0 /usr/local/Cellar/arm-gcc-bin@8/8-2019-q3-update/bin/../lib/gcc/arm-none-eabi/8.3.1/../../../../arm-none-eabi/lib/thumb/v7e-m+fp/hard/libc.a(lib_a-closer.o)
 .data          0x0000000000000000        0x0 /usr/local/Cellar/arm-gcc-bin@8/8-2019-q3-update/bin/../lib/gcc/arm-none-eabi/8.3.1/../../../../arm-none-eabi/lib/thumb/v7e-m+fp/hard/libc.a(lib_a-closer.o)
 .bss           0x0000000000000000        0x0 /usr/local/Cellar/arm-gcc-bin@8/8-2019-q3-update/bin/../lib/gcc/arm-none-eabi/8.3.1/../../../../arm-none-eabi/lib/thumb/v7e-m+fp/hard/libc.a(lib_a-closer.o)
 .text._close_r
                0x0000000000000000       0x24 /usr/local/Cellar/arm-gcc-bin@8/8-2019-q3-update/bin/../lib/gcc/arm-none-eabi/8.3.1/../../../../arm-none-eabi/lib/thumb/v7e-m+fp/hard/libc.a(lib_a-closer.o)
 .debug_frame   0x0000000000000000       0x2c /usr/local/Cellar/arm-gcc-bin@8/8-2019-q3-update/bin/../lib/gcc/arm-none-eabi/8.3.1/../../../../arm-none-eabi/lib/thumb/v7e-m+fp/hard/libc.a(lib_a-closer.o)
 .ARM.attributes
                0x0000000000000000       0x34 /usr/local/Cellar/arm-gcc-bin@8/8-2019-q3-update/bin/../lib/gcc/arm-none-eabi/8.3.1/../../../../arm-none-eabi/lib/thumb/v7e-m+fp/hard/libc.a(lib_a-closer.o)
 .text          0x0000000000000000        0x0 /usr/local/Cellar/arm-gcc-bin@8/8-2019-q3-update/bin/../lib/gcc/arm-none-eabi/8.3.1/../../../../arm-none-eabi/lib/thumb/v7e-m+fp/hard/libc.a(lib_a-fclose.o)
 .data          0x0000000000000000        0x0 /usr/local/Cellar/arm-gcc-bin@8/8-2019-q3-update/bin/../lib/gcc/arm-none-eabi/8.3.1/../../../../arm-none-eabi/lib/thumb/v7e-m+fp/hard/libc.a(lib_a-fclose.o)
 .bss           0x0000000000000000        0x0 /usr/local/Cellar/arm-gcc-bin@8/8-2019-q3-update/bin/../lib/gcc/arm-none-eabi/8.3.1/../../../../arm-none-eabi/lib/thumb/v7e-m+fp/hard/libc.a(lib_a-fclose.o)
 .text._fclose_r
                0x0000000000000000       0xd0 /usr/local/Cellar/arm-gcc-bin@8/8-2019-q3-update/bin/../lib/gcc/arm-none-eabi/8.3.1/../../../../arm-none-eabi/lib/thumb/v7e-m+fp/hard/libc.a(lib_a-fclose.o)
 .text.fclose   0x0000000000000000       0x10 /usr/local/Cellar/arm-gcc-bin@8/8-2019-q3-update/bin/../lib/gcc/arm-none-eabi/8.3.1/../../../../arm-none-eabi/lib/thumb/v7e-m+fp/hard/libc.a(lib_a-fclose.o)
 .debug_frame   0x0000000000000000       0x3c /usr/local/Cellar/arm-gcc-bin@8/8-2019-q3-update/bin/../lib/gcc/arm-none-eabi/8.3.1/../../../../arm-none-eabi/lib/thumb/v7e-m+fp/hard/libc.a(lib_a-fclose.o)
 .ARM.attributes
                0x0000000000000000       0x34 /usr/local/Cellar/arm-gcc-bin@8/8-2019-q3-update/bin/../lib/gcc/arm-none-eabi/8.3.1/../../../../arm-none-eabi/lib/thumb/v7e-m+fp/hard/libc.a(lib_a-fclose.o)
 .text          0x0000000000000000        0x0 /usr/local/Cellar/arm-gcc-bin@8/8-2019-q3-update/bin/../lib/gcc/arm-none-eabi/8.3.1/../../../../arm-none-eabi/lib/thumb/v7e-m+fp/hard/libc.a(lib_a-fflush.o)
 .data          0x0000000000000000        0x0 /usr/local/Cellar/arm-gcc-bin@8/8-2019-q3-update/bin/../lib/gcc/arm-none-eabi/8.3.1/../../../../arm-none-eabi/lib/thumb/v7e-m+fp/hard/libc.a(lib_a-fflush.o)
 .bss           0x0000000000000000        0x0 /usr/local/Cellar/arm-gcc-bin@8/8-2019-q3-update/bin/../lib/gcc/arm-none-eabi/8.3.1/../../../../arm-none-eabi/lib/thumb/v7e-m+fp/hard/libc.a(lib_a-fflush.o)
 .text.__sflush_r
                0x0000000000000000      0x14c /usr/local/Cellar/arm-gcc-bin@8/8-2019-q3-update/bin/../lib/gcc/arm-none-eabi/8.3.1/../../../../arm-none-eabi/lib/thumb/v7e-m+fp/hard/libc.a(lib_a-fflush.o)
 .text._fflush_r
                0x0000000000000000       0x5c /usr/local/Cellar/arm-gcc-bin@8/8-2019-q3-update/bin/../lib/gcc/arm-none-eabi/8.3.1/../../../../arm-none-eabi/lib/thumb/v7e-m+fp/hard/libc.a(lib_a-fflush.o)
 .text.fflush   0x0000000000000000       0x24 /usr/local/Cellar/arm-gcc-bin@8/8-2019-q3-update/bin/../lib/gcc/arm-none-eabi/8.3.1/../../../../arm-none-eabi/lib/thumb/v7e-m+fp/hard/libc.a(lib_a-fflush.o)
 .debug_frame   0x0000000000000000       0x5c /usr/local/Cellar/arm-gcc-bin@8/8-2019-q3-update/bin/../lib/gcc/arm-none-eabi/8.3.1/../../../../arm-none-eabi/lib/thumb/v7e-m+fp/hard/libc.a(lib_a-fflush.o)
 .ARM.attributes
                0x0000000000000000       0x34 /usr/local/Cellar/arm-gcc-bin@8/8-2019-q3-update/bin/../lib/gcc/arm-none-eabi/8.3.1/../../../../arm-none-eabi/lib/thumb/v7e-m+fp/hard/libc.a(lib_a-fflush.o)
 .text          0x0000000000000000        0x0 /usr/local/Cellar/arm-gcc-bin@8/8-2019-q3-update/bin/../lib/gcc/arm-none-eabi/8.3.1/../../../../arm-none-eabi/lib/thumb/v7e-m+fp/hard/libc.a(lib_a-freer.o)
 .data          0x0000000000000000        0x0 /usr/local/Cellar/arm-gcc-bin@8/8-2019-q3-update/bin/../lib/gcc/arm-none-eabi/8.3.1/../../../../arm-none-eabi/lib/thumb/v7e-m+fp/hard/libc.a(lib_a-freer.o)
 .bss           0x0000000000000000        0x0 /usr/local/Cellar/arm-gcc-bin@8/8-2019-q3-update/bin/../lib/gcc/arm-none-eabi/8.3.1/../../../../arm-none-eabi/lib/thumb/v7e-m+fp/hard/libc.a(lib_a-freer.o)
 .text._malloc_trim_r
                0x0000000000000000       0xa0 /usr/local/Cellar/arm-gcc-bin@8/8-2019-q3-update/bin/../lib/gcc/arm-none-eabi/8.3.1/../../../../arm-none-eabi/lib/thumb/v7e-m+fp/hard/libc.a(lib_a-freer.o)
 .text._free_r  0x0000000000000000      0x1f4 /usr/local/Cellar/arm-gcc-bin@8/8-2019-q3-update/bin/../lib/gcc/arm-none-eabi/8.3.1/../../../../arm-none-eabi/lib/thumb/v7e-m+fp/hard/libc.a(lib_a-freer.o)
 .debug_frame   0x0000000000000000       0x8c /usr/local/Cellar/arm-gcc-bin@8/8-2019-q3-update/bin/../lib/gcc/arm-none-eabi/8.3.1/../../../../arm-none-eabi/lib/thumb/v7e-m+fp/hard/libc.a(lib_a-freer.o)
 .ARM.attributes
                0x0000000000000000       0x34 /usr/local/Cellar/arm-gcc-bin@8/8-2019-q3-update/bin/../lib/gcc/arm-none-eabi/8.3.1/../../../../arm-none-eabi/lib/thumb/v7e-m+fp/hard/libc.a(lib_a-freer.o)
 .text          0x0000000000000000        0x0 /usr/local/Cellar/arm-gcc-bin@8/8-2019-q3-update/bin/../lib/gcc/arm-none-eabi/8.3.1/../../../../arm-none-eabi/lib/thumb/v7e-m+fp/hard/libc.a(lib_a-lseekr.o)
 .data          0x0000000000000000        0x0 /usr/local/Cellar/arm-gcc-bin@8/8-2019-q3-update/bin/../lib/gcc/arm-none-eabi/8.3.1/../../../../arm-none-eabi/lib/thumb/v7e-m+fp/hard/libc.a(lib_a-lseekr.o)
 .bss           0x0000000000000000        0x0 /usr/local/Cellar/arm-gcc-bin@8/8-2019-q3-update/bin/../lib/gcc/arm-none-eabi/8.3.1/../../../../arm-none-eabi/lib/thumb/v7e-m+fp/hard/libc.a(lib_a-lseekr.o)
 .text._lseek_r
                0x0000000000000000       0x2c /usr/local/Cellar/arm-gcc-bin@8/8-2019-q3-update/bin/../lib/gcc/arm-none-eabi/8.3.1/../../../../arm-none-eabi/lib/thumb/v7e-m+fp/hard/libc.a(lib_a-lseekr.o)
 .debug_frame   0x0000000000000000       0x2c /usr/local/Cellar/arm-gcc-bin@8/8-2019-q3-update/bin/../lib/gcc/arm-none-eabi/8.3.1/../../../../arm-none-eabi/lib/thumb/v7e-m+fp/hard/libc.a(lib_a-lseekr.o)
 .ARM.attributes
                0x0000000000000000       0x34 /usr/local/Cellar/arm-gcc-bin@8/8-2019-q3-update/bin/../lib/gcc/arm-none-eabi/8.3.1/../../../../arm-none-eabi/lib/thumb/v7e-m+fp/hard/libc.a(lib_a-lseekr.o)
 .text          0x0000000000000000        0x0 /usr/local/Cellar/arm-gcc-bin@8/8-2019-q3-update/bin/../lib/gcc/arm-none-eabi/8.3.1/../../../../arm-none-eabi/lib/thumb/v7e-m+fp/hard/libc.a(lib_a-readr.o)
 .data          0x0000000000000000        0x0 /usr/local/Cellar/arm-gcc-bin@8/8-2019-q3-update/bin/../lib/gcc/arm-none-eabi/8.3.1/../../../../arm-none-eabi/lib/thumb/v7e-m+fp/hard/libc.a(lib_a-readr.o)
 .bss           0x0000000000000000        0x0 /usr/local/Cellar/arm-gcc-bin@8/8-2019-q3-update/bin/../lib/gcc/arm-none-eabi/8.3.1/../../../../arm-none-eabi/lib/thumb/v7e-m+fp/hard/libc.a(lib_a-readr.o)
 .text._read_r  0x0000000000000000       0x2c /usr/local/Cellar/arm-gcc-bin@8/8-2019-q3-update/bin/../lib/gcc/arm-none-eabi/8.3.1/../../../../arm-none-eabi/lib/thumb/v7e-m+fp/hard/libc.a(lib_a-readr.o)
 .debug_frame   0x0000000000000000       0x2c /usr/local/Cellar/arm-gcc-bin@8/8-2019-q3-update/bin/../lib/gcc/arm-none-eabi/8.3.1/../../../../arm-none-eabi/lib/thumb/v7e-m+fp/hard/libc.a(lib_a-readr.o)
 .ARM.attributes
                0x0000000000000000       0x34 /usr/local/Cellar/arm-gcc-bin@8/8-2019-q3-update/bin/../lib/gcc/arm-none-eabi/8.3.1/../../../../arm-none-eabi/lib/thumb/v7e-m+fp/hard/libc.a(lib_a-readr.o)
 .text          0x0000000000000000        0x0 /usr/local/Cellar/arm-gcc-bin@8/8-2019-q3-update/bin/../lib/gcc/arm-none-eabi/8.3.1/../../../../arm-none-eabi/lib/thumb/v7e-m+fp/hard/libc.a(lib_a-reent.o)
 .data          0x0000000000000000        0x0 /usr/local/Cellar/arm-gcc-bin@8/8-2019-q3-update/bin/../lib/gcc/arm-none-eabi/8.3.1/../../../../arm-none-eabi/lib/thumb/v7e-m+fp/hard/libc.a(lib_a-reent.o)
 .bss           0x0000000000000000        0x0 /usr/local/Cellar/arm-gcc-bin@8/8-2019-q3-update/bin/../lib/gcc/arm-none-eabi/8.3.1/../../../../arm-none-eabi/lib/thumb/v7e-m+fp/hard/libc.a(lib_a-reent.o)
 .text.cleanup_glue
                0x0000000000000000       0x1c /usr/local/Cellar/arm-gcc-bin@8/8-2019-q3-update/bin/../lib/gcc/arm-none-eabi/8.3.1/../../../../arm-none-eabi/lib/thumb/v7e-m+fp/hard/libc.a(lib_a-reent.o)
 .text._reclaim_reent
                0x0000000000000000       0x88 /usr/local/Cellar/arm-gcc-bin@8/8-2019-q3-update/bin/../lib/gcc/arm-none-eabi/8.3.1/../../../../arm-none-eabi/lib/thumb/v7e-m+fp/hard/libc.a(lib_a-reent.o)
 .debug_frame   0x0000000000000000       0x60 /usr/local/Cellar/arm-gcc-bin@8/8-2019-q3-update/bin/../lib/gcc/arm-none-eabi/8.3.1/../../../../arm-none-eabi/lib/thumb/v7e-m+fp/hard/libc.a(lib_a-reent.o)
 .ARM.attributes
                0x0000000000000000       0x34 /usr/local/Cellar/arm-gcc-bin@8/8-2019-q3-update/bin/../lib/gcc/arm-none-eabi/8.3.1/../../../../arm-none-eabi/lib/thumb/v7e-m+fp/hard/libc.a(lib_a-reent.o)
 COMMON         0x0000000000000000        0x4 /usr/local/Cellar/arm-gcc-bin@8/8-2019-q3-update/bin/../lib/gcc/arm-none-eabi/8.3.1/../../../../arm-none-eabi/lib/thumb/v7e-m+fp/hard/libc.a(lib_a-reent.o)
 .text          0x0000000000000000        0x0 /usr/local/Cellar/arm-gcc-bin@8/8-2019-q3-update/bin/../lib/gcc/arm-none-eabi/8.3.1/thumb/v7e-m+fp/hard/crtend.o
 .data          0x0000000000000000        0x0 /usr/local/Cellar/arm-gcc-bin@8/8-2019-q3-update/bin/../lib/gcc/arm-none-eabi/8.3.1/thumb/v7e-m+fp/hard/crtend.o
 .bss           0x0000000000000000        0x0 /usr/local/Cellar/arm-gcc-bin@8/8-2019-q3-update/bin/../lib/gcc/arm-none-eabi/8.3.1/thumb/v7e-m+fp/hard/crtend.o
 .eh_frame      0x0000000000000000        0x4 /usr/local/Cellar/arm-gcc-bin@8/8-2019-q3-update/bin/../lib/gcc/arm-none-eabi/8.3.1/thumb/v7e-m+fp/hard/crtend.o
 .ARM.attributes
                0x0000000000000000       0x32 /usr/local/Cellar/arm-gcc-bin@8/8-2019-q3-update/bin/../lib/gcc/arm-none-eabi/8.3.1/thumb/v7e-m+fp/hard/crtend.o
 .text          0x0000000000000000        0x0 /usr/local/Cellar/arm-gcc-bin@8/8-2019-q3-update/bin/../lib/gcc/arm-none-eabi/8.3.1/thumb/v7e-m+fp/hard/crtn.o
 .data          0x0000000000000000        0x0 /usr/local/Cellar/arm-gcc-bin@8/8-2019-q3-update/bin/../lib/gcc/arm-none-eabi/8.3.1/thumb/v7e-m+fp/hard/crtn.o
 .bss           0x0000000000000000        0x0 /usr/local/Cellar/arm-gcc-bin@8/8-2019-q3-update/bin/../lib/gcc/arm-none-eabi/8.3.1/thumb/v7e-m+fp/hard/crtn.o

Memory Configuration

Name             Origin             Length             Attributes
rom              0x0000000000004000 0x000000000003c000 xr
ram              0x0000000020000000 0x0000000000020000 xrw
bkupram          0x0000000047000000 0x0000000000002000 xrw
qspi             0x0000000004000000 0x0000000001000000 xrw
*default*        0x0000000000000000 0xffffffffffffffff

Linker script and memory map

LOAD /usr/local/Cellar/arm-gcc-bin@8/8-2019-q3-update/bin/../lib/gcc/arm-none-eabi/8.3.1/thumb/v7e-m+fp/hard/crti.o
LOAD /usr/local/Cellar/arm-gcc-bin@8/8-2019-q3-update/bin/../lib/gcc/arm-none-eabi/8.3.1/thumb/v7e-m+fp/hard/crtbegin.o
LOAD /usr/local/Cellar/arm-gcc-bin@8/8-2019-q3-update/bin/../lib/gcc/arm-none-eabi/8.3.1/../../../../arm-none-eabi/lib/thumb/v7e-m+fp/hard/rdimon-crt0.o
LOAD .build/obj_massdrop_ctrl_greyasteroid/matrix.o
LOAD .build/obj_massdrop_ctrl_greyasteroid/config_led.o
LOAD .build/obj_massdrop_ctrl_greyasteroid/keyboards/massdrop/ctrl/keymaps/greyasteroid/keymap.o
LOAD .build/obj_massdrop_ctrl_greyasteroid/quantum/quantum.o
LOAD .build/obj_massdrop_ctrl_greyasteroid/quantum/keymap_common.o
LOAD .build/obj_massdrop_ctrl_greyasteroid/quantum/keycode_config.o
LOAD .build/obj_massdrop_ctrl_greyasteroid/quantum/debounce/sym_g.o
LOAD .build/obj_massdrop_ctrl_greyasteroid/common/arm_atsam/eeprom.o
LOAD .build/obj_massdrop_ctrl_greyasteroid/quantum/color.o
LOAD .build/obj_massdrop_ctrl_greyasteroid/quantum/rgb_matrix.o
LOAD .build/obj_massdrop_ctrl_greyasteroid/quantum/rgb_matrix_drivers.o
LOAD .build/obj_massdrop_ctrl_greyasteroid/quantum/process_keycode/process_rgb.o
LOAD .build/obj_massdrop_ctrl_greyasteroid/quantum/led_tables.o
LOAD .build/obj_massdrop_ctrl_greyasteroid/quantum/process_keycode/process_space_cadet.o
LOAD .build/obj_massdrop_ctrl_greyasteroid/quantum/process_keycode/process_magic.o
LOAD .build/obj_massdrop_ctrl_greyasteroid/quantum/process_keycode/process_grave_esc.o
LOAD .build/obj_massdrop_ctrl_greyasteroid/common/host.o
LOAD .build/obj_massdrop_ctrl_greyasteroid/common/keyboard.o
LOAD .build/obj_massdrop_ctrl_greyasteroid/common/action.o
LOAD .build/obj_massdrop_ctrl_greyasteroid/common/action_tapping.o
LOAD .build/obj_massdrop_ctrl_greyasteroid/common/action_macro.o
LOAD .build/obj_massdrop_ctrl_greyasteroid/common/action_layer.o
LOAD .build/obj_massdrop_ctrl_greyasteroid/common/action_util.o
LOAD .build/obj_massdrop_ctrl_greyasteroid/common/print.o
LOAD .build/obj_massdrop_ctrl_greyasteroid/common/debug.o
LOAD .build/obj_massdrop_ctrl_greyasteroid/common/sendchar_null.o
LOAD .build/obj_massdrop_ctrl_greyasteroid/common/util.o
LOAD .build/obj_massdrop_ctrl_greyasteroid/common/eeconfig.o
LOAD .build/obj_massdrop_ctrl_greyasteroid/common/report.o
LOAD .build/obj_massdrop_ctrl_greyasteroid/common/arm_atsam/suspend.o
LOAD .build/obj_massdrop_ctrl_greyasteroid/common/arm_atsam/timer.o
LOAD .build/obj_massdrop_ctrl_greyasteroid/common/arm_atsam/bootloader.o
LOAD .build/obj_massdrop_ctrl_greyasteroid/common/arm_atsam/printf.o
LOAD .build/obj_massdrop_ctrl_greyasteroid/common/magic.o
LOAD .build/obj_massdrop_ctrl_greyasteroid/protocol/arm_atsam/adc.o
LOAD .build/obj_massdrop_ctrl_greyasteroid/protocol/arm_atsam/clks.o
LOAD .build/obj_massdrop_ctrl_greyasteroid/protocol/arm_atsam/d51_util.o
LOAD .build/obj_massdrop_ctrl_greyasteroid/protocol/arm_atsam/i2c_master.o
LOAD .build/obj_massdrop_ctrl_greyasteroid/protocol/arm_atsam/led_matrix_programs.o
LOAD .build/obj_massdrop_ctrl_greyasteroid/protocol/arm_atsam/led_matrix.o
LOAD .build/obj_massdrop_ctrl_greyasteroid/protocol/arm_atsam/main_arm_atsam.o
LOAD .build/obj_massdrop_ctrl_greyasteroid/protocol/arm_atsam/spi.o
LOAD .build/obj_massdrop_ctrl_greyasteroid/protocol/arm_atsam/startup.o
LOAD .build/obj_massdrop_ctrl_greyasteroid/protocol/arm_atsam/usb/main_usb.o
LOAD .build/obj_massdrop_ctrl_greyasteroid/protocol/arm_atsam/usb/udc.o
LOAD .build/obj_massdrop_ctrl_greyasteroid/protocol/arm_atsam/usb/udi_cdc.o
LOAD .build/obj_massdrop_ctrl_greyasteroid/protocol/arm_atsam/usb/udi_hid.o
LOAD .build/obj_massdrop_ctrl_greyasteroid/protocol/arm_atsam/usb/udi_hid_kbd.o
LOAD .build/obj_massdrop_ctrl_greyasteroid/protocol/arm_atsam/usb/udi_hid_kbd_desc.o
LOAD .build/obj_massdrop_ctrl_greyasteroid/protocol/arm_atsam/usb/ui.o
LOAD .build/obj_massdrop_ctrl_greyasteroid/protocol/arm_atsam/usb/usb2422.o
LOAD .build/obj_massdrop_ctrl_greyasteroid/protocol/arm_atsam/usb/usb.o
LOAD .build/obj_massdrop_ctrl_greyasteroid/protocol/arm_atsam/usb/usb_device_udd.o
LOAD .build/obj_massdrop_ctrl_greyasteroid/protocol/arm_atsam/usb/usb_util.o
START GROUP
END GROUP
LOAD /usr/local/Cellar/arm-gcc-bin@8/8-2019-q3-update/bin/../lib/gcc/arm-none-eabi/8.3.1/../../../../arm-none-eabi/lib/thumb/v7e-m+fp/hard/libm.a
START GROUP
LOAD /usr/local/Cellar/arm-gcc-bin@8/8-2019-q3-update/bin/../lib/gcc/arm-none-eabi/8.3.1/thumb/v7e-m+fp/hard/libgcc.a
LOAD /usr/local/Cellar/arm-gcc-bin@8/8-2019-q3-update/bin/../lib/gcc/arm-none-eabi/8.3.1/../../../../arm-none-eabi/lib/thumb/v7e-m+fp/hard/libg.a
LOAD /usr/local/Cellar/arm-gcc-bin@8/8-2019-q3-update/bin/../lib/gcc/arm-none-eabi/8.3.1/../../../../arm-none-eabi/lib/thumb/v7e-m+fp/hard/libc.a
END GROUP
START GROUP
LOAD /usr/local/Cellar/arm-gcc-bin@8/8-2019-q3-update/bin/../lib/gcc/arm-none-eabi/8.3.1/thumb/v7e-m+fp/hard/libgcc.a
LOAD /usr/local/Cellar/arm-gcc-bin@8/8-2019-q3-update/bin/../lib/gcc/arm-none-eabi/8.3.1/../../../../arm-none-eabi/lib/thumb/v7e-m+fp/hard/libc.a
LOAD /usr/local/Cellar/arm-gcc-bin@8/8-2019-q3-update/bin/../lib/gcc/arm-none-eabi/8.3.1/../../../../arm-none-eabi/lib/thumb/v7e-m+fp/hard/librdimon.a
END GROUP
LOAD /usr/local/Cellar/arm-gcc-bin@8/8-2019-q3-update/bin/../lib/gcc/arm-none-eabi/8.3.1/thumb/v7e-m+fp/hard/crtend.o
LOAD /usr/local/Cellar/arm-gcc-bin@8/8-2019-q3-update/bin/../lib/gcc/arm-none-eabi/8.3.1/thumb/v7e-m+fp/hard/crtn.o
                0x0000000000008000                STACK_SIZE = DEFINED (STACK_SIZE)?STACK_SIZE:DEFINED (__stack_size__)?__stack_size__:0x8000
                0x0000000000000800                HEAP_SIZE = DEFINED (HEAP_SIZE)?HEAP_SIZE:DEFINED (__heap_size__)?__heap_size__:0x800
                0x0000000000004000                _srom = ORIGIN (rom)
                0x000000000003c000                _lrom = LENGTH (rom)
                0x0000000000040000                _erom = (ORIGIN (rom) + LENGTH (rom))
                0x0000000020000000                _sram = ORIGIN (ram)
                0x0000000000020000                _lram = LENGTH (ram)
                0x0000000020020000                _eram = (ORIGIN (ram) + LENGTH (ram))

.text           0x0000000000004000     0x7d90
                0x0000000000004000                . = ALIGN (0x4)
                0x0000000000004000                _sfixed = .
 *(.vectors .vectors.*)
 .vectors       0x0000000000004000      0x264 .build/obj_massdrop_ctrl_greyasteroid/protocol/arm_atsam/startup.o
                0x0000000000004000                exception_table
 *(.text .text.* .gnu.linkonce.t.*)
 .text          0x0000000000004264       0x40 /usr/local/Cellar/arm-gcc-bin@8/8-2019-q3-update/bin/../lib/gcc/arm-none-eabi/8.3.1/thumb/v7e-m+fp/hard/crtbegin.o
 .text.matrix_init_user
                0x00000000000042a4        0x2 .build/obj_massdrop_ctrl_greyasteroid/matrix.o
                0x00000000000042a4                matrix_init_user
 .text.matrix_init_kb
                0x00000000000042a6        0x8 .build/obj_massdrop_ctrl_greyasteroid/matrix.o
                0x00000000000042a6                matrix_init_kb
 .text.matrix_scan_user
                0x00000000000042ae        0x2 .build/obj_massdrop_ctrl_greyasteroid/matrix.o
                0x00000000000042ae                matrix_scan_user
 .text.matrix_scan_kb
                0x00000000000042b0        0x8 .build/obj_massdrop_ctrl_greyasteroid/matrix.o
                0x00000000000042b0                matrix_scan_kb
 .text.matrix_init
                0x00000000000042b8       0xd4 .build/obj_massdrop_ctrl_greyasteroid/matrix.o
                0x00000000000042b8                matrix_init
 .text.matrix_scan
                0x000000000000438c      0x148 .build/obj_massdrop_ctrl_greyasteroid/matrix.o
                0x000000000000438c                matrix_scan
 .text.matrix_get_row
                0x00000000000044d4        0xc .build/obj_massdrop_ctrl_greyasteroid/matrix.o
                0x00000000000044d4                matrix_get_row
 .text.matrix_print
                0x00000000000044e0        0x2 .build/obj_massdrop_ctrl_greyasteroid/matrix.o
                0x00000000000044e0                matrix_print
 .text.rgb_matrix_indicators_kb
                0x00000000000044e2        0x4 .build/obj_massdrop_ctrl_greyasteroid/config_led.o
                0x00000000000044e2                rgb_matrix_indicators_kb
 .text.process_action_kb
                0x00000000000044e6        0x4 .build/obj_massdrop_ctrl_greyasteroid/quantum/quantum.o
                0x00000000000044e6                process_action_kb
 .text.process_record_user
                0x00000000000044ea        0x4 .build/obj_massdrop_ctrl_greyasteroid/quantum/quantum.o
                0x00000000000044ea                process_record_user
 .text.process_record_kb
                0x00000000000044ee        0x8 .build/obj_massdrop_ctrl_greyasteroid/quantum/quantum.o
                0x00000000000044ee                process_record_kb
 .text.post_process_record_user
                0x00000000000044f6        0x2 .build/obj_massdrop_ctrl_greyasteroid/quantum/quantum.o
                0x00000000000044f6                post_process_record_user
 .text.post_process_record_kb
                0x00000000000044f8        0x8 .build/obj_massdrop_ctrl_greyasteroid/quantum/quantum.o
                0x00000000000044f8                post_process_record_kb
 .text.get_event_keycode
                0x0000000000004500       0x4c .build/obj_massdrop_ctrl_greyasteroid/quantum/quantum.o
                0x0000000000004500                get_event_keycode
 .text.get_record_keycode
                0x000000000000454c        0xc .build/obj_massdrop_ctrl_greyasteroid/quantum/quantum.o
                0x000000000000454c                get_record_keycode
 .text.post_process_record_quantum
                0x0000000000004558       0x12 .build/obj_massdrop_ctrl_greyasteroid/quantum/quantum.o
                0x0000000000004558                post_process_record_quantum
 .text.matrix_init_quantum
                0x000000000000456a       0x18 .build/obj_massdrop_ctrl_greyasteroid/quantum/quantum.o
                0x000000000000456a                matrix_init_quantum
 .text.matrix_scan_quantum
                0x0000000000004582        0xe .build/obj_massdrop_ctrl_greyasteroid/quantum/quantum.o
                0x0000000000004582                matrix_scan_quantum
 .text.led_set_user
                0x0000000000004590        0x2 .build/obj_massdrop_ctrl_greyasteroid/quantum/quantum.o
                0x0000000000004590                led_set_user
 .text.led_set_kb
                0x0000000000004592        0x8 .build/obj_massdrop_ctrl_greyasteroid/quantum/quantum.o
                0x0000000000004592                led_set_kb
 .text.led_update_user
                0x000000000000459a        0x4 .build/obj_massdrop_ctrl_greyasteroid/quantum/quantum.o
                0x000000000000459a                led_update_user
 .text.led_update_kb
                0x000000000000459e        0x8 .build/obj_massdrop_ctrl_greyasteroid/quantum/quantum.o
                0x000000000000459e                led_update_kb
 .text.led_set  0x00000000000045a6       0x10 .build/obj_massdrop_ctrl_greyasteroid/quantum/quantum.o
                0x00000000000045a6                led_set
 .text.shutdown_user
                0x00000000000045b6        0x2 .build/obj_massdrop_ctrl_greyasteroid/quantum/quantum.o
                0x00000000000045b6                shutdown_user
 .text.reset_keyboard
                0x00000000000045b8       0x1a .build/obj_massdrop_ctrl_greyasteroid/quantum/quantum.o
                0x00000000000045b8                reset_keyboard
 .text.process_record_quantum
                0x00000000000045d2       0x7a .build/obj_massdrop_ctrl_greyasteroid/quantum/quantum.o
                0x00000000000045d2                process_record_quantum
 .text.action_get_macro
                0x000000000000464c        0x4 .build/obj_massdrop_ctrl_greyasteroid/quantum/keymap_common.o
                0x000000000000464c                action_get_macro
 .text.action_function
                0x0000000000004650        0x2 .build/obj_massdrop_ctrl_greyasteroid/quantum/keymap_common.o
                0x0000000000004650                action_function
 *fill*         0x0000000000004652        0x2 
 .text.keymap_key_to_keycode
                0x0000000000004654       0x20 .build/obj_massdrop_ctrl_greyasteroid/quantum/keymap_common.o
                0x0000000000004654                keymap_key_to_keycode
 .text.keymap_function_id_to_action
                0x0000000000004674        0xc .build/obj_massdrop_ctrl_greyasteroid/quantum/keymap_common.o
                0x0000000000004674                keymap_function_id_to_action
 .text.action_for_key
                0x0000000000004680      0x19c .build/obj_massdrop_ctrl_greyasteroid/quantum/keymap_common.o
                0x0000000000004680                action_for_key
 .text.keycode_config
                0x000000000000481c      0x104 .build/obj_massdrop_ctrl_greyasteroid/quantum/keycode_config.o
                0x000000000000481c                keycode_config
 .text.mod_config
                0x0000000000004920       0xac .build/obj_massdrop_ctrl_greyasteroid/quantum/keycode_config.o
                0x0000000000004920                mod_config
 .text.eeprom_read_byte
                0x00000000000049cc        0xc .build/obj_massdrop_ctrl_greyasteroid/common/arm_atsam/eeprom.o
                0x00000000000049cc                eeprom_read_byte
 .text.eeprom_read_word
                0x00000000000049d8       0x14 .build/obj_massdrop_ctrl_greyasteroid/common/arm_atsam/eeprom.o
                0x00000000000049d8                eeprom_read_word
 .text.eeprom_read_block
                0x00000000000049ec       0x1c .build/obj_massdrop_ctrl_greyasteroid/common/arm_atsam/eeprom.o
                0x00000000000049ec                eeprom_read_block
 .text.eeprom_write_word
                0x0000000000004a08       0x10 .build/obj_massdrop_ctrl_greyasteroid/common/arm_atsam/eeprom.o
                0x0000000000004a08                eeprom_write_word
 .text.eeprom_write_dword
                0x0000000000004a18       0x18 .build/obj_massdrop_ctrl_greyasteroid/common/arm_atsam/eeprom.o
                0x0000000000004a18                eeprom_write_dword
 .text.eeprom_write_block
                0x0000000000004a30       0x1c .build/obj_massdrop_ctrl_greyasteroid/common/arm_atsam/eeprom.o
                0x0000000000004a30                eeprom_write_block
 .text.eeprom_update_byte
                0x0000000000004a4c        0xc .build/obj_massdrop_ctrl_greyasteroid/common/arm_atsam/eeprom.o
                0x0000000000004a4c                eeprom_update_byte
 .text.eeprom_update_word
                0x0000000000004a58        0x4 .build/obj_massdrop_ctrl_greyasteroid/common/arm_atsam/eeprom.o
                0x0000000000004a58                eeprom_update_word
 .text.eeprom_update_dword
                0x0000000000004a5c        0x4 .build/obj_massdrop_ctrl_greyasteroid/common/arm_atsam/eeprom.o
                0x0000000000004a5c                eeprom_update_dword
 .text.eeprom_update_block
                0x0000000000004a60        0x4 .build/obj_massdrop_ctrl_greyasteroid/common/arm_atsam/eeprom.o
                0x0000000000004a60                eeprom_update_block
 .text.hsv_to_rgb
                0x0000000000004a64       0xd4 .build/obj_massdrop_ctrl_greyasteroid/quantum/color.o
                0x0000000000004a64                hsv_to_rgb
 .text.eeconfig_read_rgb_matrix
                0x0000000000004b38       0x10 .build/obj_massdrop_ctrl_greyasteroid/quantum/rgb_matrix.o
                0x0000000000004b38                eeconfig_read_rgb_matrix
 .text.eeconfig_update_rgb_matrix
                0x0000000000004b48       0x10 .build/obj_massdrop_ctrl_greyasteroid/quantum/rgb_matrix.o
                0x0000000000004b48                eeconfig_update_rgb_matrix
 .text.eeconfig_update_rgb_matrix_default
                0x0000000000004b58       0x28 .build/obj_massdrop_ctrl_greyasteroid/quantum/rgb_matrix.o
                0x0000000000004b58                eeconfig_update_rgb_matrix_default
 .text.rgb_matrix_map_row_column_to_led_kb
                0x0000000000004b80        0x4 .build/obj_massdrop_ctrl_greyasteroid/quantum/rgb_matrix.o
                0x0000000000004b80                rgb_matrix_map_row_column_to_led_kb
 .text.rgb_matrix_map_row_column_to_led
                0x0000000000004b84       0x24 .build/obj_massdrop_ctrl_greyasteroid/quantum/rgb_matrix.o
                0x0000000000004b84                rgb_matrix_map_row_column_to_led
 .text.rgb_matrix_update_pwm_buffers
                0x0000000000004ba8        0xc .build/obj_massdrop_ctrl_greyasteroid/quantum/rgb_matrix.o
                0x0000000000004ba8                rgb_matrix_update_pwm_buffers
 .text.rgb_matrix_set_color
                0x0000000000004bb4       0x14 .build/obj_massdrop_ctrl_greyasteroid/quantum/rgb_matrix.o
                0x0000000000004bb4                rgb_matrix_set_color
 .text.SOLID_COLOR
                0x0000000000004bc8       0x84 .build/obj_massdrop_ctrl_greyasteroid/quantum/rgb_matrix.o
                0x0000000000004bc8                SOLID_COLOR
 .text.rgb_matrix_set_color_all
                0x0000000000004c4c        0xc .build/obj_massdrop_ctrl_greyasteroid/quantum/rgb_matrix.o
                0x0000000000004c4c                rgb_matrix_set_color_all
 .text.process_rgb_matrix
                0x0000000000004c58       0xc4 .build/obj_massdrop_ctrl_greyasteroid/quantum/rgb_matrix.o
                0x0000000000004c58                process_rgb_matrix
 .text.rgb_matrix_indicators_user
                0x0000000000004d1c        0x2 .build/obj_massdrop_ctrl_greyasteroid/quantum/rgb_matrix.o
                0x0000000000004d1c                rgb_matrix_indicators_user
 .text.rgb_matrix_indicators
                0x0000000000004d1e        0xc .build/obj_massdrop_ctrl_greyasteroid/quantum/rgb_matrix.o
                0x0000000000004d1e                rgb_matrix_indicators
 *fill*         0x0000000000004d2a        0x2 
 .text.rgb_matrix_task
                0x0000000000004d2c      0x130 .build/obj_massdrop_ctrl_greyasteroid/quantum/rgb_matrix.o
                0x0000000000004d2c                rgb_matrix_task
 .text.rgb_matrix_init
                0x0000000000004e5c       0xb0 .build/obj_massdrop_ctrl_greyasteroid/quantum/rgb_matrix.o
                0x0000000000004e5c                rgb_matrix_init
 .text.rgb_matrix_toggle
                0x0000000000004f0c       0x1c .build/obj_massdrop_ctrl_greyasteroid/quantum/rgb_matrix.o
                0x0000000000004f0c                rgb_matrix_toggle
 .text.rgb_matrix_step
                0x0000000000004f28       0x2c .build/obj_massdrop_ctrl_greyasteroid/quantum/rgb_matrix.o
                0x0000000000004f28                rgb_matrix_step
 .text.rgb_matrix_step_reverse
                0x0000000000004f54       0x2c .build/obj_massdrop_ctrl_greyasteroid/quantum/rgb_matrix.o
                0x0000000000004f54                rgb_matrix_step_reverse
 .text.rgb_matrix_increase_hue
                0x0000000000004f80       0x10 .build/obj_massdrop_ctrl_greyasteroid/quantum/rgb_matrix.o
                0x0000000000004f80                rgb_matrix_increase_hue
 .text.rgb_matrix_decrease_hue
                0x0000000000004f90       0x10 .build/obj_massdrop_ctrl_greyasteroid/quantum/rgb_matrix.o
                0x0000000000004f90                rgb_matrix_decrease_hue
 .text.rgb_matrix_increase_sat
                0x0000000000004fa0       0x18 .build/obj_massdrop_ctrl_greyasteroid/quantum/rgb_matrix.o
                0x0000000000004fa0                rgb_matrix_increase_sat
 .text.rgb_matrix_decrease_sat
                0x0000000000004fb8       0x14 .build/obj_massdrop_ctrl_greyasteroid/quantum/rgb_matrix.o
                0x0000000000004fb8                rgb_matrix_decrease_sat
 .text.rgb_matrix_increase_val
                0x0000000000004fcc       0x18 .build/obj_massdrop_ctrl_greyasteroid/quantum/rgb_matrix.o
                0x0000000000004fcc                rgb_matrix_increase_val
 .text.rgb_matrix_decrease_val
                0x0000000000004fe4       0x14 .build/obj_massdrop_ctrl_greyasteroid/quantum/rgb_matrix.o
                0x0000000000004fe4                rgb_matrix_decrease_val
 .text.rgb_matrix_increase_speed
                0x0000000000004ff8       0x18 .build/obj_massdrop_ctrl_greyasteroid/quantum/rgb_matrix.o
                0x0000000000004ff8                rgb_matrix_increase_speed
 .text.rgb_matrix_decrease_speed
                0x0000000000005010       0x14 .build/obj_massdrop_ctrl_greyasteroid/quantum/rgb_matrix.o
                0x0000000000005010                rgb_matrix_decrease_speed
 .text.rgb_matrix_mode
                0x0000000000005024       0x1c .build/obj_massdrop_ctrl_greyasteroid/quantum/rgb_matrix.o
                0x0000000000005024                rgb_matrix_mode
 .text.handleKeycodeRGB
                0x0000000000005040        0x6 .build/obj_massdrop_ctrl_greyasteroid/quantum/process_keycode/process_rgb.o
 *fill*         0x0000000000005046        0x2 
 .text.process_rgb
                0x0000000000005048       0xb4 .build/obj_massdrop_ctrl_greyasteroid/quantum/process_keycode/process_rgb.o
                0x0000000000005048                process_rgb
 .text.perform_space_cadet
                0x00000000000050fc       0xb4 .build/obj_massdrop_ctrl_greyasteroid/quantum/process_keycode/process_space_cadet.o
                0x00000000000050fc                perform_space_cadet
 .text.process_space_cadet
                0x00000000000051b0       0x8c .build/obj_massdrop_ctrl_greyasteroid/quantum/process_keycode/process_space_cadet.o
                0x00000000000051b0                process_space_cadet
 .text.process_magic
                0x000000000000523c      0x228 .build/obj_massdrop_ctrl_greyasteroid/quantum/process_keycode/process_magic.o
                0x000000000000523c                process_magic
 .text.process_grave_esc
                0x0000000000005464       0x4c .build/obj_massdrop_ctrl_greyasteroid/quantum/process_keycode/process_grave_esc.o
                0x0000000000005464                process_grave_esc
 .text.host_set_driver
                0x00000000000054b0        0xc .build/obj_massdrop_ctrl_greyasteroid/common/host.o
                0x00000000000054b0                host_set_driver
 .text.host_keyboard_leds
                0x00000000000054bc       0x10 .build/obj_massdrop_ctrl_greyasteroid/common/host.o
                0x00000000000054bc                host_keyboard_leds
 .text.host_keyboard_send
                0x00000000000054cc       0x10 .build/obj_massdrop_ctrl_greyasteroid/common/host.o
                0x00000000000054cc                host_keyboard_send
 .text.host_system_send
                0x00000000000054dc       0x18 .build/obj_massdrop_ctrl_greyasteroid/common/host.o
                0x00000000000054dc                host_system_send
 .text.host_consumer_send
                0x00000000000054f4       0x18 .build/obj_massdrop_ctrl_greyasteroid/common/host.o
                0x00000000000054f4                host_consumer_send
 .text.keyboard_pre_init_user
                0x000000000000550c        0x2 .build/obj_massdrop_ctrl_greyasteroid/common/keyboard.o
                0x000000000000550c                keyboard_pre_init_user
 .text.matrix_setup
                0x000000000000550e        0x2 .build/obj_massdrop_ctrl_greyasteroid/common/keyboard.o
                0x000000000000550e                matrix_setup
 .text.keyboard_pre_init_kb
                0x0000000000005510        0x8 .build/obj_massdrop_ctrl_greyasteroid/common/keyboard.o
                0x0000000000005510                keyboard_pre_init_kb
 .text.keyboard_post_init_user
                0x0000000000005518        0x2 .build/obj_massdrop_ctrl_greyasteroid/common/keyboard.o
                0x0000000000005518                keyboard_post_init_user
 .text.keyboard_post_init_kb
                0x000000000000551a        0x8 .build/obj_massdrop_ctrl_greyasteroid/common/keyboard.o
                0x000000000000551a                keyboard_post_init_kb
 .text.keyboard_setup
                0x0000000000005522        0xc .build/obj_massdrop_ctrl_greyasteroid/common/keyboard.o
                0x0000000000005522                keyboard_setup
 .text.is_keyboard_master
                0x000000000000552e        0x4 .build/obj_massdrop_ctrl_greyasteroid/common/keyboard.o
                0x000000000000552e                is_keyboard_master
 .text.should_process_keypress
                0x0000000000005532        0x8 .build/obj_massdrop_ctrl_greyasteroid/common/keyboard.o
                0x0000000000005532                should_process_keypress
 .text.keyboard_init
                0x000000000000553a       0x14 .build/obj_massdrop_ctrl_greyasteroid/common/keyboard.o
                0x000000000000553a                keyboard_init
 *fill*         0x000000000000554e        0x2 
 .text.keyboard_task
                0x0000000000005550       0xdc .build/obj_massdrop_ctrl_greyasteroid/common/keyboard.o
                0x0000000000005550                keyboard_task
 .text.action_exec
                0x000000000000562c       0x24 .build/obj_massdrop_ctrl_greyasteroid/common/action.o
                0x000000000000562c                action_exec
 .text.process_record_tap_hint
                0x0000000000005650        0x6 .build/obj_massdrop_ctrl_greyasteroid/common/action.o
                0x0000000000005650                process_record_tap_hint
 *fill*         0x0000000000005656        0x2 
 .text.register_code
                0x0000000000005658       0x88 .build/obj_massdrop_ctrl_greyasteroid/common/action.o
                0x0000000000005658                register_code
 .text.unregister_code
                0x00000000000056e0       0x5c .build/obj_massdrop_ctrl_greyasteroid/common/action.o
                0x00000000000056e0                unregister_code
 .text.tap_code
                0x000000000000573c       0x20 .build/obj_massdrop_ctrl_greyasteroid/common/action.o
                0x000000000000573c                tap_code
 .text.register_mods
                0x000000000000575c       0x12 .build/obj_massdrop_ctrl_greyasteroid/common/action.o
                0x000000000000575c                register_mods
 .text.unregister_mods
                0x000000000000576e       0x12 .build/obj_massdrop_ctrl_greyasteroid/common/action.o
                0x000000000000576e                unregister_mods
 .text.process_action
                0x0000000000005780      0x3ac .build/obj_massdrop_ctrl_greyasteroid/common/action.o
                0x0000000000005780                process_action
 .text.process_record_handler
                0x0000000000005b2c       0x22 .build/obj_massdrop_ctrl_greyasteroid/common/action.o
                0x0000000000005b2c                process_record_handler
 .text.process_record
                0x0000000000005b4e       0x46 .build/obj_massdrop_ctrl_greyasteroid/common/action.o
                0x0000000000005b4e                process_record
 .text.clear_keyboard_but_mods_and_keys
                0x0000000000005b94       0x1e .build/obj_massdrop_ctrl_greyasteroid/common/action.o
                0x0000000000005b94                clear_keyboard_but_mods_and_keys
 .text.clear_keyboard_but_mods
                0x0000000000005bb2        0xe .build/obj_massdrop_ctrl_greyasteroid/common/action.o
                0x0000000000005bb2                clear_keyboard_but_mods
 .text.clear_keyboard
                0x0000000000005bc0        0xe .build/obj_massdrop_ctrl_greyasteroid/common/action.o
                0x0000000000005bc0                clear_keyboard
 .text.is_tap_action
                0x0000000000005bce       0x5e .build/obj_massdrop_ctrl_greyasteroid/common/action.o
                0x0000000000005bce                is_tap_action
 .text.is_tap_key
                0x0000000000005c2c       0x16 .build/obj_massdrop_ctrl_greyasteroid/common/action.o
                0x0000000000005c2c                is_tap_key
 .text.debug_event
                0x0000000000005c42        0xc .build/obj_massdrop_ctrl_greyasteroid/common/action.o
                0x0000000000005c42                debug_event
 .text.debug_record
                0x0000000000005c4e        0xc .build/obj_massdrop_ctrl_greyasteroid/common/action.o
                0x0000000000005c4e                debug_record
 *fill*         0x0000000000005c5a        0x2 
 .text.debug_waiting_buffer
                0x0000000000005c5c       0x2c .build/obj_massdrop_ctrl_greyasteroid/common/action_tapping.o
 .text.debug_tapping_key
                0x0000000000005c88       0x10 .build/obj_massdrop_ctrl_greyasteroid/common/action_tapping.o
 .text.waiting_buffer_scan_tap
                0x0000000000005c98       0x98 .build/obj_massdrop_ctrl_greyasteroid/common/action_tapping.o
 .text.process_tapping
                0x0000000000005d30      0x3ec .build/obj_massdrop_ctrl_greyasteroid/common/action_tapping.o
 .text.action_tapping_process
                0x000000000000611c       0xd8 .build/obj_massdrop_ctrl_greyasteroid/common/action_tapping.o
                0x000000000000611c                action_tapping_process
 .text.action_macro_play
                0x00000000000061f4       0xb4 .build/obj_massdrop_ctrl_greyasteroid/common/action_macro.o
                0x00000000000061f4                action_macro_play
 .text.default_layer_state_set_user
                0x00000000000062a8        0x2 .build/obj_massdrop_ctrl_greyasteroid/common/action_layer.o
                0x00000000000062a8                default_layer_state_set_user
 .text.default_layer_state_set_kb
                0x00000000000062aa        0x8 .build/obj_massdrop_ctrl_greyasteroid/common/action_layer.o
                0x00000000000062aa                default_layer_state_set_kb
 *fill*         0x00000000000062b2        0x2 
 .text.default_layer_state_set
                0x00000000000062b4       0x18 .build/obj_massdrop_ctrl_greyasteroid/common/action_layer.o
 .text.default_layer_debug
                0x00000000000062cc        0x2 .build/obj_massdrop_ctrl_greyasteroid/common/action_layer.o
                0x00000000000062cc                default_layer_debug
 .text.default_layer_set
                0x00000000000062ce        0x4 .build/obj_massdrop_ctrl_greyasteroid/common/action_layer.o
                0x00000000000062ce                default_layer_set
 *fill*         0x00000000000062d2        0x2 
 .text.default_layer_or
                0x00000000000062d4       0x10 .build/obj_massdrop_ctrl_greyasteroid/common/action_layer.o
                0x00000000000062d4                default_layer_or
 .text.default_layer_and
                0x00000000000062e4       0x10 .build/obj_massdrop_ctrl_greyasteroid/common/action_layer.o
                0x00000000000062e4                default_layer_and
 .text.default_layer_xor
                0x00000000000062f4       0x10 .build/obj_massdrop_ctrl_greyasteroid/common/action_layer.o
                0x00000000000062f4                default_layer_xor
 .text.layer_state_set_user
                0x0000000000006304        0x4 .build/obj_massdrop_ctrl_greyasteroid/common/action_layer.o
                0x0000000000006304                layer_state_set_user
 .text.layer_state_set_kb
                0x0000000000006308        0x8 .build/obj_massdrop_ctrl_greyasteroid/common/action_layer.o
                0x0000000000006308                layer_state_set_kb
 .text.layer_state_set
                0x0000000000006310       0x18 .build/obj_massdrop_ctrl_greyasteroid/common/action_layer.o
                0x0000000000006310                layer_state_set
 .text.layer_clear
                0x0000000000006328        0x6 .build/obj_massdrop_ctrl_greyasteroid/common/action_layer.o
                0x0000000000006328                layer_clear
 .text.layer_move
                0x000000000000632e        0xa .build/obj_massdrop_ctrl_greyasteroid/common/action_layer.o
                0x000000000000632e                layer_move
 .text.layer_on
                0x0000000000006338       0x14 .build/obj_massdrop_ctrl_greyasteroid/common/action_layer.o
                0x0000000000006338                layer_on
 .text.layer_off
                0x000000000000634c       0x18 .build/obj_massdrop_ctrl_greyasteroid/common/action_layer.o
                0x000000000000634c                layer_off
 .text.layer_invert
                0x0000000000006364       0x14 .build/obj_massdrop_ctrl_greyasteroid/common/action_layer.o
                0x0000000000006364                layer_invert
 .text.layer_or
                0x0000000000006378       0x10 .build/obj_massdrop_ctrl_greyasteroid/common/action_layer.o
                0x0000000000006378                layer_or
 .text.layer_and
                0x0000000000006388       0x10 .build/obj_massdrop_ctrl_greyasteroid/common/action_layer.o
                0x0000000000006388                layer_and
 .text.layer_xor
                0x0000000000006398       0x10 .build/obj_massdrop_ctrl_greyasteroid/common/action_layer.o
                0x0000000000006398                layer_xor
 .text.layer_debug
                0x00000000000063a8        0x2 .build/obj_massdrop_ctrl_greyasteroid/common/action_layer.o
                0x00000000000063a8                layer_debug
 *fill*         0x00000000000063aa        0x2 
 .text.update_source_layers_cache
                0x00000000000063ac       0x48 .build/obj_massdrop_ctrl_greyasteroid/common/action_layer.o
                0x00000000000063ac                update_source_layers_cache
 .text.read_source_layers_cache
                0x00000000000063f4       0x40 .build/obj_massdrop_ctrl_greyasteroid/common/action_layer.o
                0x00000000000063f4                read_source_layers_cache
 .text.layer_switch_get_layer
                0x0000000000006434       0x3c .build/obj_massdrop_ctrl_greyasteroid/common/action_layer.o
                0x0000000000006434                layer_switch_get_layer
 .text.layer_switch_get_action
                0x0000000000006470       0x18 .build/obj_massdrop_ctrl_greyasteroid/common/action_layer.o
                0x0000000000006470                layer_switch_get_action
 .text.store_or_get_action
                0x0000000000006488       0x48 .build/obj_massdrop_ctrl_greyasteroid/common/action_layer.o
                0x0000000000006488                store_or_get_action
 .text.add_key  0x00000000000064d0       0x10 .build/obj_massdrop_ctrl_greyasteroid/common/action_util.o
                0x00000000000064d0                add_key
 .text.del_key  0x00000000000064e0       0x10 .build/obj_massdrop_ctrl_greyasteroid/common/action_util.o
                0x00000000000064e0                del_key
 .text.clear_keys
                0x00000000000064f0        0xc .build/obj_massdrop_ctrl_greyasteroid/common/action_util.o
                0x00000000000064f0                clear_keys
 .text.get_oneshot_layer
                0x00000000000064fc       0x10 .build/obj_massdrop_ctrl_greyasteroid/common/action_util.o
                0x00000000000064fc                get_oneshot_layer
 .text.get_oneshot_layer_state
                0x000000000000650c       0x10 .build/obj_massdrop_ctrl_greyasteroid/common/action_util.o
                0x000000000000650c                get_oneshot_layer_state
 .text.is_oneshot_layer_active
                0x000000000000651c       0x14 .build/obj_massdrop_ctrl_greyasteroid/common/action_util.o
                0x000000000000651c                is_oneshot_layer_active
 .text.get_mods
                0x0000000000006530        0xc .build/obj_massdrop_ctrl_greyasteroid/common/action_util.o
                0x0000000000006530                get_mods
 .text.add_mods
                0x000000000000653c       0x10 .build/obj_massdrop_ctrl_greyasteroid/common/action_util.o
                0x000000000000653c                add_mods
 .text.del_mods
                0x000000000000654c       0x10 .build/obj_massdrop_ctrl_greyasteroid/common/action_util.o
                0x000000000000654c                del_mods
 .text.clear_mods
                0x000000000000655c        0xc .build/obj_massdrop_ctrl_greyasteroid/common/action_util.o
                0x000000000000655c                clear_mods
 .text.add_weak_mods
                0x0000000000006568       0x10 .build/obj_massdrop_ctrl_greyasteroid/common/action_util.o
                0x0000000000006568                add_weak_mods
 .text.del_weak_mods
                0x0000000000006578       0x10 .build/obj_massdrop_ctrl_greyasteroid/common/action_util.o
                0x0000000000006578                del_weak_mods
 .text.clear_weak_mods
                0x0000000000006588        0xc .build/obj_massdrop_ctrl_greyasteroid/common/action_util.o
                0x0000000000006588                clear_weak_mods
 .text.add_macro_mods
                0x0000000000006594       0x10 .build/obj_massdrop_ctrl_greyasteroid/common/action_util.o
                0x0000000000006594                add_macro_mods
 .text.del_macro_mods
                0x00000000000065a4       0x10 .build/obj_massdrop_ctrl_greyasteroid/common/action_util.o
                0x00000000000065a4                del_macro_mods
 .text.clear_macro_mods
                0x00000000000065b4        0xc .build/obj_massdrop_ctrl_greyasteroid/common/action_util.o
                0x00000000000065b4                clear_macro_mods
 .text.get_oneshot_mods
                0x00000000000065c0        0xc .build/obj_massdrop_ctrl_greyasteroid/common/action_util.o
                0x00000000000065c0                get_oneshot_mods
 .text.oneshot_mods_changed_user
                0x00000000000065cc        0x2 .build/obj_massdrop_ctrl_greyasteroid/common/action_util.o
                0x00000000000065cc                oneshot_mods_changed_user
 .text.oneshot_mods_changed_kb
                0x00000000000065ce        0x8 .build/obj_massdrop_ctrl_greyasteroid/common/action_util.o
                0x00000000000065ce                oneshot_mods_changed_kb
 *fill*         0x00000000000065d6        0x2 
 .text.set_oneshot_mods
                0x00000000000065d8       0x18 .build/obj_massdrop_ctrl_greyasteroid/common/action_util.o
                0x00000000000065d8                set_oneshot_mods
 .text.clear_oneshot_mods
                0x00000000000065f0       0x18 .build/obj_massdrop_ctrl_greyasteroid/common/action_util.o
                0x00000000000065f0                clear_oneshot_mods
 .text.send_keyboard_report
                0x0000000000006608       0x4c .build/obj_massdrop_ctrl_greyasteroid/common/action_util.o
                0x0000000000006608                send_keyboard_report
 .text.oneshot_layer_changed_user
                0x0000000000006654        0x2 .build/obj_massdrop_ctrl_greyasteroid/common/action_util.o
                0x0000000000006654                oneshot_layer_changed_user
 .text.oneshot_layer_changed_kb
                0x0000000000006656        0x8 .build/obj_massdrop_ctrl_greyasteroid/common/action_util.o
                0x0000000000006656                oneshot_layer_changed_kb
 *fill*         0x000000000000665e        0x2 
 .text.set_oneshot_layer
                0x0000000000006660       0x20 .build/obj_massdrop_ctrl_greyasteroid/common/action_util.o
                0x0000000000006660                set_oneshot_layer
 .text.reset_oneshot_layer
                0x0000000000006680       0x14 .build/obj_massdrop_ctrl_greyasteroid/common/action_util.o
                0x0000000000006680                reset_oneshot_layer
 .text.clear_oneshot_layer_state
                0x0000000000006694       0x30 .build/obj_massdrop_ctrl_greyasteroid/common/action_util.o
                0x0000000000006694                clear_oneshot_layer_state
 .text.eeconfig_is_enabled
                0x00000000000066c4       0x14 .build/obj_massdrop_ctrl_greyasteroid/common/eeconfig.o
                0x00000000000066c4                eeconfig_is_enabled
 .text.eeconfig_read_debug
                0x00000000000066d8        0x6 .build/obj_massdrop_ctrl_greyasteroid/common/eeconfig.o
                0x00000000000066d8                eeconfig_read_debug
 .text.eeconfig_read_default_layer
                0x00000000000066de        0x6 .build/obj_massdrop_ctrl_greyasteroid/common/eeconfig.o
                0x00000000000066de                eeconfig_read_default_layer
 .text.eeconfig_read_keymap
                0x00000000000066e4       0x18 .build/obj_massdrop_ctrl_greyasteroid/common/eeconfig.o
                0x00000000000066e4                eeconfig_read_keymap
 .text.eeconfig_update_keymap
                0x00000000000066fc       0x18 .build/obj_massdrop_ctrl_greyasteroid/common/eeconfig.o
                0x00000000000066fc                eeconfig_update_keymap
 .text.eeconfig_update_kb
                0x0000000000006714        0x8 .build/obj_massdrop_ctrl_greyasteroid/common/eeconfig.o
                0x0000000000006714                eeconfig_update_kb
 .text.eeconfig_update_user
                0x000000000000671c        0x8 .build/obj_massdrop_ctrl_greyasteroid/common/eeconfig.o
                0x000000000000671c                eeconfig_update_user
 .text.eeconfig_init_user
                0x0000000000006724        0x6 .build/obj_massdrop_ctrl_greyasteroid/common/eeconfig.o
                0x0000000000006724                eeconfig_init_user
 .text.eeconfig_init_kb
                0x000000000000672a        0xe .build/obj_massdrop_ctrl_greyasteroid/common/eeconfig.o
                0x000000000000672a                eeconfig_init_kb
 .text.eeconfig_init_quantum
                0x0000000000006738       0x84 .build/obj_massdrop_ctrl_greyasteroid/common/eeconfig.o
                0x0000000000006738                eeconfig_init_quantum
 .text.eeconfig_init
                0x00000000000067bc        0x4 .build/obj_massdrop_ctrl_greyasteroid/common/eeconfig.o
                0x00000000000067bc                eeconfig_init
 .text.eeconfig_update_handedness
                0x00000000000067c0        0x8 .build/obj_massdrop_ctrl_greyasteroid/common/eeconfig.o
                0x00000000000067c0                eeconfig_update_handedness
 .text.has_anykey
                0x00000000000067c8       0x3c .build/obj_massdrop_ctrl_greyasteroid/common/report.o
                0x00000000000067c8                has_anykey
 .text.is_key_pressed
                0x0000000000006804       0x50 .build/obj_massdrop_ctrl_greyasteroid/common/report.o
                0x0000000000006804                is_key_pressed
 .text.add_key_byte
                0x0000000000006854       0x32 .build/obj_massdrop_ctrl_greyasteroid/common/report.o
                0x0000000000006854                add_key_byte
 .text.del_key_byte
                0x0000000000006886       0x1a .build/obj_massdrop_ctrl_greyasteroid/common/report.o
                0x0000000000006886                del_key_byte
 .text.add_key_bit
                0x00000000000068a0       0x18 .build/obj_massdrop_ctrl_greyasteroid/common/report.o
                0x00000000000068a0                add_key_bit
 .text.del_key_bit
                0x00000000000068b8       0x1a .build/obj_massdrop_ctrl_greyasteroid/common/report.o
                0x00000000000068b8                del_key_bit
 *fill*         0x00000000000068d2        0x2 
 .text.add_key_to_report
                0x00000000000068d4       0x34 .build/obj_massdrop_ctrl_greyasteroid/common/report.o
                0x00000000000068d4                add_key_to_report
 .text.del_key_from_report
                0x0000000000006908       0x34 .build/obj_massdrop_ctrl_greyasteroid/common/report.o
                0x0000000000006908                del_key_from_report
 .text.clear_keys_from_report
                0x000000000000693c       0x2c .build/obj_massdrop_ctrl_greyasteroid/common/report.o
                0x000000000000693c                clear_keys_from_report
 .text.matrix_power_up
                0x0000000000006968        0x2 .build/obj_massdrop_ctrl_greyasteroid/common/arm_atsam/suspend.o
                0x0000000000006968                matrix_power_up
 .text.suspend_power_down_user
                0x000000000000696a        0x2 .build/obj_massdrop_ctrl_greyasteroid/common/arm_atsam/suspend.o
                0x000000000000696a                suspend_power_down_user
 .text.suspend_power_down_kb
                0x000000000000696c        0x8 .build/obj_massdrop_ctrl_greyasteroid/common/arm_atsam/suspend.o
                0x000000000000696c                suspend_power_down_kb
 .text.suspend_power_down
                0x0000000000006974        0xe .build/obj_massdrop_ctrl_greyasteroid/common/arm_atsam/suspend.o
                0x0000000000006974                suspend_power_down
 .text.matrix_power_down
                0x0000000000006982        0x2 .build/obj_massdrop_ctrl_greyasteroid/common/arm_atsam/suspend.o
                0x0000000000006982                matrix_power_down
 .text.suspend_wakeup_condition
                0x0000000000006984       0x24 .build/obj_massdrop_ctrl_greyasteroid/common/arm_atsam/suspend.o
                0x0000000000006984                suspend_wakeup_condition
 .text.suspend_wakeup_init_user
                0x00000000000069a8        0x2 .build/obj_massdrop_ctrl_greyasteroid/common/arm_atsam/suspend.o
                0x00000000000069a8                suspend_wakeup_init_user
 .text.suspend_wakeup_init_kb
                0x00000000000069aa        0x8 .build/obj_massdrop_ctrl_greyasteroid/common/arm_atsam/suspend.o
                0x00000000000069aa                suspend_wakeup_init_kb
 .text.suspend_wakeup_init
                0x00000000000069b2        0xe .build/obj_massdrop_ctrl_greyasteroid/common/arm_atsam/suspend.o
                0x00000000000069b2                suspend_wakeup_init
 .text.timer_read
                0x00000000000069c0       0x10 .build/obj_massdrop_ctrl_greyasteroid/common/arm_atsam/timer.o
                0x00000000000069c0                timer_read
 .text.timer_read32
                0x00000000000069d0        0xc .build/obj_massdrop_ctrl_greyasteroid/common/arm_atsam/timer.o
                0x00000000000069d0                timer_read32
 .text.timer_read64
                0x00000000000069dc        0xc .build/obj_massdrop_ctrl_greyasteroid/common/arm_atsam/timer.o
                0x00000000000069dc                timer_read64
 .text.timer_elapsed
                0x00000000000069e8       0x10 .build/obj_massdrop_ctrl_greyasteroid/common/arm_atsam/timer.o
                0x00000000000069e8                timer_elapsed
 .text.timer_elapsed32
                0x00000000000069f8       0x10 .build/obj_massdrop_ctrl_greyasteroid/common/arm_atsam/timer.o
                0x00000000000069f8                timer_elapsed32
 .text.timer_clear
                0x0000000000006a08       0x10 .build/obj_massdrop_ctrl_greyasteroid/common/arm_atsam/timer.o
                0x0000000000006a08                timer_clear
 .text.timer_init
                0x0000000000006a18        0x4 .build/obj_massdrop_ctrl_greyasteroid/common/arm_atsam/timer.o
                0x0000000000006a18                timer_init
 .text.bootloader_jump
                0x0000000000006a1c       0xc0 .build/obj_massdrop_ctrl_greyasteroid/common/arm_atsam/bootloader.o
                0x0000000000006a1c                bootloader_jump
 .text.magic    0x0000000000006adc       0x30 .build/obj_massdrop_ctrl_greyasteroid/common/magic.o
                0x0000000000006adc                magic
 .text.ADC0_clock_init
                0x0000000000006b0c       0x40 .build/obj_massdrop_ctrl_greyasteroid/protocol/arm_atsam/adc.o
                0x0000000000006b0c                ADC0_clock_init
 .text.ADC0_init
                0x0000000000006b4c      0x15c .build/obj_massdrop_ctrl_greyasteroid/protocol/arm_atsam/adc.o
                0x0000000000006b4c                ADC0_init
 .text.adc_get  0x0000000000006ca8       0x34 .build/obj_massdrop_ctrl_greyasteroid/protocol/arm_atsam/adc.o
                0x0000000000006ca8                adc_get
 .text.CLK_oscctrl_init
                0x0000000000006cdc      0x16c .build/obj_massdrop_ctrl_greyasteroid/protocol/arm_atsam/clks.o
                0x0000000000006cdc                CLK_oscctrl_init
 .text.CLK_set_gclk_freq
                0x0000000000006e48       0xc0 .build/obj_massdrop_ctrl_greyasteroid/protocol/arm_atsam/clks.o
                0x0000000000006e48                CLK_set_gclk_freq
 .text.CLK_init_osc
                0x0000000000006f08       0x90 .build/obj_massdrop_ctrl_greyasteroid/protocol/arm_atsam/clks.o
                0x0000000000006f08                CLK_init_osc
 .text.CLK_reset_time
                0x0000000000006f98       0x88 .build/obj_massdrop_ctrl_greyasteroid/protocol/arm_atsam/clks.o
                0x0000000000006f98                CLK_reset_time
 .text.TC4_Handler
                0x0000000000007020       0x28 .build/obj_massdrop_ctrl_greyasteroid/protocol/arm_atsam/clks.o
                0x0000000000007020                TC4_Handler
 .text.CLK_enable_timebase
                0x0000000000007048      0x1f4 .build/obj_massdrop_ctrl_greyasteroid/protocol/arm_atsam/clks.o
                0x0000000000007048                CLK_enable_timebase
 *fill*         0x000000000000723c        0x4 
 .text.CLK_delay_us
                0x0000000000007240       0x1c .build/obj_massdrop_ctrl_greyasteroid/protocol/arm_atsam/clks.o
                0x0000000000007240                CLK_delay_us
 .text.CLK_delay_ms
                0x000000000000725c       0x1e .build/obj_massdrop_ctrl_greyasteroid/protocol/arm_atsam/clks.o
                0x000000000000725c                CLK_delay_ms
 *fill*         0x000000000000727a        0x2 
 .text.clk_enable_sercom_apbmask
                0x000000000000727c       0x3c .build/obj_massdrop_ctrl_greyasteroid/protocol/arm_atsam/clks.o
                0x000000000000727c                clk_enable_sercom_apbmask
 .text.CLK_set_spi_freq
                0x00000000000072b8       0x8c .build/obj_massdrop_ctrl_greyasteroid/protocol/arm_atsam/clks.o
                0x00000000000072b8                CLK_set_spi_freq
 .text.CLK_set_i2c0_freq
                0x0000000000007344       0x94 .build/obj_massdrop_ctrl_greyasteroid/protocol/arm_atsam/clks.o
                0x0000000000007344                CLK_set_i2c0_freq
 .text.CLK_set_i2c1_freq
                0x00000000000073d8       0x94 .build/obj_massdrop_ctrl_greyasteroid/protocol/arm_atsam/clks.o
                0x00000000000073d8                CLK_set_i2c1_freq
 .text.CLK_init
                0x000000000000746c       0x28 .build/obj_massdrop_ctrl_greyasteroid/protocol/arm_atsam/clks.o
                0x000000000000746c                CLK_init
 .text.dled_print
                0x0000000000007494      0x184 .build/obj_massdrop_ctrl_greyasteroid/protocol/arm_atsam/d51_util.o
                0x0000000000007494                dled_print
 .text.EIC_7_Handler
                0x0000000000007618       0x14 .build/obj_massdrop_ctrl_greyasteroid/protocol/arm_atsam/d51_util.o
                0x0000000000007618                EIC_7_Handler
 .text.debug_code_init
                0x000000000000762c       0x9c .build/obj_massdrop_ctrl_greyasteroid/protocol/arm_atsam/d51_util.o
                0x000000000000762c                debug_code_init
 .text.debug_code_disable
                0x00000000000076c8       0x80 .build/obj_massdrop_ctrl_greyasteroid/protocol/arm_atsam/d51_util.o
                0x00000000000076c8                debug_code_disable
 .text.i2c0_init
                0x0000000000007748       0xb8 .build/obj_massdrop_ctrl_greyasteroid/protocol/arm_atsam/i2c_master.o
                0x0000000000007748                i2c0_init
 .text.i2c0_start
                0x0000000000007800       0x28 .build/obj_massdrop_ctrl_greyasteroid/protocol/arm_atsam/i2c_master.o
                0x0000000000007800                i2c0_start
 .text.i2c0_stop
                0x0000000000007828       0x48 .build/obj_massdrop_ctrl_greyasteroid/protocol/arm_atsam/i2c_master.o
                0x0000000000007828                i2c0_stop
 .text.i2c0_transmit
                0x0000000000007870       0x3c .build/obj_massdrop_ctrl_greyasteroid/protocol/arm_atsam/i2c_master.o
                0x0000000000007870                i2c0_transmit
 .text.i2c1_init
                0x00000000000078ac       0xd4 .build/obj_massdrop_ctrl_greyasteroid/protocol/arm_atsam/i2c_master.o
                0x00000000000078ac                i2c1_init
 .text.i2c1_start
                0x0000000000007980       0x28 .build/obj_massdrop_ctrl_greyasteroid/protocol/arm_atsam/i2c_master.o
                0x0000000000007980                i2c1_start
 .text.i2c1_stop
                0x00000000000079a8       0x48 .build/obj_massdrop_ctrl_greyasteroid/protocol/arm_atsam/i2c_master.o
                0x00000000000079a8                i2c1_stop
 .text.i2c1_transmit
                0x00000000000079f0       0x3c .build/obj_massdrop_ctrl_greyasteroid/protocol/arm_atsam/i2c_master.o
                0x00000000000079f0                i2c1_transmit
 .text.i2c_led_send_CRWL
                0x0000000000007a2c       0x2c .build/obj_massdrop_ctrl_greyasteroid/protocol/arm_atsam/i2c_master.o
                0x0000000000007a2c                i2c_led_send_CRWL
 .text.i2c_led_select_page
                0x0000000000007a58       0x28 .build/obj_massdrop_ctrl_greyasteroid/protocol/arm_atsam/i2c_master.o
                0x0000000000007a58                i2c_led_select_page
 .text.i2c_led_send_mode_op_gcr
                0x0000000000007a80       0x34 .build/obj_massdrop_ctrl_greyasteroid/protocol/arm_atsam/i2c_master.o
                0x0000000000007a80                i2c_led_send_mode_op_gcr
 .text.i2c_led_send_pur_pdr
                0x0000000000007ab4       0x2c .build/obj_massdrop_ctrl_greyasteroid/protocol/arm_atsam/i2c_master.o
                0x0000000000007ab4                i2c_led_send_pur_pdr
 .text.I2C3733_Init_Drivers
                0x0000000000007ae0       0x90 .build/obj_massdrop_ctrl_greyasteroid/protocol/arm_atsam/i2c_master.o
                0x0000000000007ae0                I2C3733_Init_Drivers
 .text.I2C_DMAC_LED_Init
                0x0000000000007b70       0xd0 .build/obj_massdrop_ctrl_greyasteroid/protocol/arm_atsam/i2c_master.o
                0x0000000000007b70                I2C_DMAC_LED_Init
 .text.I2C3733_Control_Set
                0x0000000000007c40       0x2c .build/obj_massdrop_ctrl_greyasteroid/protocol/arm_atsam/i2c_master.o
                0x0000000000007c40                I2C3733_Control_Set
 .text.I2C3733_Init_Control
                0x0000000000007c6c       0x3c .build/obj_massdrop_ctrl_greyasteroid/protocol/arm_atsam/i2c_master.o
                0x0000000000007c6c                I2C3733_Init_Control
 .text.i2c_led_desc_defaults
                0x0000000000007ca8       0x48 .build/obj_massdrop_ctrl_greyasteroid/protocol/arm_atsam/i2c_master.o
                0x0000000000007ca8                i2c_led_desc_defaults
 .text.i2c_led_prepare_send_dma
                0x0000000000007cf0       0x24 .build/obj_massdrop_ctrl_greyasteroid/protocol/arm_atsam/i2c_master.o
                0x0000000000007cf0                i2c_led_prepare_send_dma
 .text.i2c_led_begin_dma
                0x0000000000007d14       0x38 .build/obj_massdrop_ctrl_greyasteroid/protocol/arm_atsam/i2c_master.o
                0x0000000000007d14                i2c_led_begin_dma
 .text.i2c_led_send_CRWL_dma
                0x0000000000007d4c       0x24 .build/obj_massdrop_ctrl_greyasteroid/protocol/arm_atsam/i2c_master.o
                0x0000000000007d4c                i2c_led_send_CRWL_dma
 .text.i2c_led_select_page_dma
                0x0000000000007d70       0x20 .build/obj_massdrop_ctrl_greyasteroid/protocol/arm_atsam/i2c_master.o
                0x0000000000007d70                i2c_led_select_page_dma
 .text.i2c_led_send_GCR_dma
                0x0000000000007d90       0x28 .build/obj_massdrop_ctrl_greyasteroid/protocol/arm_atsam/i2c_master.o
                0x0000000000007d90                i2c_led_send_GCR_dma
 .text.i2c_led_send_pwm_dma
                0x0000000000007db8       0x38 .build/obj_massdrop_ctrl_greyasteroid/protocol/arm_atsam/i2c_master.o
                0x0000000000007db8                i2c_led_send_pwm_dma
 .text.i2c_led_send_onoff_dma
                0x0000000000007df0       0x44 .build/obj_massdrop_ctrl_greyasteroid/protocol/arm_atsam/i2c_master.o
                0x0000000000007df0                i2c_led_send_onoff_dma
 .text.i2c_led_q_init
                0x0000000000007e34       0x2c .build/obj_massdrop_ctrl_greyasteroid/protocol/arm_atsam/i2c_master.o
                0x0000000000007e34                i2c_led_q_init
 .text.i2c_led_q_isempty
                0x0000000000007e60       0x18 .build/obj_massdrop_ctrl_greyasteroid/protocol/arm_atsam/i2c_master.o
                0x0000000000007e60                i2c_led_q_isempty
 .text.i2c_led_q_size
                0x0000000000007e78       0x20 .build/obj_massdrop_ctrl_greyasteroid/protocol/arm_atsam/i2c_master.o
                0x0000000000007e78                i2c_led_q_size
 .text.i2c_led_q_available
                0x0000000000007e98        0xe .build/obj_massdrop_ctrl_greyasteroid/protocol/arm_atsam/i2c_master.o
                0x0000000000007e98                i2c_led_q_available
 *fill*         0x0000000000007ea6        0x2 
 .text.i2c_led_q_add
                0x0000000000007ea8       0x24 .build/obj_massdrop_ctrl_greyasteroid/protocol/arm_atsam/i2c_master.o
                0x0000000000007ea8                i2c_led_q_add
 .text.i2c_led_q_s_advance
                0x0000000000007ecc       0x1c .build/obj_massdrop_ctrl_greyasteroid/protocol/arm_atsam/i2c_master.o
                0x0000000000007ecc                i2c_led_q_s_advance
 .text.i2c_led_q_request_room
                0x0000000000007ee8       0x48 .build/obj_massdrop_ctrl_greyasteroid/protocol/arm_atsam/i2c_master.o
                0x0000000000007ee8                i2c_led_q_request_room
 .text.i2c_led_q_run
                0x0000000000007f30       0xbc .build/obj_massdrop_ctrl_greyasteroid/protocol/arm_atsam/i2c_master.o
                0x0000000000007f30                i2c_led_q_run
 .text.led_set_one
                0x0000000000007fec       0x1c .build/obj_massdrop_ctrl_greyasteroid/protocol/arm_atsam/led_matrix.o
                0x0000000000007fec                led_set_one
 .text.flush    0x0000000000008008       0xe4 .build/obj_massdrop_ctrl_greyasteroid/protocol/arm_atsam/led_matrix.o
                0x0000000000008008                flush
 .text.led_set_all
                0x00000000000080ec       0x1c .build/obj_massdrop_ctrl_greyasteroid/protocol/arm_atsam/led_matrix.o
                0x00000000000080ec                led_set_all
 .text.SERCOM1_0_Handler
                0x0000000000008108       0x14 .build/obj_massdrop_ctrl_greyasteroid/protocol/arm_atsam/led_matrix.o
                0x0000000000008108                SERCOM1_0_Handler
 .text.DMAC_0_Handler
                0x000000000000811c       0x3c .build/obj_massdrop_ctrl_greyasteroid/protocol/arm_atsam/led_matrix.o
                0x000000000000811c                DMAC_0_Handler
 .text.gcr_compute
                0x0000000000008158       0xe8 .build/obj_massdrop_ctrl_greyasteroid/protocol/arm_atsam/led_matrix.o
                0x0000000000008158                gcr_compute
 .text.issi3733_prepare_arrays
                0x0000000000008240       0xe0 .build/obj_massdrop_ctrl_greyasteroid/protocol/arm_atsam/led_matrix.o
                0x0000000000008240                issi3733_prepare_arrays
 .text.led_matrix_prepare
                0x0000000000008320       0x24 .build/obj_massdrop_ctrl_greyasteroid/protocol/arm_atsam/led_matrix.o
                0x0000000000008320                led_matrix_prepare
 .text.init     0x0000000000008344       0x28 .build/obj_massdrop_ctrl_greyasteroid/protocol/arm_atsam/led_matrix.o
                0x0000000000008344                init
 .text.led_matrix_indicators
                0x000000000000836c       0x60 .build/obj_massdrop_ctrl_greyasteroid/protocol/arm_atsam/led_matrix.o
                0x000000000000836c                led_matrix_indicators
 .text.keyboard_leds
                0x00000000000083cc       0x20 .build/obj_massdrop_ctrl_greyasteroid/protocol/arm_atsam/main_arm_atsam.o
                0x00000000000083cc                keyboard_leds
 .text.send_mouse
                0x00000000000083ec        0x2 .build/obj_massdrop_ctrl_greyasteroid/protocol/arm_atsam/main_arm_atsam.o
                0x00000000000083ec                send_mouse
 *fill*         0x00000000000083ee        0x2 
 .text.send_extra
                0x00000000000083f0       0x30 .build/obj_massdrop_ctrl_greyasteroid/protocol/arm_atsam/main_arm_atsam.o
                0x00000000000083f0                send_extra
 .text.send_system
                0x0000000000008420        0x8 .build/obj_massdrop_ctrl_greyasteroid/protocol/arm_atsam/main_arm_atsam.o
                0x0000000000008420                send_system
 .text.send_consumer
                0x0000000000008428        0x8 .build/obj_massdrop_ctrl_greyasteroid/protocol/arm_atsam/main_arm_atsam.o
                0x0000000000008428                send_consumer
 .text.main_subtask_usb_state
                0x0000000000008430       0x90 .build/obj_massdrop_ctrl_greyasteroid/protocol/arm_atsam/main_arm_atsam.o
                0x0000000000008430                main_subtask_usb_state
 .text.main_subtask_power_check
                0x00000000000084c0       0x8c .build/obj_massdrop_ctrl_greyasteroid/protocol/arm_atsam/main_arm_atsam.o
                0x00000000000084c0                main_subtask_power_check
 .text.main_subtask_usb_extra_device
                0x000000000000854c       0x30 .build/obj_massdrop_ctrl_greyasteroid/protocol/arm_atsam/main_arm_atsam.o
                0x000000000000854c                main_subtask_usb_extra_device
 .text.main_subtasks
                0x000000000000857c       0x12 .build/obj_massdrop_ctrl_greyasteroid/protocol/arm_atsam/main_arm_atsam.o
                0x000000000000857c                main_subtasks
 *fill*         0x000000000000858e        0x2 
 .text.send_keyboard
                0x0000000000008590       0x94 .build/obj_massdrop_ctrl_greyasteroid/protocol/arm_atsam/main_arm_atsam.o
                0x0000000000008590                send_keyboard
 .text.startup.main
                0x0000000000008624      0x11c .build/obj_massdrop_ctrl_greyasteroid/protocol/arm_atsam/main_arm_atsam.o
                0x0000000000008624                main
 .text.SR_EXP_WriteData
                0x0000000000008740       0x64 .build/obj_massdrop_ctrl_greyasteroid/protocol/arm_atsam/spi.o
                0x0000000000008740                SR_EXP_WriteData
 .text.SR_EXP_Init
                0x00000000000087a4       0xd0 .build/obj_massdrop_ctrl_greyasteroid/protocol/arm_atsam/spi.o
                0x00000000000087a4                SR_EXP_Init
 .text.Dummy_Handler
                0x0000000000008874        0x2 .build/obj_massdrop_ctrl_greyasteroid/protocol/arm_atsam/startup.o
                0x0000000000008874                ICM_Handler
                0x0000000000008874                SERCOM0_2_Handler
                0x0000000000008874                DebugMon_Handler
                0x0000000000008874                EIC_13_Handler
                0x0000000000008874                EVSYS_0_Handler
                0x0000000000008874                TCC1_3_Handler
                0x0000000000008874                DAC_3_Handler
                0x0000000000008874                TRNG_Handler
                0x0000000000008874                HardFault_Handler
                0x0000000000008874                TC2_Handler
                0x0000000000008874                PDEC_2_Handler
                0x0000000000008874                EIC_4_Handler
                0x0000000000008874                AC_Handler
                0x0000000000008874                SERCOM3_1_Handler
                0x0000000000008874                SysTick_Handler
                0x0000000000008874                TCC2_3_Handler
                0x0000000000008874                SERCOM3_2_Handler
                0x0000000000008874                PendSV_Handler
                0x0000000000008874                NMI_Handler
                0x0000000000008874                ADC1_1_Handler
                0x0000000000008874                EVSYS_3_Handler
                0x0000000000008874                PDEC_0_Handler
                0x0000000000008874                QSPI_Handler
                0x0000000000008874                TCC0_0_Handler
                0x0000000000008874                EIC_3_Handler
                0x0000000000008874                TAL_0_Handler
                0x0000000000008874                DAC_2_Handler
                0x0000000000008874                SERCOM0_0_Handler
                0x0000000000008874                RTC_Handler
                0x0000000000008874                UsageFault_Handler
                0x0000000000008874                SERCOM4_0_Handler
                0x0000000000008874                EIC_10_Handler
                0x0000000000008874                SERCOM0_3_Handler
                0x0000000000008874                EIC_11_Handler
                0x0000000000008874                EIC_9_Handler
                0x0000000000008874                OSC32KCTRL_Handler
                0x0000000000008874                TCC2_1_Handler
                0x0000000000008874                SUPC_1_Handler
                0x0000000000008874                TCC0_5_Handler
                0x0000000000008874                TCC0_6_Handler
                0x0000000000008874                EVSYS_1_Handler
                0x0000000000008874                TCC1_4_Handler
                0x0000000000008874                WDT_Handler
                0x0000000000008874                EIC_8_Handler
                0x0000000000008874                EIC_15_Handler
                0x0000000000008874                SERCOM5_0_Handler
                0x0000000000008874                TC1_Handler
                0x0000000000008874                OSCCTRL_4_Handler
                0x0000000000008874                SERCOM4_3_Handler
                0x0000000000008874                EIC_12_Handler
                0x0000000000008874                DMAC_4_Handler
                0x0000000000008874                TCC4_2_Handler
                0x0000000000008874                PAC_Handler
                0x0000000000008874                TCC1_0_Handler
                0x0000000000008874                OSCCTRL_0_Handler
                0x0000000000008874                EIC_0_Handler
                0x0000000000008874                OSCCTRL_3_Handler
                0x0000000000008874                SERCOM4_1_Handler
                0x0000000000008874                TC3_Handler
                0x0000000000008874                Dummy_Handler
                0x0000000000008874                TCC3_0_Handler
                0x0000000000008874                TCC2_2_Handler
                0x0000000000008874                SERCOM5_1_Handler
                0x0000000000008874                TCC1_1_Handler
                0x0000000000008874                DMAC_2_Handler
                0x0000000000008874                ADC0_0_Handler
                0x0000000000008874                SERCOM0_1_Handler
                0x0000000000008874                OSCCTRL_2_Handler
                0x0000000000008874                ADC1_0_Handler
                0x0000000000008874                TCC1_2_Handler
                0x0000000000008874                PM_Handler
                0x0000000000008874                SERCOM2_3_Handler
                0x0000000000008874                DAC_4_Handler
                0x0000000000008874                TCC3_2_Handler
                0x0000000000008874                TCC0_2_Handler
                0x0000000000008874                DMAC_1_Handler
                0x0000000000008874                TCC4_0_Handler
                0x0000000000008874                TCC2_0_Handler
                0x0000000000008874                PDEC_1_Handler
                0x0000000000008874                MemManage_Handler
                0x0000000000008874                TCC4_1_Handler
                0x0000000000008874                SERCOM5_3_Handler
                0x0000000000008874                SVC_Handler
                0x0000000000008874                SDHC0_Handler
                0x0000000000008874                SERCOM1_1_Handler
                0x0000000000008874                I2S_Handler
                0x0000000000008874                EIC_2_Handler
                0x0000000000008874                PCC_Handler
                0x0000000000008874                DAC_0_Handler
                0x0000000000008874                TCC0_1_Handler
                0x0000000000008874                SERCOM1_3_Handler
                0x0000000000008874                EIC_6_Handler
                0x0000000000008874                OSCCTRL_1_Handler
                0x0000000000008874                PUKCC_Handler
                0x0000000000008874                SERCOM2_1_Handler
                0x0000000000008874                SERCOM1_2_Handler
                0x0000000000008874                SERCOM3_0_Handler
                0x0000000000008874                EIC_1_Handler
                0x0000000000008874                SERCOM4_2_Handler
                0x0000000000008874                EVSYS_4_Handler
                0x0000000000008874                NVMCTRL_1_Handler
                0x0000000000008874                SERCOM5_2_Handler
                0x0000000000008874                SERCOM3_3_Handler
                0x0000000000008874                ADC0_1_Handler
                0x0000000000008874                SERCOM2_2_Handler
                0x0000000000008874                TCC3_1_Handler
                0x0000000000008874                EIC_14_Handler
                0x0000000000008874                DAC_1_Handler
                0x0000000000008874                NVMCTRL_0_Handler
                0x0000000000008874                TAL_1_Handler
                0x0000000000008874                MCLK_Handler
                0x0000000000008874                EVSYS_2_Handler
                0x0000000000008874                SUPC_0_Handler
                0x0000000000008874                BusFault_Handler
                0x0000000000008874                FREQM_Handler
                0x0000000000008874                TC0_Handler
                0x0000000000008874                TCC0_3_Handler
                0x0000000000008874                DMAC_3_Handler
                0x0000000000008874                TCC0_4_Handler
                0x0000000000008874                RAMECC_Handler
                0x0000000000008874                TC5_Handler
                0x0000000000008874                SERCOM2_0_Handler
                0x0000000000008874                AES_Handler
                0x0000000000008874                EIC_5_Handler
 *fill*         0x0000000000008876        0x2 
 .text.Reset_Handler
                0x0000000000008878       0x9c .build/obj_massdrop_ctrl_greyasteroid/protocol/arm_atsam/startup.o
                0x0000000000008878                Reset_Handler
 .text.main_suspend_action
                0x0000000000008914        0x4 .build/obj_massdrop_ctrl_greyasteroid/protocol/arm_atsam/usb/main_usb.o
                0x0000000000008914                main_suspend_action
 .text.main_resume_action
                0x0000000000008918        0x4 .build/obj_massdrop_ctrl_greyasteroid/protocol/arm_atsam/usb/main_usb.o
                0x0000000000008918                main_resume_action
 .text.main_sof_action
                0x000000000000891c        0xe .build/obj_massdrop_ctrl_greyasteroid/protocol/arm_atsam/usb/main_usb.o
                0x000000000000891c                main_sof_action
 .text.main_remotewakeup_enable
                0x000000000000892a        0x4 .build/obj_massdrop_ctrl_greyasteroid/protocol/arm_atsam/usb/main_usb.o
                0x000000000000892a                main_remotewakeup_enable
 .text.main_remotewakeup_disable
                0x000000000000892e        0x4 .build/obj_massdrop_ctrl_greyasteroid/protocol/arm_atsam/usb/main_usb.o
                0x000000000000892e                main_remotewakeup_disable
 *fill*         0x0000000000008932        0x2 
 .text.main_kbd_enable
                0x0000000000008934        0xc .build/obj_massdrop_ctrl_greyasteroid/protocol/arm_atsam/usb/main_usb.o
                0x0000000000008934                main_kbd_enable
 .text.main_kbd_disable
                0x0000000000008940        0xc .build/obj_massdrop_ctrl_greyasteroid/protocol/arm_atsam/usb/main_usb.o
                0x0000000000008940                main_kbd_disable
 .text.main_nkro_enable
                0x000000000000894c        0xc .build/obj_massdrop_ctrl_greyasteroid/protocol/arm_atsam/usb/main_usb.o
                0x000000000000894c                main_nkro_enable
 .text.main_nkro_disable
                0x0000000000008958        0xc .build/obj_massdrop_ctrl_greyasteroid/protocol/arm_atsam/usb/main_usb.o
                0x0000000000008958                main_nkro_disable
 .text.main_exk_enable
                0x0000000000008964        0xc .build/obj_massdrop_ctrl_greyasteroid/protocol/arm_atsam/usb/main_usb.o
                0x0000000000008964                main_exk_enable
 .text.main_exk_disable
                0x0000000000008970        0xc .build/obj_massdrop_ctrl_greyasteroid/protocol/arm_atsam/usb/main_usb.o
                0x0000000000008970                main_exk_disable
 .text.udc_update_iface_desc
                0x000000000000897c       0x4c .build/obj_massdrop_ctrl_greyasteroid/protocol/arm_atsam/usb/udc.o
 .text.udc_valid_address
                0x00000000000089c8       0x10 .build/obj_massdrop_ctrl_greyasteroid/protocol/arm_atsam/usb/udc.o
 .text.udc_next_desc_in_iface.constprop.0
                0x00000000000089d8       0x28 .build/obj_massdrop_ctrl_greyasteroid/protocol/arm_atsam/usb/udc.o
 .text.udc_iface_enable
                0x0000000000008a00       0x40 .build/obj_massdrop_ctrl_greyasteroid/protocol/arm_atsam/usb/udc.o
 .text.udc_iface_disable
                0x0000000000008a40       0x4c .build/obj_massdrop_ctrl_greyasteroid/protocol/arm_atsam/usb/udc.o
 .text.udc_get_interface_desc
                0x0000000000008a8c        0xc .build/obj_massdrop_ctrl_greyasteroid/protocol/arm_atsam/usb/udc.o
                0x0000000000008a8c                udc_get_interface_desc
 .text.udc_start
                0x0000000000008a98        0x4 .build/obj_massdrop_ctrl_greyasteroid/protocol/arm_atsam/usb/udc.o
                0x0000000000008a98                udc_start
 .text.udc_reset
                0x0000000000008a9c       0x3c .build/obj_massdrop_ctrl_greyasteroid/protocol/arm_atsam/usb/udc.o
                0x0000000000008a9c                udc_reset
 .text.udc_sof_notify
                0x0000000000008ad8       0x30 .build/obj_massdrop_ctrl_greyasteroid/protocol/arm_atsam/usb/udc.o
                0x0000000000008ad8                udc_sof_notify
 .text.udc_process_setup
                0x0000000000008b08      0x404 .build/obj_massdrop_ctrl_greyasteroid/protocol/arm_atsam/usb/udc.o
                0x0000000000008b08                udc_process_setup
 .text.CDC_print
                0x0000000000008f0c        0x4 .build/obj_massdrop_ctrl_greyasteroid/protocol/arm_atsam/usb/udi_cdc.o
                0x0000000000008f0c                CDC_print
 .text.CDC_init
                0x0000000000008f10       0x18 .build/obj_massdrop_ctrl_greyasteroid/protocol/arm_atsam/usb/udi_cdc.o
                0x0000000000008f10                CDC_init
 .text.udi_hid_setup
                0x0000000000008f28       0xa4 .build/obj_massdrop_ctrl_greyasteroid/protocol/arm_atsam/usb/udi_hid.o
                0x0000000000008f28                udi_hid_setup
 .text.udi_hid_kbd_getsetting
                0x0000000000008fcc        0x4 .build/obj_massdrop_ctrl_greyasteroid/protocol/arm_atsam/usb/udi_hid_kbd.o
                0x0000000000008fcc                udi_hid_kbd_getsetting
 .text.udi_hid_kbd_setreport
                0x0000000000008fd0       0x34 .build/obj_massdrop_ctrl_greyasteroid/protocol/arm_atsam/usb/udi_hid_kbd.o
 .text.udi_hid_kbd_setreport_valid
                0x0000000000009004        0x2 .build/obj_massdrop_ctrl_greyasteroid/protocol/arm_atsam/usb/udi_hid_kbd.o
 *fill*         0x0000000000009006        0x2 
 .text.udi_hid_nkro_setreport
                0x0000000000009008       0x34 .build/obj_massdrop_ctrl_greyasteroid/protocol/arm_atsam/usb/udi_hid_kbd.o
 .text.udi_hid_exk_setreport
                0x000000000000903c       0x34 .build/obj_massdrop_ctrl_greyasteroid/protocol/arm_atsam/usb/udi_hid_kbd.o
 .text.udi_hid_kbd_enable
                0x0000000000009070       0x2c .build/obj_massdrop_ctrl_greyasteroid/protocol/arm_atsam/usb/udi_hid_kbd.o
                0x0000000000009070                udi_hid_kbd_enable
 .text.udi_hid_kbd_disable
                0x000000000000909c        0x4 .build/obj_massdrop_ctrl_greyasteroid/protocol/arm_atsam/usb/udi_hid_kbd.o
                0x000000000000909c                udi_hid_kbd_disable
 .text.udi_hid_kbd_setup
                0x00000000000090a0       0x18 .build/obj_massdrop_ctrl_greyasteroid/protocol/arm_atsam/usb/udi_hid_kbd.o
                0x00000000000090a0                udi_hid_kbd_setup
 .text.udi_hid_nkro_setup
                0x00000000000090b8       0x1c .build/obj_massdrop_ctrl_greyasteroid/protocol/arm_atsam/usb/udi_hid_kbd.o
                0x00000000000090b8                udi_hid_nkro_setup
 .text.udi_hid_exk_setup
                0x00000000000090d4       0x1c .build/obj_massdrop_ctrl_greyasteroid/protocol/arm_atsam/usb/udi_hid_kbd.o
                0x00000000000090d4                udi_hid_exk_setup
 .text.udi_hid_nkro_enable
                0x00000000000090f0       0x34 .build/obj_massdrop_ctrl_greyasteroid/protocol/arm_atsam/usb/udi_hid_kbd.o
                0x00000000000090f0                udi_hid_nkro_enable
 .text.udi_hid_nkro_disable
                0x0000000000009124        0x4 .build/obj_massdrop_ctrl_greyasteroid/protocol/arm_atsam/usb/udi_hid_kbd.o
                0x0000000000009124                udi_hid_nkro_disable
 .text.udi_hid_exk_enable
                0x0000000000009128       0x24 .build/obj_massdrop_ctrl_greyasteroid/protocol/arm_atsam/usb/udi_hid_kbd.o
                0x0000000000009128                udi_hid_exk_enable
 .text.udi_hid_exk_disable
                0x000000000000914c        0x4 .build/obj_massdrop_ctrl_greyasteroid/protocol/arm_atsam/usb/udi_hid_kbd.o
                0x000000000000914c                udi_hid_exk_disable
 .text.udi_hid_exk_setreport_valid
                0x0000000000009150        0x2 .build/obj_massdrop_ctrl_greyasteroid/protocol/arm_atsam/usb/udi_hid_kbd.o
 .text.udi_hid_nkro_setreport_valid
                0x0000000000009152        0x2 .build/obj_massdrop_ctrl_greyasteroid/protocol/arm_atsam/usb/udi_hid_kbd.o
 .text.udi_hid_exk_getsetting
                0x0000000000009154        0x4 .build/obj_massdrop_ctrl_greyasteroid/protocol/arm_atsam/usb/udi_hid_kbd.o
                0x0000000000009154                udi_hid_exk_getsetting
 .text.udi_hid_nkro_getsetting
                0x0000000000009158        0x4 .build/obj_massdrop_ctrl_greyasteroid/protocol/arm_atsam/usb/udi_hid_kbd.o
                0x0000000000009158                udi_hid_nkro_getsetting
 .text.udi_hid_kbd_send_report
                0x000000000000915c       0x5c .build/obj_massdrop_ctrl_greyasteroid/protocol/arm_atsam/usb/udi_hid_kbd.o
                0x000000000000915c                udi_hid_kbd_send_report
 .text.udi_hid_kbd_report_sent
                0x00000000000091b8       0x1c .build/obj_massdrop_ctrl_greyasteroid/protocol/arm_atsam/usb/udi_hid_kbd.o
 .text.udi_hid_nkro_send_report
                0x00000000000091d4       0x64 .build/obj_massdrop_ctrl_greyasteroid/protocol/arm_atsam/usb/udi_hid_kbd.o
                0x00000000000091d4                udi_hid_nkro_send_report
 .text.udi_hid_nkro_report_sent
                0x0000000000009238       0x1c .build/obj_massdrop_ctrl_greyasteroid/protocol/arm_atsam/usb/udi_hid_kbd.o
 .text.udi_hid_exk_send_report
                0x0000000000009254       0x54 .build/obj_massdrop_ctrl_greyasteroid/protocol/arm_atsam/usb/udi_hid_kbd.o
                0x0000000000009254                udi_hid_exk_send_report
 .text.udi_hid_exk_report_sent
                0x00000000000092a8       0x1c .build/obj_massdrop_ctrl_greyasteroid/protocol/arm_atsam/usb/udi_hid_kbd.o
 .text.ui_powerdown
                0x00000000000092c4        0x2 .build/obj_massdrop_ctrl_greyasteroid/protocol/arm_atsam/usb/ui.o
                0x00000000000092c4                ui_powerdown
 .text.ui_wakeup_enable
                0x00000000000092c6        0x2 .build/obj_massdrop_ctrl_greyasteroid/protocol/arm_atsam/usb/ui.o
                0x00000000000092c6                ui_wakeup_enable
 .text.ui_wakeup_disable
                0x00000000000092c8        0x2 .build/obj_massdrop_ctrl_greyasteroid/protocol/arm_atsam/usb/ui.o
                0x00000000000092c8                ui_wakeup_disable
 .text.ui_wakeup
                0x00000000000092ca        0x2 .build/obj_massdrop_ctrl_greyasteroid/protocol/arm_atsam/usb/ui.o
                0x00000000000092ca                ui_wakeup
 .text.ui_process
                0x00000000000092cc        0x2 .build/obj_massdrop_ctrl_greyasteroid/protocol/arm_atsam/usb/ui.o
                0x00000000000092cc                ui_process
 *fill*         0x00000000000092ce        0x2 
 .text.USB_write2422_block
                0x00000000000092d0       0x7c .build/obj_massdrop_ctrl_greyasteroid/protocol/arm_atsam/usb/usb2422.o
                0x00000000000092d0                USB_write2422_block
 .text.USB2422_init
                0x000000000000934c      0x228 .build/obj_massdrop_ctrl_greyasteroid/protocol/arm_atsam/usb/usb2422.o
                0x000000000000934c                USB2422_init
 .text.USB_reset
                0x0000000000009574       0x38 .build/obj_massdrop_ctrl_greyasteroid/protocol/arm_atsam/usb/usb2422.o
                0x0000000000009574                USB_reset
 .text.USB_configure
                0x00000000000095ac       0xf8 .build/obj_massdrop_ctrl_greyasteroid/protocol/arm_atsam/usb/usb2422.o
                0x00000000000095ac                USB_configure
 .text.USB_active
                0x00000000000096a4       0x10 .build/obj_massdrop_ctrl_greyasteroid/protocol/arm_atsam/usb/usb2422.o
                0x00000000000096a4                USB_active
 .text.USB_set_host_by_voltage
                0x00000000000096b4       0xe4 .build/obj_massdrop_ctrl_greyasteroid/protocol/arm_atsam/usb/usb2422.o
                0x00000000000096b4                USB_set_host_by_voltage
 .text.USB2422_Port_Detect_Init
                0x0000000000009798       0x98 .build/obj_massdrop_ctrl_greyasteroid/protocol/arm_atsam/usb/usb2422.o
                0x0000000000009798                USB2422_Port_Detect_Init
 .text.USB_ExtraSetState
                0x0000000000009830       0x80 .build/obj_massdrop_ctrl_greyasteroid/protocol/arm_atsam/usb/usb2422.o
                0x0000000000009830                USB_ExtraSetState
 .text.USB_HandleExtraDevice
                0x00000000000098b0       0xb0 .build/obj_massdrop_ctrl_greyasteroid/protocol/arm_atsam/usb/usb2422.o
                0x00000000000098b0                USB_HandleExtraDevice
 .text._usb_device_interrupt_handler
                0x0000000000009960      0x208 .build/obj_massdrop_ctrl_greyasteroid/protocol/arm_atsam/usb/usb.o
 .text.usb_device_register_callback
                0x0000000000009b68       0x20 .build/obj_massdrop_ctrl_greyasteroid/protocol/arm_atsam/usb/usb.o
                0x0000000000009b68                usb_device_register_callback
 .text.usb_device_enable_callback
                0x0000000000009b88       0x20 .build/obj_massdrop_ctrl_greyasteroid/protocol/arm_atsam/usb/usb.o
                0x0000000000009b88                usb_device_enable_callback
 .text.usb_device_disable_callback
                0x0000000000009ba8       0x20 .build/obj_massdrop_ctrl_greyasteroid/protocol/arm_atsam/usb/usb.o
                0x0000000000009ba8                usb_device_disable_callback
 .text.usb_device_endpoint_register_callback
                0x0000000000009bc8       0x28 .build/obj_massdrop_ctrl_greyasteroid/protocol/arm_atsam/usb/usb.o
                0x0000000000009bc8                usb_device_endpoint_register_callback
 .text.usb_device_endpoint_unregister_callback
                0x0000000000009bf0       0x2c .build/obj_massdrop_ctrl_greyasteroid/protocol/arm_atsam/usb/usb.o
                0x0000000000009bf0                usb_device_endpoint_unregister_callback
 .text.usb_device_endpoint_enable_callback
                0x0000000000009c1c       0x88 .build/obj_massdrop_ctrl_greyasteroid/protocol/arm_atsam/usb/usb.o
                0x0000000000009c1c                usb_device_endpoint_enable_callback
 .text.usb_device_endpoint_disable_callback
                0x0000000000009ca4       0x88 .build/obj_massdrop_ctrl_greyasteroid/protocol/arm_atsam/usb/usb.o
                0x0000000000009ca4                usb_device_endpoint_disable_callback
 .text.usb_device_endpoint_get_config_defaults
                0x0000000000009d2c        0xe .build/obj_massdrop_ctrl_greyasteroid/protocol/arm_atsam/usb/usb.o
                0x0000000000009d2c                usb_device_endpoint_get_config_defaults
 *fill*         0x0000000000009d3a        0x2 
 .text.usb_device_endpoint_set_config
                0x0000000000009d3c      0x180 .build/obj_massdrop_ctrl_greyasteroid/protocol/arm_atsam/usb/usb.o
                0x0000000000009d3c                usb_device_endpoint_set_config
 .text.usb_device_endpoint_abort_job
                0x0000000000009ebc       0x2c .build/obj_massdrop_ctrl_greyasteroid/protocol/arm_atsam/usb/usb.o
                0x0000000000009ebc                usb_device_endpoint_abort_job
 .text.usb_device_endpoint_is_halted
                0x0000000000009ee8       0x1e .build/obj_massdrop_ctrl_greyasteroid/protocol/arm_atsam/usb/usb.o
                0x0000000000009ee8                usb_device_endpoint_is_halted
 .text.usb_device_endpoint_set_halt
                0x0000000000009f06       0x1a .build/obj_massdrop_ctrl_greyasteroid/protocol/arm_atsam/usb/usb.o
                0x0000000000009f06                usb_device_endpoint_set_halt
 .text.usb_device_endpoint_clear_halt
                0x0000000000009f20       0x6a .build/obj_massdrop_ctrl_greyasteroid/protocol/arm_atsam/usb/usb.o
                0x0000000000009f20                usb_device_endpoint_clear_halt
 *fill*         0x0000000000009f8a        0x2 
 .text.usb_device_endpoint_write_buffer_job
                0x0000000000009f8c       0x40 .build/obj_massdrop_ctrl_greyasteroid/protocol/arm_atsam/usb/usb.o
                0x0000000000009f8c                usb_device_endpoint_write_buffer_job
 .text.usb_device_endpoint_read_buffer_job
                0x0000000000009fcc       0x3c .build/obj_massdrop_ctrl_greyasteroid/protocol/arm_atsam/usb/usb.o
                0x0000000000009fcc                usb_device_endpoint_read_buffer_job
 .text.usb_device_endpoint_setup_buffer_job
                0x000000000000a008       0x28 .build/obj_massdrop_ctrl_greyasteroid/protocol/arm_atsam/usb/usb.o
                0x000000000000a008                usb_device_endpoint_setup_buffer_job
 .text.usb_enable
                0x000000000000a030       0x14 .build/obj_massdrop_ctrl_greyasteroid/protocol/arm_atsam/usb/usb.o
                0x000000000000a030                usb_enable
 .text.USB_0_Handler
                0x000000000000a044       0x18 .build/obj_massdrop_ctrl_greyasteroid/protocol/arm_atsam/usb/usb.o
                0x000000000000a044                USB_0_Handler
 .text.USB_1_Handler
                0x000000000000a05c        0x4 .build/obj_massdrop_ctrl_greyasteroid/protocol/arm_atsam/usb/usb.o
                0x000000000000a05c                USB_1_Handler
 .text.USB_2_Handler
                0x000000000000a060        0x4 .build/obj_massdrop_ctrl_greyasteroid/protocol/arm_atsam/usb/usb.o
                0x000000000000a060                USB_2_Handler
 .text.USB_3_Handler
                0x000000000000a064        0x4 .build/obj_massdrop_ctrl_greyasteroid/protocol/arm_atsam/usb/usb.o
                0x000000000000a064                USB_3_Handler
 .text.usb_get_config_defaults
                0x000000000000a068        0xe .build/obj_massdrop_ctrl_greyasteroid/protocol/arm_atsam/usb/usb.o
                0x000000000000a068                usb_get_config_defaults
 *fill*         0x000000000000a076        0x2 
 .text.usb_init
                0x000000000000a078      0x1fc .build/obj_massdrop_ctrl_greyasteroid/protocol/arm_atsam/usb/usb.o
                0x000000000000a078                usb_init
 .text.udd_ep_get_job
                0x000000000000a274       0x24 .build/obj_massdrop_ctrl_greyasteroid/protocol/arm_atsam/usb/usb_device_udd.o
 .text.udd_ep_transfer_process
                0x000000000000a298      0x138 .build/obj_massdrop_ctrl_greyasteroid/protocol/arm_atsam/usb/usb_device_udd.o
 .text.udd_ctrl_stall_data
                0x000000000000a3d0       0x28 .build/obj_massdrop_ctrl_greyasteroid/protocol/arm_atsam/usb/usb_device_udd.o
 .text._usb_on_wakeup
                0x000000000000a3f8       0x20 .build/obj_massdrop_ctrl_greyasteroid/protocol/arm_atsam/usb/usb_device_udd.o
 .text._usb_on_bus_reset
                0x000000000000a418       0x8c .build/obj_massdrop_ctrl_greyasteroid/protocol/arm_atsam/usb/usb_device_udd.o
 .text.udd_ctrl_send_zlp_in
                0x000000000000a4a4       0x38 .build/obj_massdrop_ctrl_greyasteroid/protocol/arm_atsam/usb/usb_device_udd.o
 .text._usb_ep0_on_tansfer_fail
                0x000000000000a4dc       0x38 .build/obj_massdrop_ctrl_greyasteroid/protocol/arm_atsam/usb/usb_device_udd.o
 .text.udd_ctrl_in_sent
                0x000000000000a514       0x8c .build/obj_massdrop_ctrl_greyasteroid/protocol/arm_atsam/usb/usb_device_udd.o
 .text._usb_ep0_on_setup
                0x000000000000a5a0       0xbc .build/obj_massdrop_ctrl_greyasteroid/protocol/arm_atsam/usb/usb_device_udd.o
 .text._usb_on_sof_notify
                0x000000000000a65c        0xe .build/obj_massdrop_ctrl_greyasteroid/protocol/arm_atsam/usb/usb_device_udd.o
 *fill*         0x000000000000a66a        0x2 
 .text._usb_on_suspend
                0x000000000000a66c       0x20 .build/obj_massdrop_ctrl_greyasteroid/protocol/arm_atsam/usb/usb_device_udd.o
 .text.udd_ep_abort
                0x000000000000a68c       0x34 .build/obj_massdrop_ctrl_greyasteroid/protocol/arm_atsam/usb/usb_device_udd.o
                0x000000000000a68c                udd_ep_abort
 .text.udd_get_frame_number
                0x000000000000a6c0       0x10 .build/obj_massdrop_ctrl_greyasteroid/protocol/arm_atsam/usb/usb_device_udd.o
                0x000000000000a6c0                udd_get_frame_number
 .text.udd_ep_free
                0x000000000000a6d0       0x44 .build/obj_massdrop_ctrl_greyasteroid/protocol/arm_atsam/usb/usb_device_udd.o
                0x000000000000a6d0                udd_ep_free
 .text.udd_ep_alloc
                0x000000000000a714       0xc0 .build/obj_massdrop_ctrl_greyasteroid/protocol/arm_atsam/usb/usb_device_udd.o
                0x000000000000a714                udd_ep_alloc
 .text.udd_ep_is_halted
                0x000000000000a7d4        0xc .build/obj_massdrop_ctrl_greyasteroid/protocol/arm_atsam/usb/usb_device_udd.o
                0x000000000000a7d4                udd_ep_is_halted
 .text.udd_ep_set_halt
                0x000000000000a7e0       0x28 .build/obj_massdrop_ctrl_greyasteroid/protocol/arm_atsam/usb/usb_device_udd.o
                0x000000000000a7e0                udd_ep_set_halt
 .text._usb_ep0_on_tansfer_ok
                0x000000000000a808       0xcc .build/obj_massdrop_ctrl_greyasteroid/protocol/arm_atsam/usb/usb_device_udd.o
 .text.udd_ep_clear_halt
                0x000000000000a8d4       0x34 .build/obj_massdrop_ctrl_greyasteroid/protocol/arm_atsam/usb/usb_device_udd.o
                0x000000000000a8d4                udd_ep_clear_halt
 .text.udd_ep_run
                0x000000000000a908      0x140 .build/obj_massdrop_ctrl_greyasteroid/protocol/arm_atsam/usb/usb_device_udd.o
                0x000000000000a908                udd_ep_run
 .text.udd_set_address
                0x000000000000aa48       0x10 .build/obj_massdrop_ctrl_greyasteroid/protocol/arm_atsam/usb/usb_device_udd.o
                0x000000000000aa48                udd_set_address
 .text.udd_getaddress
                0x000000000000aa58       0x10 .build/obj_massdrop_ctrl_greyasteroid/protocol/arm_atsam/usb/usb_device_udd.o
                0x000000000000aa58                udd_getaddress
 .text.udd_send_remotewakeup
                0x000000000000aa68       0x20 .build/obj_massdrop_ctrl_greyasteroid/protocol/arm_atsam/usb/usb_device_udd.o
                0x000000000000aa68                udd_send_remotewakeup
 .text.udd_set_setup_payload
                0x000000000000aa88        0xc .build/obj_massdrop_ctrl_greyasteroid/protocol/arm_atsam/usb/usb_device_udd.o
                0x000000000000aa88                udd_set_setup_payload
 .text.udd_attach
                0x000000000000aa94       0x74 .build/obj_massdrop_ctrl_greyasteroid/protocol/arm_atsam/usb/usb_device_udd.o
                0x000000000000aa94                udd_attach
 .text.udd_enable
                0x000000000000ab08       0x40 .build/obj_massdrop_ctrl_greyasteroid/protocol/arm_atsam/usb/usb_device_udd.o
                0x000000000000ab08                udd_enable
 .text          0x000000000000ab48      0x378 /usr/local/Cellar/arm-gcc-bin@8/8-2019-q3-update/bin/../lib/gcc/arm-none-eabi/8.3.1/thumb/v7e-m+fp/hard/libgcc.a(_arm_addsubdf3.o)
                0x000000000000ab48                __aeabi_drsub
                0x000000000000ab50                __subdf3
                0x000000000000ab50                __aeabi_dsub
                0x000000000000ab54                __aeabi_dadd
                0x000000000000ab54                __adddf3
                0x000000000000adcc                __aeabi_ui2d
                0x000000000000adcc                __floatunsidf
                0x000000000000adec                __floatsidf
                0x000000000000adec                __aeabi_i2d
                0x000000000000ae10                __extendsfdf2
                0x000000000000ae10                __aeabi_f2d
                0x000000000000ae54                __aeabi_ul2d
                0x000000000000ae54                __floatundidf
                0x000000000000ae64                __aeabi_l2d
                0x000000000000ae64                __floatdidf
 .text          0x000000000000aec0      0x424 /usr/local/Cellar/arm-gcc-bin@8/8-2019-q3-update/bin/../lib/gcc/arm-none-eabi/8.3.1/thumb/v7e-m+fp/hard/libgcc.a(_arm_muldivdf3.o)
                0x000000000000aec0                __aeabi_dmul
                0x000000000000aec0                __muldf3
                0x000000000000b114                __aeabi_ddiv
                0x000000000000b114                __divdf3
 .text          0x000000000000b2e4       0x40 /usr/local/Cellar/arm-gcc-bin@8/8-2019-q3-update/bin/../lib/gcc/arm-none-eabi/8.3.1/thumb/v7e-m+fp/hard/libgcc.a(_arm_fixunsdfsi.o)
                0x000000000000b2e4                __fixunsdfsi
                0x000000000000b2e4                __aeabi_d2uiz
 .text          0x000000000000b324       0x30 /usr/local/Cellar/arm-gcc-bin@8/8-2019-q3-update/bin/../lib/gcc/arm-none-eabi/8.3.1/thumb/v7e-m+fp/hard/libgcc.a(_aeabi_uldivmod.o)
                0x000000000000b324                __aeabi_uldivmod
 .text          0x000000000000b354      0x2d0 /usr/local/Cellar/arm-gcc-bin@8/8-2019-q3-update/bin/../lib/gcc/arm-none-eabi/8.3.1/thumb/v7e-m+fp/hard/libgcc.a(_udivmoddi4.o)
                0x000000000000b354                __udivmoddi4
 .text          0x000000000000b624        0x4 /usr/local/Cellar/arm-gcc-bin@8/8-2019-q3-update/bin/../lib/gcc/arm-none-eabi/8.3.1/thumb/v7e-m+fp/hard/libgcc.a(_dvmd_tls.o)
                0x000000000000b624                __aeabi_ldiv0
                0x000000000000b624                __aeabi_idiv0
 .text.__libc_init_array
                0x000000000000b628       0x48 /usr/local/Cellar/arm-gcc-bin@8/8-2019-q3-update/bin/../lib/gcc/arm-none-eabi/8.3.1/../../../../arm-none-eabi/lib/thumb/v7e-m+fp/hard/libg.a(lib_a-init.o)
                0x000000000000b628                __libc_init_array
 .text          0x000000000000b670      0x134 /usr/local/Cellar/arm-gcc-bin@8/8-2019-q3-update/bin/../lib/gcc/arm-none-eabi/8.3.1/../../../../arm-none-eabi/lib/thumb/v7e-m+fp/hard/libg.a(lib_a-memcpy.o)
                0x000000000000b670                memcpy
 .text.memset   0x000000000000b7a4       0xa0 /usr/local/Cellar/arm-gcc-bin@8/8-2019-q3-update/bin/../lib/gcc/arm-none-eabi/8.3.1/../../../../arm-none-eabi/lib/thumb/v7e-m+fp/hard/libg.a(lib_a-memset.o)
                0x000000000000b7a4                memset
 .text.startup.register_fini
                0x000000000000b844       0x14 /usr/local/Cellar/arm-gcc-bin@8/8-2019-q3-update/bin/../lib/gcc/arm-none-eabi/8.3.1/../../../../arm-none-eabi/lib/thumb/v7e-m+fp/hard/libg.a(lib_a-__call_atexit.o)
 .text.atexit   0x000000000000b858        0xc /usr/local/Cellar/arm-gcc-bin@8/8-2019-q3-update/bin/../lib/gcc/arm-none-eabi/8.3.1/../../../../arm-none-eabi/lib/thumb/v7e-m+fp/hard/libg.a(lib_a-atexit.o)
                0x000000000000b858                atexit
 .text.__libc_fini_array
                0x000000000000b864       0x34 /usr/local/Cellar/arm-gcc-bin@8/8-2019-q3-update/bin/../lib/gcc/arm-none-eabi/8.3.1/../../../../arm-none-eabi/lib/thumb/v7e-m+fp/hard/libg.a(lib_a-fini.o)
                0x000000000000b864                __libc_fini_array
 .text.__retarget_lock_acquire_recursive
                0x000000000000b898        0x4 /usr/local/Cellar/arm-gcc-bin@8/8-2019-q3-update/bin/../lib/gcc/arm-none-eabi/8.3.1/../../../../arm-none-eabi/lib/thumb/v7e-m+fp/hard/libg.a(lib_a-lock.o)
                0x000000000000b898                __retarget_lock_acquire_recursive
 .text.__retarget_lock_release_recursive
                0x000000000000b89c        0x4 /usr/local/Cellar/arm-gcc-bin@8/8-2019-q3-update/bin/../lib/gcc/arm-none-eabi/8.3.1/../../../../arm-none-eabi/lib/thumb/v7e-m+fp/hard/libg.a(lib_a-lock.o)
                0x000000000000b89c                __retarget_lock_release_recursive
 .text.__register_exitproc
                0x000000000000b8a0       0x88 /usr/local/Cellar/arm-gcc-bin@8/8-2019-q3-update/bin/../lib/gcc/arm-none-eabi/8.3.1/../../../../arm-none-eabi/lib/thumb/v7e-m+fp/hard/libg.a(lib_a-__atexit.o)
                0x000000000000b8a0                __register_exitproc
 *(.glue_7t)
 .glue_7t       0x000000000000b928        0x0 linker stubs
 *(.glue_7)
 .glue_7        0x000000000000b928        0x0 linker stubs
 *(.rodata .rodata* .gnu.linkonce.r.*)
 .rodata        0x000000000000b928      0x160 .build/obj_massdrop_ctrl_greyasteroid/keyboards/massdrop/ctrl/keymaps/greyasteroid/keymap.o
                0x000000000000b928                keymaps
 .rodata        0x000000000000ba88       0x32 .build/obj_massdrop_ctrl_greyasteroid/quantum/keymap_common.o
                0x000000000000baba                fn_actions
 .rodata        0x000000000000baba        0xd .build/obj_massdrop_ctrl_greyasteroid/quantum/rgb_matrix.o
                0x000000000000bac5                k_rgb_matrix_center
 .rodata        0x000000000000bac7      0x100 .build/obj_massdrop_ctrl_greyasteroid/quantum/led_tables.o
                0x000000000000bac7                CIE1931_CURVE
 *fill*         0x000000000000bbc7        0x1 
 .rodata        0x000000000000bbc8       0x32 .build/obj_massdrop_ctrl_greyasteroid/common/action.o
 .rodata.str1.1
                0x000000000000bbfa       0x1a .build/obj_massdrop_ctrl_greyasteroid/common/arm_atsam/bootloader.o
 .rodata        0x000000000000bc14       0x1e .build/obj_massdrop_ctrl_greyasteroid/protocol/arm_atsam/clks.o
                0x000000000000bc14                sercom_apbbase
                0x000000000000bc2c                sercom_pchan
 .rodata        0x000000000000bc32        0x2 .build/obj_massdrop_ctrl_greyasteroid/protocol/arm_atsam/i2c_master.o
 .rodata        0x000000000000bc34       0x10 .build/obj_massdrop_ctrl_greyasteroid/protocol/arm_atsam/led_matrix.o
                0x000000000000bc34                rgb_matrix_driver
 .rodata.str1.1
                0x000000000000bc44       0x52 .build/obj_massdrop_ctrl_greyasteroid/protocol/arm_atsam/led_matrix.o
 .rodata.str1.1
                0x000000000000bc96        0xc .build/obj_massdrop_ctrl_greyasteroid/protocol/arm_atsam/usb/udc.o
 .rodata        0x000000000000bca2       0x48 .build/obj_massdrop_ctrl_greyasteroid/protocol/arm_atsam/usb/usb2422.o
                0x000000000000bca2                SERNAME
                0x000000000000bcb8                MFRNAME
                0x000000000000bcd2                PRDNAME
 .rodata.str1.1
                0x000000000000bcea       0x69 .build/obj_massdrop_ctrl_greyasteroid/protocol/arm_atsam/usb/usb2422.o
 *fill*         0x000000000000bd53        0x1 
 .rodata        0x000000000000bd54       0x12 .build/obj_massdrop_ctrl_greyasteroid/protocol/arm_atsam/usb/usb.o
 *fill*         0x000000000000bd66        0x2 
 .rodata._global_impure_ptr
                0x000000000000bd68        0x4 /usr/local/Cellar/arm-gcc-bin@8/8-2019-q3-update/bin/../lib/gcc/arm-none-eabi/8.3.1/../../../../arm-none-eabi/lib/thumb/v7e-m+fp/hard/libg.a(lib_a-impure.o)
                0x000000000000bd68                _global_impure_ptr
 *(.ARM.extab* .gnu.linkonce.armextab.*)
                0x000000000000bd6c                . = ALIGN (0x4)
 *(.init)
 .init          0x000000000000bd6c        0x4 /usr/local/Cellar/arm-gcc-bin@8/8-2019-q3-update/bin/../lib/gcc/arm-none-eabi/8.3.1/thumb/v7e-m+fp/hard/crti.o
                0x000000000000bd6c                _init
 .init          0x000000000000bd70        0x8 /usr/local/Cellar/arm-gcc-bin@8/8-2019-q3-update/bin/../lib/gcc/arm-none-eabi/8.3.1/thumb/v7e-m+fp/hard/crtn.o
                0x000000000000bd78                . = ALIGN (0x4)
                0x000000000000bd78                __preinit_array_start = .
 *(.preinit_array)
                0x000000000000bd78                __preinit_array_end = .
                0x000000000000bd78                . = ALIGN (0x4)
                0x000000000000bd78                __init_array_start = .
 *(SORT_BY_NAME(.init_array.*))
 .init_array.00000
                0x000000000000bd78        0x4 /usr/local/Cellar/arm-gcc-bin@8/8-2019-q3-update/bin/../lib/gcc/arm-none-eabi/8.3.1/../../../../arm-none-eabi/lib/thumb/v7e-m+fp/hard/libg.a(lib_a-__call_atexit.o)
 *(.init_array)
 .init_array    0x000000000000bd7c        0x4 /usr/local/Cellar/arm-gcc-bin@8/8-2019-q3-update/bin/../lib/gcc/arm-none-eabi/8.3.1/thumb/v7e-m+fp/hard/crtbegin.o
                0x000000000000bd80                __init_array_end = .
                0x000000000000bd80                . = ALIGN (0x4)
 *crtbegin.o(.ctors)
 *(EXCLUDE_FILE(*crtend.o) .ctors)
 *(SORT_BY_NAME(.ctors.*))
 *crtend.o(.ctors)
                0x000000000000bd80                . = ALIGN (0x4)
 *(.fini)
 .fini          0x000000000000bd80        0x4 /usr/local/Cellar/arm-gcc-bin@8/8-2019-q3-update/bin/../lib/gcc/arm-none-eabi/8.3.1/thumb/v7e-m+fp/hard/crti.o
                0x000000000000bd80                _fini
 .fini          0x000000000000bd84        0x8 /usr/local/Cellar/arm-gcc-bin@8/8-2019-q3-update/bin/../lib/gcc/arm-none-eabi/8.3.1/thumb/v7e-m+fp/hard/crtn.o
                0x000000000000bd8c                . = ALIGN (0x4)
                0x000000000000bd8c                __fini_array_start = .
 *(.fini_array)
 .fini_array    0x000000000000bd8c        0x4 /usr/local/Cellar/arm-gcc-bin@8/8-2019-q3-update/bin/../lib/gcc/arm-none-eabi/8.3.1/thumb/v7e-m+fp/hard/crtbegin.o
 *(SORT_BY_NAME(.fini_array.*))
                0x000000000000bd90                __fini_array_end = .
 *crtbegin.o(.dtors)
 *(EXCLUDE_FILE(*crtend.o) .dtors)
 *(SORT_BY_NAME(.dtors.*))
 *crtend.o(.dtors)
                0x000000000000bd90                . = ALIGN (0x4)
                0x000000000000bd90                _efixed = .
                [!provide]                        PROVIDE (__exidx_start = .)

.vfp11_veneer   0x000000000000bd90        0x0
 .vfp11_veneer  0x000000000000bd90        0x0 linker stubs

.v4_bx          0x000000000000bd90        0x0
 .v4_bx         0x000000000000bd90        0x0 linker stubs

.iplt           0x000000000000bd90        0x0
 .iplt          0x000000000000bd90        0x0 /usr/local/Cellar/arm-gcc-bin@8/8-2019-q3-update/bin/../lib/gcc/arm-none-eabi/8.3.1/thumb/v7e-m+fp/hard/crtbegin.o

.igot.plt       0x000000000000bd90        0x0
 .igot.plt      0x000000000000bd90        0x0 /usr/local/Cellar/arm-gcc-bin@8/8-2019-q3-update/bin/../lib/gcc/arm-none-eabi/8.3.1/thumb/v7e-m+fp/hard/crtbegin.o

.ARM.exidx      0x000000000000bd90        0x8
 *(.ARM.exidx* .gnu.linkonce.armexidx.*)
 .ARM.exidx     0x000000000000bd90        0x8 /usr/local/Cellar/arm-gcc-bin@8/8-2019-q3-update/bin/../lib/gcc/arm-none-eabi/8.3.1/thumb/v7e-m+fp/hard/libgcc.a(_udivmoddi4.o)
                [!provide]                        PROVIDE (__exidx_end = .)

.eh_frame       0x000000000000bd98        0x0
 .eh_frame      0x000000000000bd98        0x0 /usr/local/Cellar/arm-gcc-bin@8/8-2019-q3-update/bin/../lib/gcc/arm-none-eabi/8.3.1/thumb/v7e-m+fp/hard/crtbegin.o

.rel.dyn        0x000000000000bd98        0x0
 .rel.iplt      0x000000000000bd98        0x0 /usr/local/Cellar/arm-gcc-bin@8/8-2019-q3-update/bin/../lib/gcc/arm-none-eabi/8.3.1/thumb/v7e-m+fp/hard/crtbegin.o
                0x000000000000bd98                . = ALIGN (0x4)
                0x000000000000bd98                _etext = .

.relocate       0x0000000020000000     0x1c64 load address 0x000000000000bd98
                0x0000000020000000                . = ALIGN (0x4)
                0x0000000020000000                _srelocate = .
 *(.ramfunc .ramfunc.*)
 *(.data .data.*)
 .data          0x0000000020000000       0x1e .build/obj_massdrop_ctrl_greyasteroid/matrix.o
                0x0000000020000000                row_pins
                0x000000002000000b                row_ports
                0x0000000020000016                col_pins
 .data          0x000000002000001e      0x1bd .build/obj_massdrop_ctrl_greyasteroid/config_led.o
                0x000000002000001e                g_led_config
 .data          0x00000000200001db        0x6 .build/obj_massdrop_ctrl_greyasteroid/quantum/rgb_matrix.o
 *fill*         0x00000000200001e1        0x3 
 .data          0x00000000200001e4        0x4 .build/obj_massdrop_ctrl_greyasteroid/common/action_util.o
                0x00000000200001e4                keyboard_report
 .data          0x00000000200001e8     0x1474 .build/obj_massdrop_ctrl_greyasteroid/protocol/arm_atsam/led_matrix.o
                0x00000000200001e8                led_map
 .data          0x000000002000165c       0x18 .build/obj_massdrop_ctrl_greyasteroid/protocol/arm_atsam/main_arm_atsam.o
                0x000000002000165c                g_usb_state
                0x0000000020001660                arm_atsam_driver
 .data          0x0000000020001674        0x1 .build/obj_massdrop_ctrl_greyasteroid/protocol/arm_atsam/usb/main_usb.o
                0x0000000020001674                keyboard_protocol
 *fill*         0x0000000020001675        0x3 
 .data          0x0000000020001678       0x4a .build/obj_massdrop_ctrl_greyasteroid/protocol/arm_atsam/usb/udc.o
 *fill*         0x00000000200016c2        0x2 
 .data          0x00000000200016c4       0xe8 .build/obj_massdrop_ctrl_greyasteroid/protocol/arm_atsam/usb/udi_hid_kbd.o
                0x00000000200016c4                udi_hid_kbd_report_desc
                0x0000000020001700                udi_hid_nkro_report_desc
                0x000000002000173c                udi_hid_exk_report_desc
                0x0000000020001770                udi_api_hid_exk
                0x0000000020001784                udi_api_hid_nkro
                0x0000000020001798                udi_api_hid_kbd
 .data          0x00000000200017ac       0x86 .build/obj_massdrop_ctrl_greyasteroid/protocol/arm_atsam/usb/udi_hid_kbd_desc.o
                0x00000000200017ac                udc_config
                0x00000000200017b8                udc_config_fshs
                0x00000000200017c0                udi_apis
                0x00000000200017cc                udc_desc
                0x0000000020001820                udc_device_desc
 *fill*         0x0000000020001832        0x6 
 .data.impure_data
                0x0000000020001838      0x428 /usr/local/Cellar/arm-gcc-bin@8/8-2019-q3-update/bin/../lib/gcc/arm-none-eabi/8.3.1/../../../../arm-none-eabi/lib/thumb/v7e-m+fp/hard/libg.a(lib_a-impure.o)
 .data.__atexit_recursive_mutex
                0x0000000020001c60        0x4 /usr/local/Cellar/arm-gcc-bin@8/8-2019-q3-update/bin/../lib/gcc/arm-none-eabi/8.3.1/../../../../arm-none-eabi/lib/thumb/v7e-m+fp/hard/libg.a(lib_a-__call_atexit.o)
                0x0000000020001c60                __atexit_recursive_mutex
                0x0000000020001c64                . = ALIGN (0x4)
                0x0000000020001c64                _erelocate = .

.bkupram        0x0000000047000000        0x0
                0x0000000047000000                . = ALIGN (0x8)
                0x0000000047000000                _sbkupram = .
 *(.bkupram .bkupram.*)
                0x0000000047000000                . = ALIGN (0x8)
                0x0000000047000000                _ebkupram = .

.qspi           0x0000000004000000        0x0
                0x0000000004000000                . = ALIGN (0x8)
                0x0000000004000000                _sqspi = .
 *(.qspi .qspi.*)
                0x0000000004000000                . = ALIGN (0x8)
                0x0000000004000000                _eqspi = .

.bss            0x0000000020001c70      0xec4 load address 0x000000000000da10
                0x0000000020001c70                . = ALIGN (0x4)
                0x0000000020001c70                _sbss = .
                0x0000000020001c70                _szero = .
 *(.bss .bss.*)
 .bss           0x0000000020001c70       0x1c /usr/local/Cellar/arm-gcc-bin@8/8-2019-q3-update/bin/../lib/gcc/arm-none-eabi/8.3.1/thumb/v7e-m+fp/hard/crtbegin.o
 *fill*         0x0000000020001c8c        0x4 
 .bss           0x0000000020001c90       0x10 .build/obj_massdrop_ctrl_greyasteroid/matrix.o
                0x0000000020001c90                col_ports
                0x0000000020001c98                mdebouncing
 .bss           0x0000000020001ca0       0x24 .build/obj_massdrop_ctrl_greyasteroid/common/arm_atsam/eeprom.o
 .bss           0x0000000020001cc4       0x31 .build/obj_massdrop_ctrl_greyasteroid/quantum/rgb_matrix.o
                0x0000000020001cf4                g_suspend_state
 *fill*         0x0000000020001cf5        0x1 
 .bss           0x0000000020001cf6        0x4 .build/obj_massdrop_ctrl_greyasteroid/quantum/process_keycode/process_space_cadet.o
 .bss           0x0000000020001cfa        0x1 .build/obj_massdrop_ctrl_greyasteroid/quantum/process_keycode/process_grave_esc.o
 *fill*         0x0000000020001cfb        0x1 
 .bss           0x0000000020001cfc        0x8 .build/obj_massdrop_ctrl_greyasteroid/common/host.o
 .bss           0x0000000020001d04        0xc .build/obj_massdrop_ctrl_greyasteroid/common/keyboard.o
 .bss           0x0000000020001d10        0x1 .build/obj_massdrop_ctrl_greyasteroid/common/action.o
                0x0000000020001d10                disable_action_cache
 *fill*         0x0000000020001d11        0x1 
 .bss           0x0000000020001d12       0x4c .build/obj_massdrop_ctrl_greyasteroid/common/action_tapping.o
 *fill*         0x0000000020001d5e        0x2 
 .bss           0x0000000020001d60       0x3f .build/obj_massdrop_ctrl_greyasteroid/common/action_layer.o
                0x0000000020001d60                default_layer_state
                0x0000000020001d64                layer_state
                0x0000000020001d68                source_layers_cache
 .bss           0x0000000020001d9f       0x26 .build/obj_massdrop_ctrl_greyasteroid/common/action_util.o
 .bss           0x0000000020001dc5        0x1 .build/obj_massdrop_ctrl_greyasteroid/common/debug.o
                0x0000000020001dc5                debug_config
 *fill*         0x0000000020001dc6        0x2 
 .bss           0x0000000020001dc8        0x4 .build/obj_massdrop_ctrl_greyasteroid/protocol/arm_atsam/d51_util.o
 .bss           0x0000000020001dcc      0x166 .build/obj_massdrop_ctrl_greyasteroid/protocol/arm_atsam/i2c_master.o
 .bss           0x0000000020001f32        0x2 .build/obj_massdrop_ctrl_greyasteroid/protocol/arm_atsam/led_matrix.o
 *fill*         0x0000000020001f34        0x4 
 .bss           0x0000000020001f38       0x18 .build/obj_massdrop_ctrl_greyasteroid/protocol/arm_atsam/main_arm_atsam.o
 .bss           0x0000000020001f50        0x3 .build/obj_massdrop_ctrl_greyasteroid/protocol/arm_atsam/usb/main_usb.o
                0x0000000020001f50                main_b_kbd_enable
                0x0000000020001f51                main_b_nkro_enable
                0x0000000020001f52                main_b_exk_enable
 *fill*         0x0000000020001f53        0x1 
 .bss           0x0000000020001f54       0x28 .build/obj_massdrop_ctrl_greyasteroid/protocol/arm_atsam/usb/udc.o
                0x0000000020001f62                bootloader_serial_number
                0x0000000020001f77                usb_device_serial_name_size
 .bss           0x0000000020001f7c       0x43 .build/obj_massdrop_ctrl_greyasteroid/protocol/arm_atsam/usb/udi_hid_kbd.o
 *fill*         0x0000000020001fbf        0x1 
 .bss           0x0000000020001fc0       0x10 .build/obj_massdrop_ctrl_greyasteroid/protocol/arm_atsam/usb/usb.o
 .bss           0x0000000020001fd0       0xa7 .build/obj_massdrop_ctrl_greyasteroid/protocol/arm_atsam/usb/usb_device_udd.o
 *(COMMON)
 *fill*         0x0000000020002077        0x9 
 COMMON         0x0000000020002080       0x50 .build/obj_massdrop_ctrl_greyasteroid/matrix.o
                0x0000000020002080                dmac_desc_wb
                0x0000000020002090                row_masks
                0x0000000020002098                mdebounced
                0x00000000200020a3                mlatest
                0x00000000200020ae                mlast
                0x00000000200020c0                dmac_desc
 COMMON         0x00000000200020d0       0x35 .build/obj_massdrop_ctrl_greyasteroid/quantum/rgb_matrix.o
                0x00000000200020d0                rgb_matrix_config
                0x00000000200020d8                g_rgb_timer
                0x00000000200020dc                g_last_hit_tracker
 *fill*         0x0000000020002105        0x1 
 COMMON         0x0000000020002106        0x2 .build/obj_massdrop_ctrl_greyasteroid/common/magic.o
                0x0000000020002106                keymap_config
 COMMON         0x0000000020002108        0xc .build/obj_massdrop_ctrl_greyasteroid/protocol/arm_atsam/adc.o
                0x0000000020002108                v_con_1_boot
                0x000000002000210a                v_con_1
                0x000000002000210c                v_con_2
                0x000000002000210e                v_con_2_boot
                0x0000000020002110                v_5v
                0x0000000020002112                v_5v_avg
 *fill*         0x0000000020002114        0x4 
 COMMON         0x0000000020002118       0x78 .build/obj_massdrop_ctrl_greyasteroid/protocol/arm_atsam/clks.o
                0x0000000020002118                usec_delay_mult
                0x000000002000211c                system_clks
                0x0000000020002188                ms_clk
 COMMON         0x0000000020002190        0x4 .build/obj_massdrop_ctrl_greyasteroid/protocol/arm_atsam/d51_util.o
                0x0000000020002190                debug_code
 COMMON         0x0000000020002194        0x1 .build/obj_massdrop_ctrl_greyasteroid/protocol/arm_atsam/i2c_master.o
                0x0000000020002194                i2c_led_q_running
 COMMON         0x0000000020002195      0x52a .build/obj_massdrop_ctrl_greyasteroid/protocol/arm_atsam/led_matrix.o
                0x0000000020002195                issidrv
                0x0000000020002557                led_buffer
                0x00000000200026bc                gcr_desired
                0x00000000200026bd                gcr_actual
                0x00000000200026be                gcr_actual_last
 *fill*         0x00000000200026bf        0x1 
 COMMON         0x00000000200026c0        0x2 .build/obj_massdrop_ctrl_greyasteroid/protocol/arm_atsam/spi.o
                0x00000000200026c0                sr_exp_data
 *fill*         0x00000000200026c2        0x2 
 COMMON         0x00000000200026c4        0xd .build/obj_massdrop_ctrl_greyasteroid/protocol/arm_atsam/usb/udi_cdc.o
                0x00000000200026c4                inbuf
                0x00000000200026d0                printbuf
 *fill*         0x00000000200026d1        0x3 
 COMMON         0x00000000200026d4       0x3d .build/obj_massdrop_ctrl_greyasteroid/protocol/arm_atsam/usb/udi_hid_kbd.o
                0x00000000200026d4                udi_hid_nkro_b_report_valid
                0x00000000200026d8                udi_hid_kbd_report
                0x00000000200026e0                udi_hid_kbd_b_report_valid
                0x00000000200026e1                udi_hid_kbd_b_report_trans_ongoing
                0x00000000200026e2                udi_hid_exk_b_report_valid
                0x00000000200026e3                udi_hid_nkro_b_report_trans_ongoing
                0x00000000200026e4                udi_hid_exk_report_set
                0x00000000200026e8                udi_hid_nkro_report
                0x0000000020002708                udi_hid_exk_report
                0x000000002000270c                udi_hid_nkro_report_set
                0x0000000020002710                udi_hid_kbd_report_set
 *fill*         0x0000000020002711        0x1 
 COMMON         0x0000000020002712      0x12a .build/obj_massdrop_ctrl_greyasteroid/protocol/arm_atsam/usb/usb2422.o
                0x0000000020002712                usb_gcr_auto
                0x0000000020002713                i2c0_buf
                0x0000000020002735                usb_extra_state
                0x0000000020002736                usb_extra_manual
                0x0000000020002738                adc_extra
                0x000000002000273a                usb_host_port
                0x000000002000273c                USB2422_shadow
 COMMON         0x000000002000283c      0x100 .build/obj_massdrop_ctrl_greyasteroid/protocol/arm_atsam/usb/usb.o
                0x000000002000283c                usb_descriptor_table
 COMMON         0x000000002000293c      0x1d4 .build/obj_massdrop_ctrl_greyasteroid/protocol/arm_atsam/usb/usb_device_udd.o
                0x000000002000293c                udd_ep_out_cache_buffer
                0x0000000020002a3c                usb_device
                0x0000000020002af0                udd_g_ctrlreq
                0x0000000020002b08                udd_ctrl_buffer
 COMMON         0x0000000020002b10       0x21 /usr/local/Cellar/arm-gcc-bin@8/8-2019-q3-update/bin/../lib/gcc/arm-none-eabi/8.3.1/../../../../arm-none-eabi/lib/thumb/v7e-m+fp/hard/libg.a(lib_a-lock.o)
                0x0000000020002b10                __lock___atexit_recursive_mutex
                0x0000000020002b14                __lock___arc4random_mutex
                0x0000000020002b18                __lock___env_recursive_mutex
                0x0000000020002b1c                __lock___sinit_recursive_mutex
                0x0000000020002b20                __lock___malloc_recursive_mutex
                0x0000000020002b24                __lock___at_quick_exit_mutex
                0x0000000020002b28                __lock___dd_hash_mutex
                0x0000000020002b2c                __lock___tz_mutex
                0x0000000020002b30                __lock___sfp_recursive_mutex
                0x0000000020002b34                . = ALIGN (0x4)
 *fill*         0x0000000020002b31        0x3 
                0x0000000020002b34                _ebss = .
                0x0000000020002b34                _ezero = .

.heap           0x0000000020002b34      0x800 load address 0x000000000000e8d4
                0x0000000020002b34                . = ALIGN (0x4)
                0x000000002000b338                _end = .
                0x0000000020002b34                end = .
                0x0000000020002b34                _heap_start = .
                0x0000000020003334                . = (. + HEAP_SIZE)
 *fill*         0x0000000020002b34      0x800 
                0x0000000020003334                _heap_end = .

.stack          0x0000000020003334     0x8004 load address 0x000000000000f0d4
                0x0000000020003338                . = ALIGN (0x8)
 *fill*         0x0000000020003334        0x4 
                0x0000000020003338                _sstack = .
                0x000000002000b338                . = (. + STACK_SIZE)
 *fill*         0x0000000020003338     0x8000 
                0x000000002000b338                . = ALIGN (0x8)
                0x000000002000b338                _estack = .
                0x000000002000b338                . = ALIGN (0x4)
                0x000000002000b338                _end = .
OUTPUT(.build/massdrop_ctrl_greyasteroid.elf elf32-littlearm)

.ARM.attributes
                0x0000000000000000       0x30
 .ARM.attributes
                0x0000000000000000       0x1e /usr/local/Cellar/arm-gcc-bin@8/8-2019-q3-update/bin/../lib/gcc/arm-none-eabi/8.3.1/thumb/v7e-m+fp/hard/crti.o
 .ARM.attributes
                0x000000000000001e       0x34 /usr/local/Cellar/arm-gcc-bin@8/8-2019-q3-update/bin/../lib/gcc/arm-none-eabi/8.3.1/thumb/v7e-m+fp/hard/crtbegin.o
 .ARM.attributes
                0x0000000000000052       0x34 .build/obj_massdrop_ctrl_greyasteroid/matrix.o
 .ARM.attributes
                0x0000000000000086       0x34 .build/obj_massdrop_ctrl_greyasteroid/config_led.o
 .ARM.attributes
                0x00000000000000ba       0x39 .build/obj_massdrop_ctrl_greyasteroid/keyboards/massdrop/ctrl/keymaps/greyasteroid/keymap.o
 .ARM.attributes
                0x00000000000000f3       0x34 .build/obj_massdrop_ctrl_greyasteroid/quantum/quantum.o
 .ARM.attributes
                0x0000000000000127       0x34 .build/obj_massdrop_ctrl_greyasteroid/quantum/keymap_common.o
 .ARM.attributes
                0x000000000000015b       0x34 .build/obj_massdrop_ctrl_greyasteroid/quantum/keycode_config.o
 .ARM.attributes
                0x000000000000018f       0x34 .build/obj_massdrop_ctrl_greyasteroid/common/arm_atsam/eeprom.o
 .ARM.attributes
                0x00000000000001c3       0x34 .build/obj_massdrop_ctrl_greyasteroid/quantum/color.o
 .ARM.attributes
                0x00000000000001f7       0x34 .build/obj_massdrop_ctrl_greyasteroid/quantum/rgb_matrix.o
 .ARM.attributes
                0x000000000000022b       0x34 .build/obj_massdrop_ctrl_greyasteroid/quantum/process_keycode/process_rgb.o
 .ARM.attributes
                0x000000000000025f       0x39 .build/obj_massdrop_ctrl_greyasteroid/quantum/led_tables.o
 .ARM.attributes
                0x0000000000000298       0x34 .build/obj_massdrop_ctrl_greyasteroid/quantum/process_keycode/process_space_cadet.o
 .ARM.attributes
                0x00000000000002cc       0x34 .build/obj_massdrop_ctrl_greyasteroid/quantum/process_keycode/process_magic.o
 .ARM.attributes
                0x0000000000000300       0x34 .build/obj_massdrop_ctrl_greyasteroid/quantum/process_keycode/process_grave_esc.o
 .ARM.attributes
                0x0000000000000334       0x34 .build/obj_massdrop_ctrl_greyasteroid/common/host.o
 .ARM.attributes
                0x0000000000000368       0x34 .build/obj_massdrop_ctrl_greyasteroid/common/keyboard.o
 .ARM.attributes
                0x000000000000039c       0x34 .build/obj_massdrop_ctrl_greyasteroid/common/action.o
 .ARM.attributes
                0x00000000000003d0       0x34 .build/obj_massdrop_ctrl_greyasteroid/common/action_tapping.o
 .ARM.attributes
                0x0000000000000404       0x34 .build/obj_massdrop_ctrl_greyasteroid/common/action_macro.o
 .ARM.attributes
                0x0000000000000438       0x34 .build/obj_massdrop_ctrl_greyasteroid/common/action_layer.o
 .ARM.attributes
                0x000000000000046c       0x34 .build/obj_massdrop_ctrl_greyasteroid/common/action_util.o
 .ARM.attributes
                0x00000000000004a0       0x39 .build/obj_massdrop_ctrl_greyasteroid/common/debug.o
 .ARM.attributes
                0x00000000000004d9       0x34 .build/obj_massdrop_ctrl_greyasteroid/common/eeconfig.o
 .ARM.attributes
                0x000000000000050d       0x34 .build/obj_massdrop_ctrl_greyasteroid/common/report.o
 .ARM.attributes
                0x0000000000000541       0x34 .build/obj_massdrop_ctrl_greyasteroid/common/arm_atsam/suspend.o
 .ARM.attributes
                0x0000000000000575       0x34 .build/obj_massdrop_ctrl_greyasteroid/common/arm_atsam/timer.o
 .ARM.attributes
                0x00000000000005a9       0x34 .build/obj_massdrop_ctrl_greyasteroid/common/arm_atsam/bootloader.o
 .ARM.attributes
                0x00000000000005dd       0x34 .build/obj_massdrop_ctrl_greyasteroid/common/magic.o
 .ARM.attributes
                0x0000000000000611       0x34 .build/obj_massdrop_ctrl_greyasteroid/protocol/arm_atsam/adc.o
 .ARM.attributes
                0x0000000000000645       0x34 .build/obj_massdrop_ctrl_greyasteroid/protocol/arm_atsam/clks.o
 .ARM.attributes
                0x0000000000000679       0x34 .build/obj_massdrop_ctrl_greyasteroid/protocol/arm_atsam/d51_util.o
 .ARM.attributes
                0x00000000000006ad       0x34 .build/obj_massdrop_ctrl_greyasteroid/protocol/arm_atsam/i2c_master.o
 .ARM.attributes
                0x00000000000006e1       0x34 .build/obj_massdrop_ctrl_greyasteroid/protocol/arm_atsam/led_matrix.o
 .ARM.attributes
                0x0000000000000715       0x34 .build/obj_massdrop_ctrl_greyasteroid/protocol/arm_atsam/main_arm_atsam.o
 .ARM.attributes
                0x0000000000000749       0x34 .build/obj_massdrop_ctrl_greyasteroid/protocol/arm_atsam/spi.o
 .ARM.attributes
                0x000000000000077d       0x34 .build/obj_massdrop_ctrl_greyasteroid/protocol/arm_atsam/startup.o
 .ARM.attributes
                0x00000000000007b1       0x34 .build/obj_massdrop_ctrl_greyasteroid/protocol/arm_atsam/usb/main_usb.o
 .ARM.attributes
                0x00000000000007e5       0x34 .build/obj_massdrop_ctrl_greyasteroid/protocol/arm_atsam/usb/udc.o
 .ARM.attributes
                0x0000000000000819       0x34 .build/obj_massdrop_ctrl_greyasteroid/protocol/arm_atsam/usb/udi_cdc.o
 .ARM.attributes
                0x000000000000084d       0x34 .build/obj_massdrop_ctrl_greyasteroid/protocol/arm_atsam/usb/udi_hid.o
 .ARM.attributes
                0x0000000000000881       0x34 .build/obj_massdrop_ctrl_greyasteroid/protocol/arm_atsam/usb/udi_hid_kbd.o
 .ARM.attributes
                0x00000000000008b5       0x39 .build/obj_massdrop_ctrl_greyasteroid/protocol/arm_atsam/usb/udi_hid_kbd_desc.o
 .ARM.attributes
                0x00000000000008ee       0x34 .build/obj_massdrop_ctrl_greyasteroid/protocol/arm_atsam/usb/ui.o
 .ARM.attributes
                0x0000000000000922       0x34 .build/obj_massdrop_ctrl_greyasteroid/protocol/arm_atsam/usb/usb2422.o
 .ARM.attributes
                0x0000000000000956       0x34 .build/obj_massdrop_ctrl_greyasteroid/protocol/arm_atsam/usb/usb.o
 .ARM.attributes
                0x000000000000098a       0x34 .build/obj_massdrop_ctrl_greyasteroid/protocol/arm_atsam/usb/usb_device_udd.o
 .ARM.attributes
                0x00000000000009be       0x1e /usr/local/Cellar/arm-gcc-bin@8/8-2019-q3-update/bin/../lib/gcc/arm-none-eabi/8.3.1/thumb/v7e-m+fp/hard/libgcc.a(_arm_addsubdf3.o)
 .ARM.attributes
                0x00000000000009dc       0x1e /usr/local/Cellar/arm-gcc-bin@8/8-2019-q3-update/bin/../lib/gcc/arm-none-eabi/8.3.1/thumb/v7e-m+fp/hard/libgcc.a(_arm_muldivdf3.o)
 .ARM.attributes
                0x00000000000009fa       0x1e /usr/local/Cellar/arm-gcc-bin@8/8-2019-q3-update/bin/../lib/gcc/arm-none-eabi/8.3.1/thumb/v7e-m+fp/hard/libgcc.a(_arm_fixunsdfsi.o)
 .ARM.attributes
                0x0000000000000a18       0x1e /usr/local/Cellar/arm-gcc-bin@8/8-2019-q3-update/bin/../lib/gcc/arm-none-eabi/8.3.1/thumb/v7e-m+fp/hard/libgcc.a(_aeabi_uldivmod.o)
 .ARM.attributes
                0x0000000000000a36       0x34 /usr/local/Cellar/arm-gcc-bin@8/8-2019-q3-update/bin/../lib/gcc/arm-none-eabi/8.3.1/thumb/v7e-m+fp/hard/libgcc.a(_udivmoddi4.o)
 .ARM.attributes
                0x0000000000000a6a       0x1e /usr/local/Cellar/arm-gcc-bin@8/8-2019-q3-update/bin/../lib/gcc/arm-none-eabi/8.3.1/thumb/v7e-m+fp/hard/libgcc.a(_dvmd_tls.o)
 .ARM.attributes
                0x0000000000000a88       0x32 /usr/local/Cellar/arm-gcc-bin@8/8-2019-q3-update/bin/../lib/gcc/arm-none-eabi/8.3.1/../../../../arm-none-eabi/lib/thumb/v7e-m+fp/hard/libg.a(lib_a-impure.o)
 .ARM.attributes
                0x0000000000000aba       0x34 /usr/local/Cellar/arm-gcc-bin@8/8-2019-q3-update/bin/../lib/gcc/arm-none-eabi/8.3.1/../../../../arm-none-eabi/lib/thumb/v7e-m+fp/hard/libg.a(lib_a-init.o)
 .ARM.attributes
                0x0000000000000aee       0x1c /usr/local/Cellar/arm-gcc-bin@8/8-2019-q3-update/bin/../lib/gcc/arm-none-eabi/8.3.1/../../../../arm-none-eabi/lib/thumb/v7e-m+fp/hard/libg.a(lib_a-memcpy.o)
 .ARM.attributes
                0x0000000000000b0a       0x34 /usr/local/Cellar/arm-gcc-bin@8/8-2019-q3-update/bin/../lib/gcc/arm-none-eabi/8.3.1/../../../../arm-none-eabi/lib/thumb/v7e-m+fp/hard/libg.a(lib_a-memset.o)
 .ARM.attributes
                0x0000000000000b3e       0x34 /usr/local/Cellar/arm-gcc-bin@8/8-2019-q3-update/bin/../lib/gcc/arm-none-eabi/8.3.1/../../../../arm-none-eabi/lib/thumb/v7e-m+fp/hard/libg.a(lib_a-__call_atexit.o)
 .ARM.attributes
                0x0000000000000b72       0x34 /usr/local/Cellar/arm-gcc-bin@8/8-2019-q3-update/bin/../lib/gcc/arm-none-eabi/8.3.1/../../../../arm-none-eabi/lib/thumb/v7e-m+fp/hard/libg.a(lib_a-atexit.o)
 .ARM.attributes
                0x0000000000000ba6       0x34 /usr/local/Cellar/arm-gcc-bin@8/8-2019-q3-update/bin/../lib/gcc/arm-none-eabi/8.3.1/../../../../arm-none-eabi/lib/thumb/v7e-m+fp/hard/libg.a(lib_a-fini.o)
 .ARM.attributes
                0x0000000000000bda       0x34 /usr/local/Cellar/arm-gcc-bin@8/8-2019-q3-update/bin/../lib/gcc/arm-none-eabi/8.3.1/../../../../arm-none-eabi/lib/thumb/v7e-m+fp/hard/libg.a(lib_a-lock.o)
 .ARM.attributes
                0x0000000000000c0e       0x34 /usr/local/Cellar/arm-gcc-bin@8/8-2019-q3-update/bin/../lib/gcc/arm-none-eabi/8.3.1/../../../../arm-none-eabi/lib/thumb/v7e-m+fp/hard/libg.a(lib_a-__atexit.o)
 .ARM.attributes
                0x0000000000000c42       0x1e /usr/local/Cellar/arm-gcc-bin@8/8-2019-q3-update/bin/../lib/gcc/arm-none-eabi/8.3.1/thumb/v7e-m+fp/hard/crtn.o

.comment        0x0000000000000000       0x76
 .comment       0x0000000000000000       0x76 .build/obj_massdrop_ctrl_greyasteroid/matrix.o
                                         0x77 (size before relaxing)
 .comment       0x0000000000000076       0x77 .build/obj_massdrop_ctrl_greyasteroid/config_led.o
 .comment       0x0000000000000076       0x77 .build/obj_massdrop_ctrl_greyasteroid/keyboards/massdrop/ctrl/keymaps/greyasteroid/keymap.o
 .comment       0x0000000000000076       0x77 .build/obj_massdrop_ctrl_greyasteroid/quantum/quantum.o
 .comment       0x0000000000000076       0x77 .build/obj_massdrop_ctrl_greyasteroid/quantum/keymap_common.o
 .comment       0x0000000000000076       0x77 .build/obj_massdrop_ctrl_greyasteroid/quantum/keycode_config.o
 .comment       0x0000000000000076       0x77 .build/obj_massdrop_ctrl_greyasteroid/common/arm_atsam/eeprom.o
 .comment       0x0000000000000076       0x77 .build/obj_massdrop_ctrl_greyasteroid/quantum/color.o
 .comment       0x0000000000000076       0x77 .build/obj_massdrop_ctrl_greyasteroid/quantum/rgb_matrix.o
 .comment       0x0000000000000076       0x77 .build/obj_massdrop_ctrl_greyasteroid/quantum/process_keycode/process_rgb.o
 .comment       0x0000000000000076       0x77 .build/obj_massdrop_ctrl_greyasteroid/quantum/led_tables.o
 .comment       0x0000000000000076       0x77 .build/obj_massdrop_ctrl_greyasteroid/quantum/process_keycode/process_space_cadet.o
 .comment       0x0000000000000076       0x77 .build/obj_massdrop_ctrl_greyasteroid/quantum/process_keycode/process_magic.o
 .comment       0x0000000000000076       0x77 .build/obj_massdrop_ctrl_greyasteroid/quantum/process_keycode/process_grave_esc.o
 .comment       0x0000000000000076       0x77 .build/obj_massdrop_ctrl_greyasteroid/common/host.o
 .comment       0x0000000000000076       0x77 .build/obj_massdrop_ctrl_greyasteroid/common/keyboard.o
 .comment       0x0000000000000076       0x77 .build/obj_massdrop_ctrl_greyasteroid/common/action.o
 .comment       0x0000000000000076       0x77 .build/obj_massdrop_ctrl_greyasteroid/common/action_tapping.o
 .comment       0x0000000000000076       0x77 .build/obj_massdrop_ctrl_greyasteroid/common/action_macro.o
 .comment       0x0000000000000076       0x77 .build/obj_massdrop_ctrl_greyasteroid/common/action_layer.o
 .comment       0x0000000000000076       0x77 .build/obj_massdrop_ctrl_greyasteroid/common/action_util.o
 .comment       0x0000000000000076       0x77 .build/obj_massdrop_ctrl_greyasteroid/common/debug.o
 .comment       0x0000000000000076       0x77 .build/obj_massdrop_ctrl_greyasteroid/common/eeconfig.o
 .comment       0x0000000000000076       0x77 .build/obj_massdrop_ctrl_greyasteroid/common/report.o
 .comment       0x0000000000000076       0x77 .build/obj_massdrop_ctrl_greyasteroid/common/arm_atsam/suspend.o
 .comment       0x0000000000000076       0x77 .build/obj_massdrop_ctrl_greyasteroid/common/arm_atsam/timer.o
 .comment       0x0000000000000076       0x77 .build/obj_massdrop_ctrl_greyasteroid/common/arm_atsam/bootloader.o
 .comment       0x0000000000000076       0x77 .build/obj_massdrop_ctrl_greyasteroid/common/magic.o
 .comment       0x0000000000000076       0x77 .build/obj_massdrop_ctrl_greyasteroid/protocol/arm_atsam/adc.o
 .comment       0x0000000000000076       0x77 .build/obj_massdrop_ctrl_greyasteroid/protocol/arm_atsam/clks.o
 .comment       0x0000000000000076       0x77 .build/obj_massdrop_ctrl_greyasteroid/protocol/arm_atsam/d51_util.o
 .comment       0x0000000000000076       0x77 .build/obj_massdrop_ctrl_greyasteroid/protocol/arm_atsam/i2c_master.o
 .comment       0x0000000000000076       0x77 .build/obj_massdrop_ctrl_greyasteroid/protocol/arm_atsam/led_matrix.o
 .comment       0x0000000000000076       0x77 .build/obj_massdrop_ctrl_greyasteroid/protocol/arm_atsam/main_arm_atsam.o
 .comment       0x0000000000000076       0x77 .build/obj_massdrop_ctrl_greyasteroid/protocol/arm_atsam/spi.o
 .comment       0x0000000000000076       0x77 .build/obj_massdrop_ctrl_greyasteroid/protocol/arm_atsam/startup.o
 .comment       0x0000000000000076       0x77 .build/obj_massdrop_ctrl_greyasteroid/protocol/arm_atsam/usb/main_usb.o
 .comment       0x0000000000000076       0x77 .build/obj_massdrop_ctrl_greyasteroid/protocol/arm_atsam/usb/udc.o
 .comment       0x0000000000000076       0x77 .build/obj_massdrop_ctrl_greyasteroid/protocol/arm_atsam/usb/udi_cdc.o
 .comment       0x0000000000000076       0x77 .build/obj_massdrop_ctrl_greyasteroid/protocol/arm_atsam/usb/udi_hid.o
 .comment       0x0000000000000076       0x77 .build/obj_massdrop_ctrl_greyasteroid/protocol/arm_atsam/usb/udi_hid_kbd.o
 .comment       0x0000000000000076       0x77 .build/obj_massdrop_ctrl_greyasteroid/protocol/arm_atsam/usb/udi_hid_kbd_desc.o
 .comment       0x0000000000000076       0x77 .build/obj_massdrop_ctrl_greyasteroid/protocol/arm_atsam/usb/ui.o
 .comment       0x0000000000000076       0x77 .build/obj_massdrop_ctrl_greyasteroid/protocol/arm_atsam/usb/usb2422.o
 .comment       0x0000000000000076       0x77 .build/obj_massdrop_ctrl_greyasteroid/protocol/arm_atsam/usb/usb.o
 .comment       0x0000000000000076       0x77 .build/obj_massdrop_ctrl_greyasteroid/protocol/arm_atsam/usb/usb_device_udd.o

.debug_info     0x0000000000000000    0x61191
 .debug_info    0x0000000000000000     0x1ecf .build/obj_massdrop_ctrl_greyasteroid/matrix.o
 .debug_info    0x0000000000001ecf     0x14f4 .build/obj_massdrop_ctrl_greyasteroid/config_led.o
 .debug_info    0x00000000000033c3     0x23ca .build/obj_massdrop_ctrl_greyasteroid/keyboards/massdrop/ctrl/keymaps/greyasteroid/keymap.o
 .debug_info    0x000000000000578d     0x2e8b .build/obj_massdrop_ctrl_greyasteroid/quantum/quantum.o
 .debug_info    0x0000000000008618     0x27a7 .build/obj_massdrop_ctrl_greyasteroid/quantum/keymap_common.o
 .debug_info    0x000000000000adbf      0x63e .build/obj_massdrop_ctrl_greyasteroid/quantum/keycode_config.o
 .debug_info    0x000000000000b3fd     0x1164 .build/obj_massdrop_ctrl_greyasteroid/common/arm_atsam/eeprom.o
 .debug_info    0x000000000000c561      0x202 .build/obj_massdrop_ctrl_greyasteroid/quantum/color.o
 .debug_info    0x000000000000c763     0x2dc6 .build/obj_massdrop_ctrl_greyasteroid/quantum/rgb_matrix.o
 .debug_info    0x000000000000f529     0x204f .build/obj_massdrop_ctrl_greyasteroid/quantum/process_keycode/process_rgb.o
 .debug_info    0x0000000000011578       0xaa .build/obj_massdrop_ctrl_greyasteroid/quantum/led_tables.o
 .debug_info    0x0000000000011622     0x2030 .build/obj_massdrop_ctrl_greyasteroid/quantum/process_keycode/process_space_cadet.o
 .debug_info    0x0000000000013652     0x1b48 .build/obj_massdrop_ctrl_greyasteroid/quantum/process_keycode/process_magic.o
 .debug_info    0x000000000001519a     0x1fa8 .build/obj_massdrop_ctrl_greyasteroid/quantum/process_keycode/process_grave_esc.o
 .debug_info    0x0000000000017142      0x619 .build/obj_massdrop_ctrl_greyasteroid/common/host.o
 .debug_info    0x000000000001775b      0x6b5 .build/obj_massdrop_ctrl_greyasteroid/common/keyboard.o
 .debug_info    0x0000000000017e10     0x1d55 .build/obj_massdrop_ctrl_greyasteroid/common/action.o
 .debug_info    0x0000000000019b65      0xf31 .build/obj_massdrop_ctrl_greyasteroid/common/action_tapping.o
 .debug_info    0x000000000001aa96      0x891 .build/obj_massdrop_ctrl_greyasteroid/common/action_macro.o
 .debug_info    0x000000000001b327      0xb73 .build/obj_massdrop_ctrl_greyasteroid/common/action_layer.o
 .debug_info    0x000000000001be9a      0xab0 .build/obj_massdrop_ctrl_greyasteroid/common/action_util.o
 .debug_info    0x000000000001c94a      0x11e .build/obj_massdrop_ctrl_greyasteroid/common/debug.o
 .debug_info    0x000000000001ca68     0x104f .build/obj_massdrop_ctrl_greyasteroid/common/eeconfig.o
 .debug_info    0x000000000001dab7     0x134c .build/obj_massdrop_ctrl_greyasteroid/common/report.o
 .debug_info    0x000000000001ee03     0x1595 .build/obj_massdrop_ctrl_greyasteroid/common/arm_atsam/suspend.o
 .debug_info    0x0000000000020398      0x36b .build/obj_massdrop_ctrl_greyasteroid/common/arm_atsam/timer.o
 .debug_info    0x0000000000020703      0x742 .build/obj_massdrop_ctrl_greyasteroid/common/arm_atsam/bootloader.o
 .debug_info    0x0000000000020e45      0x36d .build/obj_massdrop_ctrl_greyasteroid/common/magic.o
 .debug_info    0x00000000000211b2     0x402e .build/obj_massdrop_ctrl_greyasteroid/protocol/arm_atsam/adc.o
 .debug_info    0x00000000000251e0     0x7f58 .build/obj_massdrop_ctrl_greyasteroid/protocol/arm_atsam/clks.o
 .debug_info    0x000000000002d138     0x2112 .build/obj_massdrop_ctrl_greyasteroid/protocol/arm_atsam/d51_util.o
 .debug_info    0x000000000002f24a     0x6e1c .build/obj_massdrop_ctrl_greyasteroid/protocol/arm_atsam/i2c_master.o
 .debug_info    0x0000000000036066     0x5cce .build/obj_massdrop_ctrl_greyasteroid/protocol/arm_atsam/led_matrix.o
 .debug_info    0x000000000003bd34     0x4d98 .build/obj_massdrop_ctrl_greyasteroid/protocol/arm_atsam/main_arm_atsam.o
 .debug_info    0x0000000000040acc     0x4774 .build/obj_massdrop_ctrl_greyasteroid/protocol/arm_atsam/spi.o
 .debug_info    0x0000000000045240      0xd2d .build/obj_massdrop_ctrl_greyasteroid/protocol/arm_atsam/startup.o
 .debug_info    0x0000000000045f6d     0x1043 .build/obj_massdrop_ctrl_greyasteroid/protocol/arm_atsam/usb/main_usb.o
 .debug_info    0x0000000000046fb0     0x1c5c .build/obj_massdrop_ctrl_greyasteroid/protocol/arm_atsam/usb/udc.o
 .debug_info    0x0000000000048c0c     0x10c9 .build/obj_massdrop_ctrl_greyasteroid/protocol/arm_atsam/usb/udi_cdc.o
 .debug_info    0x0000000000049cd5     0x1054 .build/obj_massdrop_ctrl_greyasteroid/protocol/arm_atsam/usb/udi_hid.o
 .debug_info    0x000000000004ad29     0x1672 .build/obj_massdrop_ctrl_greyasteroid/protocol/arm_atsam/usb/udi_hid_kbd.o
 .debug_info    0x000000000004c39b     0x11af .build/obj_massdrop_ctrl_greyasteroid/protocol/arm_atsam/usb/udi_hid_kbd_desc.o
 .debug_info    0x000000000004d54a      0x16c .build/obj_massdrop_ctrl_greyasteroid/protocol/arm_atsam/usb/ui.o
 .debug_info    0x000000000004d6b6     0x903c .build/obj_massdrop_ctrl_greyasteroid/protocol/arm_atsam/usb/usb2422.o
 .debug_info    0x00000000000566f2     0x5f6f .build/obj_massdrop_ctrl_greyasteroid/protocol/arm_atsam/usb/usb.o
 .debug_info    0x000000000005c661     0x4b30 .build/obj_massdrop_ctrl_greyasteroid/protocol/arm_atsam/usb/usb_device_udd.o

.debug_abbrev   0x0000000000000000     0x8f53
 .debug_abbrev  0x0000000000000000      0x3db .build/obj_massdrop_ctrl_greyasteroid/matrix.o
 .debug_abbrev  0x00000000000003db      0x2c8 .build/obj_massdrop_ctrl_greyasteroid/config_led.o
 .debug_abbrev  0x00000000000006a3      0x2c3 .build/obj_massdrop_ctrl_greyasteroid/keyboards/massdrop/ctrl/keymaps/greyasteroid/keymap.o
 .debug_abbrev  0x0000000000000966      0x496 .build/obj_massdrop_ctrl_greyasteroid/quantum/quantum.o
 .debug_abbrev  0x0000000000000dfc      0x390 .build/obj_massdrop_ctrl_greyasteroid/quantum/keymap_common.o
 .debug_abbrev  0x000000000000118c      0x117 .build/obj_massdrop_ctrl_greyasteroid/quantum/keycode_config.o
 .debug_abbrev  0x00000000000012a3      0x382 .build/obj_massdrop_ctrl_greyasteroid/common/arm_atsam/eeprom.o
 .debug_abbrev  0x0000000000001625       0xf7 .build/obj_massdrop_ctrl_greyasteroid/quantum/color.o
 .debug_abbrev  0x000000000000171c      0x6bf .build/obj_massdrop_ctrl_greyasteroid/quantum/rgb_matrix.o
 .debug_abbrev  0x0000000000001ddb      0x306 .build/obj_massdrop_ctrl_greyasteroid/quantum/process_keycode/process_rgb.o
 .debug_abbrev  0x00000000000020e1       0x6a .build/obj_massdrop_ctrl_greyasteroid/quantum/led_tables.o
 .debug_abbrev  0x000000000000214b      0x2d7 .build/obj_massdrop_ctrl_greyasteroid/quantum/process_keycode/process_space_cadet.o
 .debug_abbrev  0x0000000000002422      0x283 .build/obj_massdrop_ctrl_greyasteroid/quantum/process_keycode/process_magic.o
 .debug_abbrev  0x00000000000026a5      0x2d1 .build/obj_massdrop_ctrl_greyasteroid/quantum/process_keycode/process_grave_esc.o
 .debug_abbrev  0x0000000000002976      0x211 .build/obj_massdrop_ctrl_greyasteroid/common/host.o
 .debug_abbrev  0x0000000000002b87      0x283 .build/obj_massdrop_ctrl_greyasteroid/common/keyboard.o
 .debug_abbrev  0x0000000000002e0a      0x3cd .build/obj_massdrop_ctrl_greyasteroid/common/action.o
 .debug_abbrev  0x00000000000031d7      0x34f .build/obj_massdrop_ctrl_greyasteroid/common/action_tapping.o
 .debug_abbrev  0x0000000000003526      0x1a2 .build/obj_massdrop_ctrl_greyasteroid/common/action_macro.o
 .debug_abbrev  0x00000000000036c8      0x2d5 .build/obj_massdrop_ctrl_greyasteroid/common/action_layer.o
 .debug_abbrev  0x000000000000399d      0x32b .build/obj_massdrop_ctrl_greyasteroid/common/action_util.o
 .debug_abbrev  0x0000000000003cc8       0xa2 .build/obj_massdrop_ctrl_greyasteroid/common/debug.o
 .debug_abbrev  0x0000000000003d6a      0x261 .build/obj_massdrop_ctrl_greyasteroid/common/eeconfig.o
 .debug_abbrev  0x0000000000003fcb      0x32b .build/obj_massdrop_ctrl_greyasteroid/common/report.o
 .debug_abbrev  0x00000000000042f6      0x340 .build/obj_massdrop_ctrl_greyasteroid/common/arm_atsam/suspend.o
 .debug_abbrev  0x0000000000004636      0x1ae .build/obj_massdrop_ctrl_greyasteroid/common/arm_atsam/timer.o
 .debug_abbrev  0x00000000000047e4      0x1e5 .build/obj_massdrop_ctrl_greyasteroid/common/arm_atsam/bootloader.o
 .debug_abbrev  0x00000000000049c9      0x120 .build/obj_massdrop_ctrl_greyasteroid/common/magic.o
 .debug_abbrev  0x0000000000004ae9      0x34a .build/obj_massdrop_ctrl_greyasteroid/protocol/arm_atsam/adc.o
 .debug_abbrev  0x0000000000004e33      0x4db .build/obj_massdrop_ctrl_greyasteroid/protocol/arm_atsam/clks.o
 .debug_abbrev  0x000000000000530e      0x2cd .build/obj_massdrop_ctrl_greyasteroid/protocol/arm_atsam/d51_util.o
 .debug_abbrev  0x00000000000055db      0x555 .build/obj_massdrop_ctrl_greyasteroid/protocol/arm_atsam/i2c_master.o
 .debug_abbrev  0x0000000000005b30      0x4f8 .build/obj_massdrop_ctrl_greyasteroid/protocol/arm_atsam/led_matrix.o
 .debug_abbrev  0x0000000000006028      0x55a .build/obj_massdrop_ctrl_greyasteroid/protocol/arm_atsam/main_arm_atsam.o
 .debug_abbrev  0x0000000000006582      0x35c .build/obj_massdrop_ctrl_greyasteroid/protocol/arm_atsam/spi.o
 .debug_abbrev  0x00000000000068de      0x1ea .build/obj_massdrop_ctrl_greyasteroid/protocol/arm_atsam/startup.o
 .debug_abbrev  0x0000000000006ac8      0x274 .build/obj_massdrop_ctrl_greyasteroid/protocol/arm_atsam/usb/main_usb.o
 .debug_abbrev  0x0000000000006d3c      0x57a .build/obj_massdrop_ctrl_greyasteroid/protocol/arm_atsam/usb/udc.o
 .debug_abbrev  0x00000000000072b6      0x272 .build/obj_massdrop_ctrl_greyasteroid/protocol/arm_atsam/usb/udi_cdc.o
 .debug_abbrev  0x0000000000007528      0x2a5 .build/obj_massdrop_ctrl_greyasteroid/protocol/arm_atsam/usb/udi_hid.o
 .debug_abbrev  0x00000000000077cd      0x483 .build/obj_massdrop_ctrl_greyasteroid/protocol/arm_atsam/usb/udi_hid_kbd.o
 .debug_abbrev  0x0000000000007c50      0x237 .build/obj_massdrop_ctrl_greyasteroid/protocol/arm_atsam/usb/udi_hid_kbd_desc.o
 .debug_abbrev  0x0000000000007e87       0xc7 .build/obj_massdrop_ctrl_greyasteroid/protocol/arm_atsam/usb/ui.o
 .debug_abbrev  0x0000000000007f4e      0x494 .build/obj_massdrop_ctrl_greyasteroid/protocol/arm_atsam/usb/usb2422.o
 .debug_abbrev  0x00000000000083e2      0x518 .build/obj_massdrop_ctrl_greyasteroid/protocol/arm_atsam/usb/usb.o
 .debug_abbrev  0x00000000000088fa      0x659 .build/obj_massdrop_ctrl_greyasteroid/protocol/arm_atsam/usb/usb_device_udd.o

.debug_loc      0x0000000000000000     0x96c7
 .debug_loc     0x0000000000000000      0x178 .build/obj_massdrop_ctrl_greyasteroid/matrix.o
 .debug_loc     0x0000000000000178      0xad9 .build/obj_massdrop_ctrl_greyasteroid/quantum/quantum.o
 .debug_loc     0x0000000000000c51      0x592 .build/obj_massdrop_ctrl_greyasteroid/quantum/keymap_common.o
 .debug_loc     0x00000000000011e3      0x1c2 .build/obj_massdrop_ctrl_greyasteroid/quantum/keycode_config.o
 .debug_loc     0x00000000000013a5      0x843 .build/obj_massdrop_ctrl_greyasteroid/common/arm_atsam/eeprom.o
 .debug_loc     0x0000000000001be8      0x48d .build/obj_massdrop_ctrl_greyasteroid/quantum/color.o
 .debug_loc     0x0000000000002075     0x152d .build/obj_massdrop_ctrl_greyasteroid/quantum/rgb_matrix.o
 .debug_loc     0x00000000000035a2      0x159 .build/obj_massdrop_ctrl_greyasteroid/quantum/process_keycode/process_rgb.o
 .debug_loc     0x00000000000036fb      0x176 .build/obj_massdrop_ctrl_greyasteroid/quantum/process_keycode/process_space_cadet.o
 .debug_loc     0x0000000000003871       0x57 .build/obj_massdrop_ctrl_greyasteroid/quantum/process_keycode/process_magic.o
 .debug_loc     0x00000000000038c8       0xbf .build/obj_massdrop_ctrl_greyasteroid/quantum/process_keycode/process_grave_esc.o
 .debug_loc     0x0000000000003987       0xc8 .build/obj_massdrop_ctrl_greyasteroid/common/host.o
 .debug_loc     0x0000000000003a4f      0x143 .build/obj_massdrop_ctrl_greyasteroid/common/keyboard.o
 .debug_loc     0x0000000000003b92      0x82b .build/obj_massdrop_ctrl_greyasteroid/common/action.o
 .debug_loc     0x00000000000043bd      0x63c .build/obj_massdrop_ctrl_greyasteroid/common/action_tapping.o
 .debug_loc     0x00000000000049f9      0x203 .build/obj_massdrop_ctrl_greyasteroid/common/action_macro.o
 .debug_loc     0x0000000000004bfc      0x4d0 .build/obj_massdrop_ctrl_greyasteroid/common/action_layer.o
 .debug_loc     0x00000000000050cc      0x276 .build/obj_massdrop_ctrl_greyasteroid/common/action_util.o
 .debug_loc     0x0000000000005342      0x174 .build/obj_massdrop_ctrl_greyasteroid/common/eeconfig.o
 .debug_loc     0x00000000000054b6      0x542 .build/obj_massdrop_ctrl_greyasteroid/common/report.o
 .debug_loc     0x00000000000059f8       0x3f .build/obj_massdrop_ctrl_greyasteroid/common/arm_atsam/suspend.o
 .debug_loc     0x0000000000005a37       0x68 .build/obj_massdrop_ctrl_greyasteroid/common/arm_atsam/timer.o
 .debug_loc     0x0000000000005a9f       0x9f .build/obj_massdrop_ctrl_greyasteroid/common/arm_atsam/bootloader.o
 .debug_loc     0x0000000000005b3e       0x23 .build/obj_massdrop_ctrl_greyasteroid/common/magic.o
 .debug_loc     0x0000000000005b61       0x25 .build/obj_massdrop_ctrl_greyasteroid/protocol/arm_atsam/adc.o
 .debug_loc     0x0000000000005b86      0x1f6 .build/obj_massdrop_ctrl_greyasteroid/protocol/arm_atsam/clks.o
 .debug_loc     0x0000000000005d7c      0x316 .build/obj_massdrop_ctrl_greyasteroid/protocol/arm_atsam/d51_util.o
 .debug_loc     0x0000000000006092      0x75e .build/obj_massdrop_ctrl_greyasteroid/protocol/arm_atsam/i2c_master.o
 .debug_loc     0x00000000000067f0      0x237 .build/obj_massdrop_ctrl_greyasteroid/protocol/arm_atsam/led_matrix.o
 .debug_loc     0x0000000000006a27      0x1c6 .build/obj_massdrop_ctrl_greyasteroid/protocol/arm_atsam/main_arm_atsam.o
 .debug_loc     0x0000000000006bed       0xa5 .build/obj_massdrop_ctrl_greyasteroid/protocol/arm_atsam/startup.o
 .debug_loc     0x0000000000006c92      0x4b8 .build/obj_massdrop_ctrl_greyasteroid/protocol/arm_atsam/usb/udc.o
 .debug_loc     0x000000000000714a       0x25 .build/obj_massdrop_ctrl_greyasteroid/protocol/arm_atsam/usb/udi_cdc.o
 .debug_loc     0x000000000000716f      0x24e .build/obj_massdrop_ctrl_greyasteroid/protocol/arm_atsam/usb/udi_hid.o
 .debug_loc     0x00000000000073bd      0x19b .build/obj_massdrop_ctrl_greyasteroid/protocol/arm_atsam/usb/udi_hid_kbd.o
 .debug_loc     0x0000000000007558      0x295 .build/obj_massdrop_ctrl_greyasteroid/protocol/arm_atsam/usb/usb2422.o
 .debug_loc     0x00000000000077ed      0xe44 .build/obj_massdrop_ctrl_greyasteroid/protocol/arm_atsam/usb/usb.o
 .debug_loc     0x0000000000008631     0x1096 .build/obj_massdrop_ctrl_greyasteroid/protocol/arm_atsam/usb/usb_device_udd.o

.debug_aranges  0x0000000000000000     0x1368
 .debug_aranges
                0x0000000000000000       0x50 .build/obj_massdrop_ctrl_greyasteroid/matrix.o
 .debug_aranges
                0x0000000000000050       0x20 .build/obj_massdrop_ctrl_greyasteroid/config_led.o
 .debug_aranges
                0x0000000000000070       0x18 .build/obj_massdrop_ctrl_greyasteroid/keyboards/massdrop/ctrl/keymaps/greyasteroid/keymap.o
 .debug_aranges
                0x0000000000000088      0x130 .build/obj_massdrop_ctrl_greyasteroid/quantum/quantum.o
 .debug_aranges
                0x00000000000001b8       0x40 .build/obj_massdrop_ctrl_greyasteroid/quantum/keymap_common.o
 .debug_aranges
                0x00000000000001f8       0x28 .build/obj_massdrop_ctrl_greyasteroid/quantum/keycode_config.o
 .debug_aranges
                0x0000000000000220       0x60 .build/obj_massdrop_ctrl_greyasteroid/common/arm_atsam/eeprom.o
 .debug_aranges
                0x0000000000000280       0x20 .build/obj_massdrop_ctrl_greyasteroid/quantum/color.o
 .debug_aranges
                0x00000000000002a0      0x1c8 .build/obj_massdrop_ctrl_greyasteroid/quantum/rgb_matrix.o
 .debug_aranges
                0x0000000000000468       0x30 .build/obj_massdrop_ctrl_greyasteroid/quantum/process_keycode/process_rgb.o
 .debug_aranges
                0x0000000000000498       0x18 .build/obj_massdrop_ctrl_greyasteroid/quantum/led_tables.o
 .debug_aranges
                0x00000000000004b0       0x28 .build/obj_massdrop_ctrl_greyasteroid/quantum/process_keycode/process_space_cadet.o
 .debug_aranges
                0x00000000000004d8       0x20 .build/obj_massdrop_ctrl_greyasteroid/quantum/process_keycode/process_magic.o
 .debug_aranges
                0x00000000000004f8       0x20 .build/obj_massdrop_ctrl_greyasteroid/quantum/process_keycode/process_grave_esc.o
 .debug_aranges
                0x0000000000000518       0x68 .build/obj_massdrop_ctrl_greyasteroid/common/host.o
 .debug_aranges
                0x0000000000000580       0x68 .build/obj_massdrop_ctrl_greyasteroid/common/keyboard.o
 .debug_aranges
                0x00000000000005e8       0xd0 .build/obj_massdrop_ctrl_greyasteroid/common/action.o
 .debug_aranges
                0x00000000000006b8       0x48 .build/obj_massdrop_ctrl_greyasteroid/common/action_tapping.o
 .debug_aranges
                0x0000000000000700       0x20 .build/obj_massdrop_ctrl_greyasteroid/common/action_macro.o
 .debug_aranges
                0x0000000000000720       0xe0 .build/obj_massdrop_ctrl_greyasteroid/common/action_layer.o
 .debug_aranges
                0x0000000000000800      0x140 .build/obj_massdrop_ctrl_greyasteroid/common/action_util.o
 .debug_aranges
                0x0000000000000940       0x18 .build/obj_massdrop_ctrl_greyasteroid/common/debug.o
 .debug_aranges
                0x0000000000000958       0xe8 .build/obj_massdrop_ctrl_greyasteroid/common/eeconfig.o
 .debug_aranges
                0x0000000000000a40       0x68 .build/obj_massdrop_ctrl_greyasteroid/common/report.o
 .debug_aranges
                0x0000000000000aa8       0x50 .build/obj_massdrop_ctrl_greyasteroid/common/arm_atsam/suspend.o
 .debug_aranges
                0x0000000000000af8       0x58 .build/obj_massdrop_ctrl_greyasteroid/common/arm_atsam/timer.o
 .debug_aranges
                0x0000000000000b50       0x20 .build/obj_massdrop_ctrl_greyasteroid/common/arm_atsam/bootloader.o
 .debug_aranges
                0x0000000000000b70       0x20 .build/obj_massdrop_ctrl_greyasteroid/common/magic.o
 .debug_aranges
                0x0000000000000b90       0x30 .build/obj_massdrop_ctrl_greyasteroid/protocol/arm_atsam/adc.o
 .debug_aranges
                0x0000000000000bc0       0x80 .build/obj_massdrop_ctrl_greyasteroid/protocol/arm_atsam/clks.o
 .debug_aranges
                0x0000000000000c40       0x40 .build/obj_massdrop_ctrl_greyasteroid/protocol/arm_atsam/d51_util.o
 .debug_aranges
                0x0000000000000c80      0x130 .build/obj_massdrop_ctrl_greyasteroid/protocol/arm_atsam/i2c_master.o
 .debug_aranges
                0x0000000000000db0       0x68 .build/obj_massdrop_ctrl_greyasteroid/protocol/arm_atsam/led_matrix.o
 .debug_aranges
                0x0000000000000e18       0x70 .build/obj_massdrop_ctrl_greyasteroid/protocol/arm_atsam/main_arm_atsam.o
 .debug_aranges
                0x0000000000000e88       0x28 .build/obj_massdrop_ctrl_greyasteroid/protocol/arm_atsam/spi.o
 .debug_aranges
                0x0000000000000eb0       0x28 .build/obj_massdrop_ctrl_greyasteroid/protocol/arm_atsam/startup.o
 .debug_aranges
                0x0000000000000ed8       0x70 .build/obj_massdrop_ctrl_greyasteroid/protocol/arm_atsam/usb/main_usb.o
 .debug_aranges
                0x0000000000000f48       0x70 .build/obj_massdrop_ctrl_greyasteroid/protocol/arm_atsam/usb/udc.o
 .debug_aranges
                0x0000000000000fb8       0x40 .build/obj_massdrop_ctrl_greyasteroid/protocol/arm_atsam/usb/udi_cdc.o
 .debug_aranges
                0x0000000000000ff8       0x20 .build/obj_massdrop_ctrl_greyasteroid/protocol/arm_atsam/usb/udi_hid.o
 .debug_aranges
                0x0000000000001018       0xb8 .build/obj_massdrop_ctrl_greyasteroid/protocol/arm_atsam/usb/udi_hid_kbd.o
 .debug_aranges
                0x00000000000010d0       0x18 .build/obj_massdrop_ctrl_greyasteroid/protocol/arm_atsam/usb/udi_hid_kbd_desc.o
 .debug_aranges
                0x00000000000010e8       0x30 .build/obj_massdrop_ctrl_greyasteroid/protocol/arm_atsam/usb/ui.o
 .debug_aranges
                0x0000000000001118       0x60 .build/obj_massdrop_ctrl_greyasteroid/protocol/arm_atsam/usb/usb2422.o
 .debug_aranges
                0x0000000000001178       0xe0 .build/obj_massdrop_ctrl_greyasteroid/protocol/arm_atsam/usb/usb.o
 .debug_aranges
                0x0000000000001258      0x110 .build/obj_massdrop_ctrl_greyasteroid/protocol/arm_atsam/usb/usb_device_udd.o

.debug_ranges   0x0000000000000000     0x1ac8
 .debug_ranges  0x0000000000000000       0x40 .build/obj_massdrop_ctrl_greyasteroid/matrix.o
 .debug_ranges  0x0000000000000040       0x10 .build/obj_massdrop_ctrl_greyasteroid/config_led.o
 .debug_ranges  0x0000000000000050      0x190 .build/obj_massdrop_ctrl_greyasteroid/quantum/quantum.o
 .debug_ranges  0x00000000000001e0       0x30 .build/obj_massdrop_ctrl_greyasteroid/quantum/keymap_common.o
 .debug_ranges  0x0000000000000210       0x18 .build/obj_massdrop_ctrl_greyasteroid/quantum/keycode_config.o
 .debug_ranges  0x0000000000000228       0x68 .build/obj_massdrop_ctrl_greyasteroid/common/arm_atsam/eeprom.o
 .debug_ranges  0x0000000000000290       0x10 .build/obj_massdrop_ctrl_greyasteroid/quantum/color.o
 .debug_ranges  0x00000000000002a0      0x620 .build/obj_massdrop_ctrl_greyasteroid/quantum/rgb_matrix.o
 .debug_ranges  0x00000000000008c0       0x38 .build/obj_massdrop_ctrl_greyasteroid/quantum/process_keycode/process_rgb.o
 .debug_ranges  0x00000000000008f8       0x18 .build/obj_massdrop_ctrl_greyasteroid/quantum/process_keycode/process_space_cadet.o
 .debug_ranges  0x0000000000000910       0x10 .build/obj_massdrop_ctrl_greyasteroid/quantum/process_keycode/process_magic.o
 .debug_ranges  0x0000000000000920       0x28 .build/obj_massdrop_ctrl_greyasteroid/quantum/process_keycode/process_grave_esc.o
 .debug_ranges  0x0000000000000948       0x58 .build/obj_massdrop_ctrl_greyasteroid/common/host.o
 .debug_ranges  0x00000000000009a0       0xe8 .build/obj_massdrop_ctrl_greyasteroid/common/keyboard.o
 .debug_ranges  0x0000000000000a88      0x130 .build/obj_massdrop_ctrl_greyasteroid/common/action.o
 .debug_ranges  0x0000000000000bb8       0xf8 .build/obj_massdrop_ctrl_greyasteroid/common/action_tapping.o
 .debug_ranges  0x0000000000000cb0       0x28 .build/obj_massdrop_ctrl_greyasteroid/common/action_macro.o
 .debug_ranges  0x0000000000000cd8      0x100 .build/obj_massdrop_ctrl_greyasteroid/common/action_layer.o
 .debug_ranges  0x0000000000000dd8      0x130 .build/obj_massdrop_ctrl_greyasteroid/common/action_util.o
 .debug_ranges  0x0000000000000f08       0xd8 .build/obj_massdrop_ctrl_greyasteroid/common/eeconfig.o
 .debug_ranges  0x0000000000000fe0       0xa0 .build/obj_massdrop_ctrl_greyasteroid/common/report.o
 .debug_ranges  0x0000000000001080       0x60 .build/obj_massdrop_ctrl_greyasteroid/common/arm_atsam/suspend.o
 .debug_ranges  0x00000000000010e0       0x48 .build/obj_massdrop_ctrl_greyasteroid/common/arm_atsam/timer.o
 .debug_ranges  0x0000000000001128       0x10 .build/obj_massdrop_ctrl_greyasteroid/common/arm_atsam/bootloader.o
 .debug_ranges  0x0000000000001138       0x10 .build/obj_massdrop_ctrl_greyasteroid/common/magic.o
 .debug_ranges  0x0000000000001148       0x20 .build/obj_massdrop_ctrl_greyasteroid/protocol/arm_atsam/adc.o
 .debug_ranges  0x0000000000001168       0x70 .build/obj_massdrop_ctrl_greyasteroid/protocol/arm_atsam/clks.o
 .debug_ranges  0x00000000000011d8       0x30 .build/obj_massdrop_ctrl_greyasteroid/protocol/arm_atsam/d51_util.o
 .debug_ranges  0x0000000000001208      0x150 .build/obj_massdrop_ctrl_greyasteroid/protocol/arm_atsam/i2c_master.o
 .debug_ranges  0x0000000000001358       0xc0 .build/obj_massdrop_ctrl_greyasteroid/protocol/arm_atsam/led_matrix.o
 .debug_ranges  0x0000000000001418       0x90 .build/obj_massdrop_ctrl_greyasteroid/protocol/arm_atsam/main_arm_atsam.o
 .debug_ranges  0x00000000000014a8       0x18 .build/obj_massdrop_ctrl_greyasteroid/protocol/arm_atsam/spi.o
 .debug_ranges  0x00000000000014c0       0x18 .build/obj_massdrop_ctrl_greyasteroid/protocol/arm_atsam/startup.o
 .debug_ranges  0x00000000000014d8       0x60 .build/obj_massdrop_ctrl_greyasteroid/protocol/arm_atsam/usb/main_usb.o
 .debug_ranges  0x0000000000001538      0x160 .build/obj_massdrop_ctrl_greyasteroid/protocol/arm_atsam/usb/udc.o
 .debug_ranges  0x0000000000001698       0x30 .build/obj_massdrop_ctrl_greyasteroid/protocol/arm_atsam/usb/udi_cdc.o
 .debug_ranges  0x00000000000016c8       0x28 .build/obj_massdrop_ctrl_greyasteroid/protocol/arm_atsam/usb/udi_hid.o
 .debug_ranges  0x00000000000016f0       0xa8 .build/obj_massdrop_ctrl_greyasteroid/protocol/arm_atsam/usb/udi_hid_kbd.o
 .debug_ranges  0x0000000000001798       0x20 .build/obj_massdrop_ctrl_greyasteroid/protocol/arm_atsam/usb/ui.o
 .debug_ranges  0x00000000000017b8       0x50 .build/obj_massdrop_ctrl_greyasteroid/protocol/arm_atsam/usb/usb2422.o
 .debug_ranges  0x0000000000001808      0x130 .build/obj_massdrop_ctrl_greyasteroid/protocol/arm_atsam/usb/usb.o
 .debug_ranges  0x0000000000001938      0x190 .build/obj_massdrop_ctrl_greyasteroid/protocol/arm_atsam/usb/usb_device_udd.o

.debug_line     0x0000000000000000    0x1295a
 .debug_line    0x0000000000000000      0x767 .build/obj_massdrop_ctrl_greyasteroid/matrix.o
 .debug_line    0x0000000000000767      0x41f .build/obj_massdrop_ctrl_greyasteroid/config_led.o
 .debug_line    0x0000000000000b86      0x429 .build/obj_massdrop_ctrl_greyasteroid/keyboards/massdrop/ctrl/keymaps/greyasteroid/keymap.o
 .debug_line    0x0000000000000faf      0xba2 .build/obj_massdrop_ctrl_greyasteroid/quantum/quantum.o
 .debug_line    0x0000000000001b51      0x51a .build/obj_massdrop_ctrl_greyasteroid/quantum/keymap_common.o
 .debug_line    0x000000000000206b      0x350 .build/obj_massdrop_ctrl_greyasteroid/quantum/keycode_config.o
 .debug_line    0x00000000000023bb      0x3d6 .build/obj_massdrop_ctrl_greyasteroid/common/arm_atsam/eeprom.o
 .debug_line    0x0000000000002791      0x1e2 .build/obj_massdrop_ctrl_greyasteroid/quantum/color.o
 .debug_line    0x0000000000002973     0x1619 .build/obj_massdrop_ctrl_greyasteroid/quantum/rgb_matrix.o
 .debug_line    0x0000000000003f8c      0x3a3 .build/obj_massdrop_ctrl_greyasteroid/quantum/process_keycode/process_rgb.o
 .debug_line    0x000000000000432f      0x100 .build/obj_massdrop_ctrl_greyasteroid/quantum/led_tables.o
 .debug_line    0x000000000000442f      0x451 .build/obj_massdrop_ctrl_greyasteroid/quantum/process_keycode/process_space_cadet.o
 .debug_line    0x0000000000004880      0x461 .build/obj_massdrop_ctrl_greyasteroid/quantum/process_keycode/process_magic.o
 .debug_line    0x0000000000004ce1      0x368 .build/obj_massdrop_ctrl_greyasteroid/quantum/process_keycode/process_grave_esc.o
 .debug_line    0x0000000000005049      0x2c3 .build/obj_massdrop_ctrl_greyasteroid/common/host.o
 .debug_line    0x000000000000530c      0x3de .build/obj_massdrop_ctrl_greyasteroid/common/keyboard.o
 .debug_line    0x00000000000056ea      0xa85 .build/obj_massdrop_ctrl_greyasteroid/common/action.o
 .debug_line    0x000000000000616f      0x7ce .build/obj_massdrop_ctrl_greyasteroid/common/action_tapping.o
 .debug_line    0x000000000000693d      0x27d .build/obj_massdrop_ctrl_greyasteroid/common/action_macro.o
 .debug_line    0x0000000000006bba      0x55d .build/obj_massdrop_ctrl_greyasteroid/common/action_layer.o
 .debug_line    0x0000000000007117      0x6ca .build/obj_massdrop_ctrl_greyasteroid/common/action_util.o
 .debug_line    0x00000000000077e1       0xfe .build/obj_massdrop_ctrl_greyasteroid/common/debug.o
 .debug_line    0x00000000000078df      0x4c9 .build/obj_massdrop_ctrl_greyasteroid/common/eeconfig.o
 .debug_line    0x0000000000007da8      0x4f2 .build/obj_massdrop_ctrl_greyasteroid/common/report.o
 .debug_line    0x000000000000829a      0x4e5 .build/obj_massdrop_ctrl_greyasteroid/common/arm_atsam/suspend.o
 .debug_line    0x000000000000877f      0x2ae .build/obj_massdrop_ctrl_greyasteroid/common/arm_atsam/timer.o
 .debug_line    0x0000000000008a2d      0x35b .build/obj_massdrop_ctrl_greyasteroid/common/arm_atsam/bootloader.o
 .debug_line    0x0000000000008d88      0x1a8 .build/obj_massdrop_ctrl_greyasteroid/common/magic.o
 .debug_line    0x0000000000008f30      0x6cf .build/obj_massdrop_ctrl_greyasteroid/protocol/arm_atsam/adc.o
 .debug_line    0x00000000000095ff      0xdef .build/obj_massdrop_ctrl_greyasteroid/protocol/arm_atsam/clks.o
 .debug_line    0x000000000000a3ee      0x6ff .build/obj_massdrop_ctrl_greyasteroid/protocol/arm_atsam/d51_util.o
 .debug_line    0x000000000000aaed     0x10dd .build/obj_massdrop_ctrl_greyasteroid/protocol/arm_atsam/i2c_master.o
 .debug_line    0x000000000000bbca      0xb73 .build/obj_massdrop_ctrl_greyasteroid/protocol/arm_atsam/led_matrix.o
 .debug_line    0x000000000000c73d      0xa28 .build/obj_massdrop_ctrl_greyasteroid/protocol/arm_atsam/main_arm_atsam.o
 .debug_line    0x000000000000d165      0x5eb .build/obj_massdrop_ctrl_greyasteroid/protocol/arm_atsam/spi.o
 .debug_line    0x000000000000d750      0x29e .build/obj_massdrop_ctrl_greyasteroid/protocol/arm_atsam/startup.o
 .debug_line    0x000000000000d9ee      0x400 .build/obj_massdrop_ctrl_greyasteroid/protocol/arm_atsam/usb/main_usb.o
 .debug_line    0x000000000000ddee      0xa59 .build/obj_massdrop_ctrl_greyasteroid/protocol/arm_atsam/usb/udc.o
 .debug_line    0x000000000000e847      0x397 .build/obj_massdrop_ctrl_greyasteroid/protocol/arm_atsam/usb/udi_cdc.o
 .debug_line    0x000000000000ebde      0x395 .build/obj_massdrop_ctrl_greyasteroid/protocol/arm_atsam/usb/udi_hid.o
 .debug_line    0x000000000000ef73      0x733 .build/obj_massdrop_ctrl_greyasteroid/protocol/arm_atsam/usb/udi_hid_kbd.o
 .debug_line    0x000000000000f6a6      0x271 .build/obj_massdrop_ctrl_greyasteroid/protocol/arm_atsam/usb/udi_hid_kbd_desc.o
 .debug_line    0x000000000000f917      0x1d2 .build/obj_massdrop_ctrl_greyasteroid/protocol/arm_atsam/usb/ui.o
 .debug_line    0x000000000000fae9      0xbb5 .build/obj_massdrop_ctrl_greyasteroid/protocol/arm_atsam/usb/usb2422.o
 .debug_line    0x000000000001069e     0x114a .build/obj_massdrop_ctrl_greyasteroid/protocol/arm_atsam/usb/usb.o
 .debug_line    0x00000000000117e8     0x1172 .build/obj_massdrop_ctrl_greyasteroid/protocol/arm_atsam/usb/usb_device_udd.o

.debug_str      0x0000000000000000     0xc73a
 .debug_str     0x0000000000000000      0xd4f .build/obj_massdrop_ctrl_greyasteroid/matrix.o
                                        0xede (size before relaxing)
 .debug_str     0x0000000000000d4f       0x69 .build/obj_massdrop_ctrl_greyasteroid/config_led.o
                                        0xbe0 (size before relaxing)
 .debug_str     0x0000000000000db8     0x16dd .build/obj_massdrop_ctrl_greyasteroid/keyboards/massdrop/ctrl/keymaps/greyasteroid/keymap.o
                                       0x2264 (size before relaxing)
 .debug_str     0x0000000000002495      0x48a .build/obj_massdrop_ctrl_greyasteroid/quantum/quantum.o
                                       0x2339 (size before relaxing)
 .debug_str     0x000000000000291f      0x4cc .build/obj_massdrop_ctrl_greyasteroid/quantum/keymap_common.o
                                       0x261a (size before relaxing)
 .debug_str     0x0000000000002deb       0x6a .build/obj_massdrop_ctrl_greyasteroid/quantum/keycode_config.o
                                        0x8ee (size before relaxing)
 .debug_str     0x0000000000002e55      0x112 .build/obj_massdrop_ctrl_greyasteroid/common/arm_atsam/eeprom.o
                                        0x723 (size before relaxing)
 .debug_str     0x0000000000002f67       0x3f .build/obj_massdrop_ctrl_greyasteroid/quantum/color.o
                                        0x227 (size before relaxing)
 .debug_str     0x0000000000002fa6      0x7c0 .build/obj_massdrop_ctrl_greyasteroid/quantum/rgb_matrix.o
                                       0x129b (size before relaxing)
 .debug_str     0x0000000000003766       0x63 .build/obj_massdrop_ctrl_greyasteroid/quantum/process_keycode/process_rgb.o
                                       0x1fd1 (size before relaxing)
 .debug_str     0x00000000000037c9       0x15 .build/obj_massdrop_ctrl_greyasteroid/quantum/led_tables.o
                                        0x1f7 (size before relaxing)
 .debug_str     0x00000000000037de       0x8b .build/obj_massdrop_ctrl_greyasteroid/quantum/process_keycode/process_space_cadet.o
                                       0x1ea7 (size before relaxing)
 .debug_str     0x0000000000003869       0x6f .build/obj_massdrop_ctrl_greyasteroid/quantum/process_keycode/process_magic.o
                                       0x18c1 (size before relaxing)
 .debug_str     0x00000000000038d8       0x67 .build/obj_massdrop_ctrl_greyasteroid/quantum/process_keycode/process_grave_esc.o
                                       0x1e7b (size before relaxing)
 .debug_str     0x000000000000393f      0x12b .build/obj_massdrop_ctrl_greyasteroid/common/host.o
                                        0x4ee (size before relaxing)
 .debug_str     0x0000000000003a6a      0x17d .build/obj_massdrop_ctrl_greyasteroid/common/keyboard.o
                                        0x59f (size before relaxing)
 .debug_str     0x0000000000003be7      0x42f .build/obj_massdrop_ctrl_greyasteroid/common/action.o
                                       0x1712 (size before relaxing)
 .debug_str     0x0000000000004016       0xf7 .build/obj_massdrop_ctrl_greyasteroid/common/action_tapping.o
                                        0xc1e (size before relaxing)
 .debug_str     0x000000000000410d       0x6b .build/obj_massdrop_ctrl_greyasteroid/common/action_macro.o
                                        0x9b9 (size before relaxing)
 .debug_str     0x0000000000004178       0xd3 .build/obj_massdrop_ctrl_greyasteroid/common/action_layer.o
                                        0x615 (size before relaxing)
 .debug_str     0x000000000000424b      0x21a .build/obj_massdrop_ctrl_greyasteroid/common/action_util.o
                                        0x7d6 (size before relaxing)
 .debug_str     0x0000000000004465       0x18 .build/obj_massdrop_ctrl_greyasteroid/common/debug.o
                                        0x234 (size before relaxing)
 .debug_str     0x000000000000447d      0x1be .build/obj_massdrop_ctrl_greyasteroid/common/eeconfig.o
                                        0x8e3 (size before relaxing)
 .debug_str     0x000000000000463b       0x70 .build/obj_massdrop_ctrl_greyasteroid/common/report.o
                                        0xdcb (size before relaxing)
 .debug_str     0x00000000000046ab      0x105 .build/obj_massdrop_ctrl_greyasteroid/common/arm_atsam/suspend.o
                                        0xc3f (size before relaxing)
 .debug_str     0x00000000000047b0       0x39 .build/obj_massdrop_ctrl_greyasteroid/common/arm_atsam/timer.o
                                        0x360 (size before relaxing)
 .debug_str     0x00000000000047e9      0x191 .build/obj_massdrop_ctrl_greyasteroid/common/arm_atsam/bootloader.o
                                        0x40f (size before relaxing)
 .debug_str     0x000000000000497a       0x18 .build/obj_massdrop_ctrl_greyasteroid/common/magic.o
                                        0x417 (size before relaxing)
 .debug_str     0x0000000000004992     0x19e6 .build/obj_massdrop_ctrl_greyasteroid/protocol/arm_atsam/adc.o
                                       0x282b (size before relaxing)
 .debug_str     0x0000000000006378     0x1985 .build/obj_massdrop_ctrl_greyasteroid/protocol/arm_atsam/clks.o
                                       0x3d56 (size before relaxing)
 .debug_str     0x0000000000007cfd      0x269 .build/obj_massdrop_ctrl_greyasteroid/protocol/arm_atsam/d51_util.o
                                       0x1ee2 (size before relaxing)
 .debug_str     0x0000000000007f66      0x9d0 .build/obj_massdrop_ctrl_greyasteroid/protocol/arm_atsam/i2c_master.o
                                       0x3b01 (size before relaxing)
 .debug_str     0x0000000000008936      0x13a .build/obj_massdrop_ctrl_greyasteroid/protocol/arm_atsam/led_matrix.o
                                       0x30d2 (size before relaxing)
 .debug_str     0x0000000000008a70      0x874 .build/obj_massdrop_ctrl_greyasteroid/protocol/arm_atsam/main_arm_atsam.o
                                       0x2c4e (size before relaxing)
 .debug_str     0x00000000000092e4       0x22 .build/obj_massdrop_ctrl_greyasteroid/protocol/arm_atsam/spi.o
                                       0x28ab (size before relaxing)
 .debug_str     0x0000000000009306      0xb4c .build/obj_massdrop_ctrl_greyasteroid/protocol/arm_atsam/startup.o
                                        0xe1a (size before relaxing)
 .debug_str     0x0000000000009e52      0x154 .build/obj_massdrop_ctrl_greyasteroid/protocol/arm_atsam/usb/main_usb.o
                                        0xba3 (size before relaxing)
 .debug_str     0x0000000000009fa6      0x93c .build/obj_massdrop_ctrl_greyasteroid/protocol/arm_atsam/usb/udc.o
                                       0x13a6 (size before relaxing)
 .debug_str     0x000000000000a8e2       0x50 .build/obj_massdrop_ctrl_greyasteroid/protocol/arm_atsam/usb/udi_cdc.o
                                        0xb60 (size before relaxing)
 .debug_str     0x000000000000a932      0x1b1 .build/obj_massdrop_ctrl_greyasteroid/protocol/arm_atsam/usb/udi_hid.o
                                        0xcd9 (size before relaxing)
 .debug_str     0x000000000000aae3      0x447 .build/obj_massdrop_ctrl_greyasteroid/protocol/arm_atsam/usb/udi_hid_kbd.o
                                        0xfd5 (size before relaxing)
 .debug_str     0x000000000000af2a      0x111 .build/obj_massdrop_ctrl_greyasteroid/protocol/arm_atsam/usb/udi_hid_kbd_desc.o
                                        0xd2f (size before relaxing)
 .debug_str     0x000000000000b03b       0x44 .build/obj_massdrop_ctrl_greyasteroid/protocol/arm_atsam/usb/ui.o
                                        0x2ba (size before relaxing)
 .debug_str     0x000000000000b07f      0x538 .build/obj_massdrop_ctrl_greyasteroid/protocol/arm_atsam/usb/usb2422.o
                                       0x3cd1 (size before relaxing)
 .debug_str     0x000000000000b5b7      0xc9f .build/obj_massdrop_ctrl_greyasteroid/protocol/arm_atsam/usb/usb.o
                                       0x2b4b (size before relaxing)
 .debug_str     0x000000000000c256      0x4e4 .build/obj_massdrop_ctrl_greyasteroid/protocol/arm_atsam/usb/usb_device_udd.o
                                       0x2362 (size before relaxing)

.debug_frame    0x0000000000000000     0x38e0
 .debug_frame   0x0000000000000000       0xf4 .build/obj_massdrop_ctrl_greyasteroid/matrix.o
 .debug_frame   0x00000000000000f4       0x20 .build/obj_massdrop_ctrl_greyasteroid/config_led.o
 .debug_frame   0x0000000000000114      0x430 .build/obj_massdrop_ctrl_greyasteroid/quantum/quantum.o
 .debug_frame   0x0000000000000544       0x78 .build/obj_massdrop_ctrl_greyasteroid/quantum/keymap_common.o
 .debug_frame   0x00000000000005bc       0x30 .build/obj_massdrop_ctrl_greyasteroid/quantum/keycode_config.o
 .debug_frame   0x00000000000005ec       0xdc .build/obj_massdrop_ctrl_greyasteroid/common/arm_atsam/eeprom.o
 .debug_frame   0x00000000000006c8       0x38 .build/obj_massdrop_ctrl_greyasteroid/quantum/color.o
 .debug_frame   0x0000000000000700      0x558 .build/obj_massdrop_ctrl_greyasteroid/quantum/rgb_matrix.o
 .debug_frame   0x0000000000000c58       0xf0 .build/obj_massdrop_ctrl_greyasteroid/quantum/process_keycode/process_rgb.o
 .debug_frame   0x0000000000000d48       0x78 .build/obj_massdrop_ctrl_greyasteroid/quantum/process_keycode/process_space_cadet.o
 .debug_frame   0x0000000000000dc0       0x30 .build/obj_massdrop_ctrl_greyasteroid/quantum/process_keycode/process_magic.o
 .debug_frame   0x0000000000000df0       0x2c .build/obj_massdrop_ctrl_greyasteroid/quantum/process_keycode/process_grave_esc.o
 .debug_frame   0x0000000000000e1c       0xbc .build/obj_massdrop_ctrl_greyasteroid/common/host.o
 .debug_frame   0x0000000000000ed8      0x150 .build/obj_massdrop_ctrl_greyasteroid/common/keyboard.o
 .debug_frame   0x0000000000001028      0x314 .build/obj_massdrop_ctrl_greyasteroid/common/action.o
 .debug_frame   0x000000000000133c       0xf4 .build/obj_massdrop_ctrl_greyasteroid/common/action_tapping.o
 .debug_frame   0x0000000000001430       0x38 .build/obj_massdrop_ctrl_greyasteroid/common/action_macro.o
 .debug_frame   0x0000000000001468      0x264 .build/obj_massdrop_ctrl_greyasteroid/common/action_layer.o
 .debug_frame   0x00000000000016cc      0x310 .build/obj_massdrop_ctrl_greyasteroid/common/action_util.o
 .debug_frame   0x00000000000019dc      0x208 .build/obj_massdrop_ctrl_greyasteroid/common/eeconfig.o
 .debug_frame   0x0000000000001be4       0xfc .build/obj_massdrop_ctrl_greyasteroid/common/report.o
 .debug_frame   0x0000000000001ce0       0xec .build/obj_massdrop_ctrl_greyasteroid/common/arm_atsam/suspend.o
 .debug_frame   0x0000000000001dcc       0x90 .build/obj_massdrop_ctrl_greyasteroid/common/arm_atsam/timer.o
 .debug_frame   0x0000000000001e5c       0x34 .build/obj_massdrop_ctrl_greyasteroid/common/arm_atsam/bootloader.o
 .debug_frame   0x0000000000001e90       0x30 .build/obj_massdrop_ctrl_greyasteroid/common/magic.o
 .debug_frame   0x0000000000001ec0       0x4c .build/obj_massdrop_ctrl_greyasteroid/protocol/arm_atsam/adc.o
 .debug_frame   0x0000000000001f0c      0x184 .build/obj_massdrop_ctrl_greyasteroid/protocol/arm_atsam/clks.o
 .debug_frame   0x0000000000002090       0x98 .build/obj_massdrop_ctrl_greyasteroid/protocol/arm_atsam/d51_util.o
 .debug_frame   0x0000000000002128      0x3b8 .build/obj_massdrop_ctrl_greyasteroid/protocol/arm_atsam/i2c_master.o
 .debug_frame   0x00000000000024e0      0x160 .build/obj_massdrop_ctrl_greyasteroid/protocol/arm_atsam/led_matrix.o
 .debug_frame   0x0000000000002640      0x148 .build/obj_massdrop_ctrl_greyasteroid/protocol/arm_atsam/main_arm_atsam.o
 .debug_frame   0x0000000000002788       0x4c .build/obj_massdrop_ctrl_greyasteroid/protocol/arm_atsam/spi.o
 .debug_frame   0x00000000000027d4       0x3c .build/obj_massdrop_ctrl_greyasteroid/protocol/arm_atsam/startup.o
 .debug_frame   0x0000000000002810       0xd0 .build/obj_massdrop_ctrl_greyasteroid/protocol/arm_atsam/usb/main_usb.o
 .debug_frame   0x00000000000028e0      0x144 .build/obj_massdrop_ctrl_greyasteroid/protocol/arm_atsam/usb/udc.o
 .debug_frame   0x0000000000002a24       0x7c .build/obj_massdrop_ctrl_greyasteroid/protocol/arm_atsam/usb/udi_cdc.o
 .debug_frame   0x0000000000002aa0       0x48 .build/obj_massdrop_ctrl_greyasteroid/protocol/arm_atsam/usb/udi_hid.o
 .debug_frame   0x0000000000002ae8      0x1e0 .build/obj_massdrop_ctrl_greyasteroid/protocol/arm_atsam/usb/udi_hid_kbd.o
 .debug_frame   0x0000000000002cc8       0x80 .build/obj_massdrop_ctrl_greyasteroid/protocol/arm_atsam/usb/ui.o
 .debug_frame   0x0000000000002d48      0x160 .build/obj_massdrop_ctrl_greyasteroid/protocol/arm_atsam/usb/usb2422.o
 .debug_frame   0x0000000000002ea8      0x274 .build/obj_massdrop_ctrl_greyasteroid/protocol/arm_atsam/usb/usb.o
 .debug_frame   0x000000000000311c      0x450 .build/obj_massdrop_ctrl_greyasteroid/protocol/arm_atsam/usb/usb_device_udd.o
 .debug_frame   0x000000000000356c       0xac /usr/local/Cellar/arm-gcc-bin@8/8-2019-q3-update/bin/../lib/gcc/arm-none-eabi/8.3.1/thumb/v7e-m+fp/hard/libgcc.a(_arm_addsubdf3.o)
 .debug_frame   0x0000000000003618       0x50 /usr/local/Cellar/arm-gcc-bin@8/8-2019-q3-update/bin/../lib/gcc/arm-none-eabi/8.3.1/thumb/v7e-m+fp/hard/libgcc.a(_arm_muldivdf3.o)
 .debug_frame   0x0000000000003668       0x24 /usr/local/Cellar/arm-gcc-bin@8/8-2019-q3-update/bin/../lib/gcc/arm-none-eabi/8.3.1/thumb/v7e-m+fp/hard/libgcc.a(_arm_fixunsdfsi.o)
 .debug_frame   0x000000000000368c       0x2c /usr/local/Cellar/arm-gcc-bin@8/8-2019-q3-update/bin/../lib/gcc/arm-none-eabi/8.3.1/thumb/v7e-m+fp/hard/libgcc.a(_aeabi_uldivmod.o)
 .debug_frame   0x00000000000036b8       0x34 /usr/local/Cellar/arm-gcc-bin@8/8-2019-q3-update/bin/../lib/gcc/arm-none-eabi/8.3.1/thumb/v7e-m+fp/hard/libgcc.a(_udivmoddi4.o)
 .debug_frame   0x00000000000036ec       0x2c /usr/local/Cellar/arm-gcc-bin@8/8-2019-q3-update/bin/../lib/gcc/arm-none-eabi/8.3.1/../../../../arm-none-eabi/lib/thumb/v7e-m+fp/hard/libg.a(lib_a-init.o)
 .debug_frame   0x0000000000003718       0x38 /usr/local/Cellar/arm-gcc-bin@8/8-2019-q3-update/bin/../lib/gcc/arm-none-eabi/8.3.1/../../../../arm-none-eabi/lib/thumb/v7e-m+fp/hard/libg.a(lib_a-memset.o)
 .debug_frame   0x0000000000003750       0x5c /usr/local/Cellar/arm-gcc-bin@8/8-2019-q3-update/bin/../lib/gcc/arm-none-eabi/8.3.1/../../../../arm-none-eabi/lib/thumb/v7e-m+fp/hard/libg.a(lib_a-__call_atexit.o)
 .debug_frame   0x00000000000037ac       0x20 /usr/local/Cellar/arm-gcc-bin@8/8-2019-q3-update/bin/../lib/gcc/arm-none-eabi/8.3.1/../../../../arm-none-eabi/lib/thumb/v7e-m+fp/hard/libg.a(lib_a-atexit.o)
 .debug_frame   0x00000000000037cc       0x34 /usr/local/Cellar/arm-gcc-bin@8/8-2019-q3-update/bin/../lib/gcc/arm-none-eabi/8.3.1/../../../../arm-none-eabi/lib/thumb/v7e-m+fp/hard/libg.a(lib_a-fini.o)
 .debug_frame   0x0000000000003800       0xb0 /usr/local/Cellar/arm-gcc-bin@8/8-2019-q3-update/bin/../lib/gcc/arm-none-eabi/8.3.1/../../../../arm-none-eabi/lib/thumb/v7e-m+fp/hard/libg.a(lib_a-lock.o)
 .debug_frame   0x00000000000038b0       0x30 /usr/local/Cellar/arm-gcc-bin@8/8-2019-q3-update/bin/../lib/gcc/arm-none-eabi/8.3.1/../../../../arm-none-eabi/lib/thumb/v7e-m+fp/hard/libg.a(lib_a-__atexit.o)

Cross Reference Table

Symbol                                            File
AC_Handler                                        .build/obj_massdrop_ctrl_greyasteroid/protocol/arm_atsam/startup.o
ADC0_0_Handler                                    .build/obj_massdrop_ctrl_greyasteroid/protocol/arm_atsam/startup.o
ADC0_1_Handler                                    .build/obj_massdrop_ctrl_greyasteroid/protocol/arm_atsam/startup.o
ADC0_clock_init                                   .build/obj_massdrop_ctrl_greyasteroid/protocol/arm_atsam/adc.o
                                                  .build/obj_massdrop_ctrl_greyasteroid/protocol/arm_atsam/clks.o
ADC0_init                                         .build/obj_massdrop_ctrl_greyasteroid/protocol/arm_atsam/adc.o
                                                  .build/obj_massdrop_ctrl_greyasteroid/protocol/arm_atsam/main_arm_atsam.o
ADC1_0_Handler                                    .build/obj_massdrop_ctrl_greyasteroid/protocol/arm_atsam/startup.o
ADC1_1_Handler                                    .build/obj_massdrop_ctrl_greyasteroid/protocol/arm_atsam/startup.o
AES_Handler                                       .build/obj_massdrop_ctrl_greyasteroid/protocol/arm_atsam/startup.o
BusFault_Handler                                  .build/obj_massdrop_ctrl_greyasteroid/protocol/arm_atsam/startup.o
CDC_init                                          .build/obj_massdrop_ctrl_greyasteroid/protocol/arm_atsam/usb/udi_cdc.o
                                                  .build/obj_massdrop_ctrl_greyasteroid/protocol/arm_atsam/main_arm_atsam.o
CDC_input                                         .build/obj_massdrop_ctrl_greyasteroid/protocol/arm_atsam/usb/udi_cdc.o
CDC_print                                         .build/obj_massdrop_ctrl_greyasteroid/protocol/arm_atsam/usb/udi_cdc.o
                                                  .build/obj_massdrop_ctrl_greyasteroid/protocol/arm_atsam/usb/usb2422.o
                                                  .build/obj_massdrop_ctrl_greyasteroid/protocol/arm_atsam/led_matrix.o
CDC_printf                                        .build/obj_massdrop_ctrl_greyasteroid/protocol/arm_atsam/usb/udi_cdc.o
CDC_send                                          .build/obj_massdrop_ctrl_greyasteroid/protocol/arm_atsam/usb/udi_cdc.o
CIE1931_CURVE                                     .build/obj_massdrop_ctrl_greyasteroid/quantum/led_tables.o
                                                  .build/obj_massdrop_ctrl_greyasteroid/quantum/color.o
CLK_delay_ms                                      .build/obj_massdrop_ctrl_greyasteroid/protocol/arm_atsam/clks.o
                                                  .build/obj_massdrop_ctrl_greyasteroid/protocol/arm_atsam/usb/usb2422.o
                                                  .build/obj_massdrop_ctrl_greyasteroid/protocol/arm_atsam/main_arm_atsam.o
                                                  .build/obj_massdrop_ctrl_greyasteroid/protocol/arm_atsam/i2c_master.o
                                                  .build/obj_massdrop_ctrl_greyasteroid/common/action_macro.o
                                                  .build/obj_massdrop_ctrl_greyasteroid/common/action.o
                                                  .build/obj_massdrop_ctrl_greyasteroid/quantum/quantum.o
CLK_delay_us                                      .build/obj_massdrop_ctrl_greyasteroid/protocol/arm_atsam/clks.o
                                                  .build/obj_massdrop_ctrl_greyasteroid/protocol/arm_atsam/usb/usb2422.o
                                                  .build/obj_massdrop_ctrl_greyasteroid/matrix.o
CLK_enable_timebase                               .build/obj_massdrop_ctrl_greyasteroid/protocol/arm_atsam/clks.o
CLK_init                                          .build/obj_massdrop_ctrl_greyasteroid/protocol/arm_atsam/clks.o
                                                  .build/obj_massdrop_ctrl_greyasteroid/protocol/arm_atsam/main_arm_atsam.o
CLK_init_osc                                      .build/obj_massdrop_ctrl_greyasteroid/protocol/arm_atsam/clks.o
CLK_oscctrl_init                                  .build/obj_massdrop_ctrl_greyasteroid/protocol/arm_atsam/clks.o
CLK_reset_time                                    .build/obj_massdrop_ctrl_greyasteroid/protocol/arm_atsam/clks.o
CLK_set_gclk_freq                                 .build/obj_massdrop_ctrl_greyasteroid/protocol/arm_atsam/clks.o
CLK_set_i2c0_freq                                 .build/obj_massdrop_ctrl_greyasteroid/protocol/arm_atsam/clks.o
                                                  .build/obj_massdrop_ctrl_greyasteroid/protocol/arm_atsam/i2c_master.o
CLK_set_i2c1_freq                                 .build/obj_massdrop_ctrl_greyasteroid/protocol/arm_atsam/clks.o
                                                  .build/obj_massdrop_ctrl_greyasteroid/protocol/arm_atsam/i2c_master.o
CLK_set_spi_freq                                  .build/obj_massdrop_ctrl_greyasteroid/protocol/arm_atsam/clks.o
                                                  .build/obj_massdrop_ctrl_greyasteroid/protocol/arm_atsam/spi.o
DAC_0_Handler                                     .build/obj_massdrop_ctrl_greyasteroid/protocol/arm_atsam/startup.o
DAC_1_Handler                                     .build/obj_massdrop_ctrl_greyasteroid/protocol/arm_atsam/startup.o
DAC_2_Handler                                     .build/obj_massdrop_ctrl_greyasteroid/protocol/arm_atsam/startup.o
DAC_3_Handler                                     .build/obj_massdrop_ctrl_greyasteroid/protocol/arm_atsam/startup.o
DAC_4_Handler                                     .build/obj_massdrop_ctrl_greyasteroid/protocol/arm_atsam/startup.o
DMAC_0_Handler                                    .build/obj_massdrop_ctrl_greyasteroid/protocol/arm_atsam/led_matrix.o
DMAC_1_Handler                                    .build/obj_massdrop_ctrl_greyasteroid/protocol/arm_atsam/startup.o
DMAC_2_Handler                                    .build/obj_massdrop_ctrl_greyasteroid/protocol/arm_atsam/startup.o
DMAC_3_Handler                                    .build/obj_massdrop_ctrl_greyasteroid/protocol/arm_atsam/startup.o
DMAC_4_Handler                                    .build/obj_massdrop_ctrl_greyasteroid/protocol/arm_atsam/startup.o
DebugMon_Handler                                  .build/obj_massdrop_ctrl_greyasteroid/protocol/arm_atsam/startup.o
Dummy_Handler                                     .build/obj_massdrop_ctrl_greyasteroid/protocol/arm_atsam/startup.o
EIC_0_Handler                                     .build/obj_massdrop_ctrl_greyasteroid/protocol/arm_atsam/startup.o
EIC_10_Handler                                    .build/obj_massdrop_ctrl_greyasteroid/protocol/arm_atsam/startup.o
EIC_11_Handler                                    .build/obj_massdrop_ctrl_greyasteroid/protocol/arm_atsam/startup.o
EIC_12_Handler                                    .build/obj_massdrop_ctrl_greyasteroid/protocol/arm_atsam/startup.o
EIC_13_Handler                                    .build/obj_massdrop_ctrl_greyasteroid/protocol/arm_atsam/startup.o
EIC_14_Handler                                    .build/obj_massdrop_ctrl_greyasteroid/protocol/arm_atsam/startup.o
EIC_15_Handler                                    .build/obj_massdrop_ctrl_greyasteroid/protocol/arm_atsam/startup.o
EIC_1_Handler                                     .build/obj_massdrop_ctrl_greyasteroid/protocol/arm_atsam/startup.o
EIC_2_Handler                                     .build/obj_massdrop_ctrl_greyasteroid/protocol/arm_atsam/startup.o
EIC_3_Handler                                     .build/obj_massdrop_ctrl_greyasteroid/protocol/arm_atsam/startup.o
EIC_4_Handler                                     .build/obj_massdrop_ctrl_greyasteroid/protocol/arm_atsam/startup.o
EIC_5_Handler                                     .build/obj_massdrop_ctrl_greyasteroid/protocol/arm_atsam/startup.o
EIC_6_Handler                                     .build/obj_massdrop_ctrl_greyasteroid/protocol/arm_atsam/startup.o
EIC_7_Handler                                     .build/obj_massdrop_ctrl_greyasteroid/protocol/arm_atsam/d51_util.o
EIC_8_Handler                                     .build/obj_massdrop_ctrl_greyasteroid/protocol/arm_atsam/startup.o
EIC_9_Handler                                     .build/obj_massdrop_ctrl_greyasteroid/protocol/arm_atsam/startup.o
EVSYS_0_Handler                                   .build/obj_massdrop_ctrl_greyasteroid/protocol/arm_atsam/startup.o
EVSYS_1_Handler                                   .build/obj_massdrop_ctrl_greyasteroid/protocol/arm_atsam/startup.o
EVSYS_2_Handler                                   .build/obj_massdrop_ctrl_greyasteroid/protocol/arm_atsam/startup.o
EVSYS_3_Handler                                   .build/obj_massdrop_ctrl_greyasteroid/protocol/arm_atsam/startup.o
EVSYS_4_Handler                                   .build/obj_massdrop_ctrl_greyasteroid/protocol/arm_atsam/startup.o
FREQM_Handler                                     .build/obj_massdrop_ctrl_greyasteroid/protocol/arm_atsam/startup.o
HardFault_Handler                                 .build/obj_massdrop_ctrl_greyasteroid/protocol/arm_atsam/startup.o
I2C3733_Control_Set                               .build/obj_massdrop_ctrl_greyasteroid/protocol/arm_atsam/i2c_master.o
                                                  .build/obj_massdrop_ctrl_greyasteroid/protocol/arm_atsam/led_matrix.o
                                                  .build/obj_massdrop_ctrl_greyasteroid/common/arm_atsam/suspend.o
I2C3733_Init_Control                              .build/obj_massdrop_ctrl_greyasteroid/protocol/arm_atsam/i2c_master.o
                                                  .build/obj_massdrop_ctrl_greyasteroid/protocol/arm_atsam/main_arm_atsam.o
I2C3733_Init_Drivers                              .build/obj_massdrop_ctrl_greyasteroid/protocol/arm_atsam/i2c_master.o
                                                  .build/obj_massdrop_ctrl_greyasteroid/protocol/arm_atsam/main_arm_atsam.o
I2C_DMAC_LED_Init                                 .build/obj_massdrop_ctrl_greyasteroid/protocol/arm_atsam/i2c_master.o
                                                  .build/obj_massdrop_ctrl_greyasteroid/protocol/arm_atsam/main_arm_atsam.o
I2S_Handler                                       .build/obj_massdrop_ctrl_greyasteroid/protocol/arm_atsam/startup.o
ICM_Handler                                       .build/obj_massdrop_ctrl_greyasteroid/protocol/arm_atsam/startup.o
MCLK_Handler                                      .build/obj_massdrop_ctrl_greyasteroid/protocol/arm_atsam/startup.o
MFRNAME                                           .build/obj_massdrop_ctrl_greyasteroid/protocol/arm_atsam/usb/usb2422.o
MemManage_Handler                                 .build/obj_massdrop_ctrl_greyasteroid/protocol/arm_atsam/startup.o
NMI_Handler                                       .build/obj_massdrop_ctrl_greyasteroid/protocol/arm_atsam/startup.o
NVMCTRL_0_Handler                                 .build/obj_massdrop_ctrl_greyasteroid/protocol/arm_atsam/startup.o
NVMCTRL_1_Handler                                 .build/obj_massdrop_ctrl_greyasteroid/protocol/arm_atsam/startup.o
OSC32KCTRL_Handler                                .build/obj_massdrop_ctrl_greyasteroid/protocol/arm_atsam/startup.o
OSCCTRL_0_Handler                                 .build/obj_massdrop_ctrl_greyasteroid/protocol/arm_atsam/startup.o
OSCCTRL_1_Handler                                 .build/obj_massdrop_ctrl_greyasteroid/protocol/arm_atsam/startup.o
OSCCTRL_2_Handler                                 .build/obj_massdrop_ctrl_greyasteroid/protocol/arm_atsam/startup.o
OSCCTRL_3_Handler                                 .build/obj_massdrop_ctrl_greyasteroid/protocol/arm_atsam/startup.o
OSCCTRL_4_Handler                                 .build/obj_massdrop_ctrl_greyasteroid/protocol/arm_atsam/startup.o
PAC_Handler                                       .build/obj_massdrop_ctrl_greyasteroid/protocol/arm_atsam/startup.o
PCC_Handler                                       .build/obj_massdrop_ctrl_greyasteroid/protocol/arm_atsam/startup.o
PDEC_0_Handler                                    .build/obj_massdrop_ctrl_greyasteroid/protocol/arm_atsam/startup.o
PDEC_1_Handler                                    .build/obj_massdrop_ctrl_greyasteroid/protocol/arm_atsam/startup.o
PDEC_2_Handler                                    .build/obj_massdrop_ctrl_greyasteroid/protocol/arm_atsam/startup.o
PM_Handler                                        .build/obj_massdrop_ctrl_greyasteroid/protocol/arm_atsam/startup.o
PRDNAME                                           .build/obj_massdrop_ctrl_greyasteroid/protocol/arm_atsam/usb/usb2422.o
PUKCC_Handler                                     .build/obj_massdrop_ctrl_greyasteroid/protocol/arm_atsam/startup.o
PendSV_Handler                                    .build/obj_massdrop_ctrl_greyasteroid/protocol/arm_atsam/startup.o
QSPI_Handler                                      .build/obj_massdrop_ctrl_greyasteroid/protocol/arm_atsam/startup.o
RAMECC_Handler                                    .build/obj_massdrop_ctrl_greyasteroid/protocol/arm_atsam/startup.o
RTC_Handler                                       .build/obj_massdrop_ctrl_greyasteroid/protocol/arm_atsam/startup.o
Reset_Handler                                     .build/obj_massdrop_ctrl_greyasteroid/protocol/arm_atsam/startup.o
SDHC0_Handler                                     .build/obj_massdrop_ctrl_greyasteroid/protocol/arm_atsam/startup.o
SERCOM0_0_Handler                                 .build/obj_massdrop_ctrl_greyasteroid/protocol/arm_atsam/startup.o
SERCOM0_1_Handler                                 .build/obj_massdrop_ctrl_greyasteroid/protocol/arm_atsam/startup.o
SERCOM0_2_Handler                                 .build/obj_massdrop_ctrl_greyasteroid/protocol/arm_atsam/startup.o
SERCOM0_3_Handler                                 .build/obj_massdrop_ctrl_greyasteroid/protocol/arm_atsam/startup.o
SERCOM1_0_Handler                                 .build/obj_massdrop_ctrl_greyasteroid/protocol/arm_atsam/led_matrix.o
SERCOM1_1_Handler                                 .build/obj_massdrop_ctrl_greyasteroid/protocol/arm_atsam/startup.o
SERCOM1_2_Handler                                 .build/obj_massdrop_ctrl_greyasteroid/protocol/arm_atsam/startup.o
SERCOM1_3_Handler                                 .build/obj_massdrop_ctrl_greyasteroid/protocol/arm_atsam/startup.o
SERCOM2_0_Handler                                 .build/obj_massdrop_ctrl_greyasteroid/protocol/arm_atsam/startup.o
SERCOM2_1_Handler                                 .build/obj_massdrop_ctrl_greyasteroid/protocol/arm_atsam/startup.o
SERCOM2_2_Handler                                 .build/obj_massdrop_ctrl_greyasteroid/protocol/arm_atsam/startup.o
SERCOM2_3_Handler                                 .build/obj_massdrop_ctrl_greyasteroid/protocol/arm_atsam/startup.o
SERCOM3_0_Handler                                 .build/obj_massdrop_ctrl_greyasteroid/protocol/arm_atsam/startup.o
SERCOM3_1_Handler                                 .build/obj_massdrop_ctrl_greyasteroid/protocol/arm_atsam/startup.o
SERCOM3_2_Handler                                 .build/obj_massdrop_ctrl_greyasteroid/protocol/arm_atsam/startup.o
SERCOM3_3_Handler                                 .build/obj_massdrop_ctrl_greyasteroid/protocol/arm_atsam/startup.o
SERCOM4_0_Handler                                 .build/obj_massdrop_ctrl_greyasteroid/protocol/arm_atsam/startup.o
SERCOM4_1_Handler                                 .build/obj_massdrop_ctrl_greyasteroid/protocol/arm_atsam/startup.o
SERCOM4_2_Handler                                 .build/obj_massdrop_ctrl_greyasteroid/protocol/arm_atsam/startup.o
SERCOM4_3_Handler                                 .build/obj_massdrop_ctrl_greyasteroid/protocol/arm_atsam/startup.o
SERCOM5_0_Handler                                 .build/obj_massdrop_ctrl_greyasteroid/protocol/arm_atsam/startup.o
SERCOM5_1_Handler                                 .build/obj_massdrop_ctrl_greyasteroid/protocol/arm_atsam/startup.o
SERCOM5_2_Handler                                 .build/obj_massdrop_ctrl_greyasteroid/protocol/arm_atsam/startup.o
SERCOM5_3_Handler                                 .build/obj_massdrop_ctrl_greyasteroid/protocol/arm_atsam/startup.o
SERNAME                                           .build/obj_massdrop_ctrl_greyasteroid/protocol/arm_atsam/usb/usb2422.o
SOLID_COLOR                                       .build/obj_massdrop_ctrl_greyasteroid/quantum/rgb_matrix.o
SR_EXP_Init                                       .build/obj_massdrop_ctrl_greyasteroid/protocol/arm_atsam/spi.o
                                                  .build/obj_massdrop_ctrl_greyasteroid/protocol/arm_atsam/main_arm_atsam.o
SR_EXP_WriteData                                  .build/obj_massdrop_ctrl_greyasteroid/protocol/arm_atsam/spi.o
                                                  .build/obj_massdrop_ctrl_greyasteroid/protocol/arm_atsam/usb/usb2422.o
                                                  .build/obj_massdrop_ctrl_greyasteroid/protocol/arm_atsam/i2c_master.o
SUPC_0_Handler                                    .build/obj_massdrop_ctrl_greyasteroid/protocol/arm_atsam/startup.o
SUPC_1_Handler                                    .build/obj_massdrop_ctrl_greyasteroid/protocol/arm_atsam/startup.o
SVC_Handler                                       .build/obj_massdrop_ctrl_greyasteroid/protocol/arm_atsam/startup.o
SysTick_Handler                                   .build/obj_massdrop_ctrl_greyasteroid/protocol/arm_atsam/startup.o
TAL_0_Handler                                     .build/obj_massdrop_ctrl_greyasteroid/protocol/arm_atsam/startup.o
TAL_1_Handler                                     .build/obj_massdrop_ctrl_greyasteroid/protocol/arm_atsam/startup.o
TC0_Handler                                       .build/obj_massdrop_ctrl_greyasteroid/protocol/arm_atsam/startup.o
TC1_Handler                                       .build/obj_massdrop_ctrl_greyasteroid/protocol/arm_atsam/startup.o
TC2_Handler                                       .build/obj_massdrop_ctrl_greyasteroid/protocol/arm_atsam/startup.o
TC3_Handler                                       .build/obj_massdrop_ctrl_greyasteroid/protocol/arm_atsam/startup.o
TC4_Handler                                       .build/obj_massdrop_ctrl_greyasteroid/protocol/arm_atsam/clks.o
TC5_Handler                                       .build/obj_massdrop_ctrl_greyasteroid/protocol/arm_atsam/startup.o
TCC0_0_Handler                                    .build/obj_massdrop_ctrl_greyasteroid/protocol/arm_atsam/startup.o
TCC0_1_Handler                                    .build/obj_massdrop_ctrl_greyasteroid/protocol/arm_atsam/startup.o
TCC0_2_Handler                                    .build/obj_massdrop_ctrl_greyasteroid/protocol/arm_atsam/startup.o
TCC0_3_Handler                                    .build/obj_massdrop_ctrl_greyasteroid/protocol/arm_atsam/startup.o
TCC0_4_Handler                                    .build/obj_massdrop_ctrl_greyasteroid/protocol/arm_atsam/startup.o
TCC0_5_Handler                                    .build/obj_massdrop_ctrl_greyasteroid/protocol/arm_atsam/startup.o
TCC0_6_Handler                                    .build/obj_massdrop_ctrl_greyasteroid/protocol/arm_atsam/startup.o
TCC1_0_Handler                                    .build/obj_massdrop_ctrl_greyasteroid/protocol/arm_atsam/startup.o
TCC1_1_Handler                                    .build/obj_massdrop_ctrl_greyasteroid/protocol/arm_atsam/startup.o
TCC1_2_Handler                                    .build/obj_massdrop_ctrl_greyasteroid/protocol/arm_atsam/startup.o
TCC1_3_Handler                                    .build/obj_massdrop_ctrl_greyasteroid/protocol/arm_atsam/startup.o
TCC1_4_Handler                                    .build/obj_massdrop_ctrl_greyasteroid/protocol/arm_atsam/startup.o
TCC2_0_Handler                                    .build/obj_massdrop_ctrl_greyasteroid/protocol/arm_atsam/startup.o
TCC2_1_Handler                                    .build/obj_massdrop_ctrl_greyasteroid/protocol/arm_atsam/startup.o
TCC2_2_Handler                                    .build/obj_massdrop_ctrl_greyasteroid/protocol/arm_atsam/startup.o
TCC2_3_Handler                                    .build/obj_massdrop_ctrl_greyasteroid/protocol/arm_atsam/startup.o
TCC3_0_Handler                                    .build/obj_massdrop_ctrl_greyasteroid/protocol/arm_atsam/startup.o
TCC3_1_Handler                                    .build/obj_massdrop_ctrl_greyasteroid/protocol/arm_atsam/startup.o
TCC3_2_Handler                                    .build/obj_massdrop_ctrl_greyasteroid/protocol/arm_atsam/startup.o
TCC4_0_Handler                                    .build/obj_massdrop_ctrl_greyasteroid/protocol/arm_atsam/startup.o
TCC4_1_Handler                                    .build/obj_massdrop_ctrl_greyasteroid/protocol/arm_atsam/startup.o
TCC4_2_Handler                                    .build/obj_massdrop_ctrl_greyasteroid/protocol/arm_atsam/startup.o
TRNG_Handler                                      .build/obj_massdrop_ctrl_greyasteroid/protocol/arm_atsam/startup.o
USB2422_Port_Detect_Init                          .build/obj_massdrop_ctrl_greyasteroid/protocol/arm_atsam/usb/usb2422.o
                                                  .build/obj_massdrop_ctrl_greyasteroid/protocol/arm_atsam/main_arm_atsam.o
USB2422_init                                      .build/obj_massdrop_ctrl_greyasteroid/protocol/arm_atsam/usb/usb2422.o
                                                  .build/obj_massdrop_ctrl_greyasteroid/protocol/arm_atsam/main_arm_atsam.o
USB2422_shadow                                    .build/obj_massdrop_ctrl_greyasteroid/protocol/arm_atsam/usb/usb2422.o
USB_0_Handler                                     .build/obj_massdrop_ctrl_greyasteroid/protocol/arm_atsam/usb/usb.o
                                                  .build/obj_massdrop_ctrl_greyasteroid/protocol/arm_atsam/startup.o
USB_1_Handler                                     .build/obj_massdrop_ctrl_greyasteroid/protocol/arm_atsam/usb/usb.o
                                                  .build/obj_massdrop_ctrl_greyasteroid/protocol/arm_atsam/startup.o
USB_2_Handler                                     .build/obj_massdrop_ctrl_greyasteroid/protocol/arm_atsam/usb/usb.o
                                                  .build/obj_massdrop_ctrl_greyasteroid/protocol/arm_atsam/startup.o
USB_3_Handler                                     .build/obj_massdrop_ctrl_greyasteroid/protocol/arm_atsam/usb/usb.o
                                                  .build/obj_massdrop_ctrl_greyasteroid/protocol/arm_atsam/startup.o
USB_ExtraSetState                                 .build/obj_massdrop_ctrl_greyasteroid/protocol/arm_atsam/usb/usb2422.o
                                                  .build/obj_massdrop_ctrl_greyasteroid/protocol/arm_atsam/led_matrix.o
USB_HandleExtraDevice                             .build/obj_massdrop_ctrl_greyasteroid/protocol/arm_atsam/usb/usb2422.o
                                                  .build/obj_massdrop_ctrl_greyasteroid/protocol/arm_atsam/main_arm_atsam.o
USB_active                                        .build/obj_massdrop_ctrl_greyasteroid/protocol/arm_atsam/usb/usb2422.o
USB_configure                                     .build/obj_massdrop_ctrl_greyasteroid/protocol/arm_atsam/usb/usb2422.o
USB_reset                                         .build/obj_massdrop_ctrl_greyasteroid/protocol/arm_atsam/usb/usb2422.o
USB_set_host_by_voltage                           .build/obj_massdrop_ctrl_greyasteroid/protocol/arm_atsam/usb/usb2422.o
USB_write2422_block                               .build/obj_massdrop_ctrl_greyasteroid/protocol/arm_atsam/usb/usb2422.o
UTIL_itoa                                         .build/obj_massdrop_ctrl_greyasteroid/protocol/arm_atsam/usb/usb_util.o
UTIL_ltoa                                         .build/obj_massdrop_ctrl_greyasteroid/protocol/arm_atsam/usb/usb_util.o
UTIL_ltoa_radix                                   .build/obj_massdrop_ctrl_greyasteroid/protocol/arm_atsam/usb/usb_util.o
UTIL_utoa                                         .build/obj_massdrop_ctrl_greyasteroid/protocol/arm_atsam/usb/usb_util.o
UsageFault_Handler                                .build/obj_massdrop_ctrl_greyasteroid/protocol/arm_atsam/startup.o
WDT_Handler                                       .build/obj_massdrop_ctrl_greyasteroid/protocol/arm_atsam/startup.o
__adddf3                                          /usr/local/Cellar/arm-gcc-bin@8/8-2019-q3-update/bin/../lib/gcc/arm-none-eabi/8.3.1/thumb/v7e-m+fp/hard/libgcc.a(_arm_addsubdf3.o)
__aeabi_d2uiz                                     /usr/local/Cellar/arm-gcc-bin@8/8-2019-q3-update/bin/../lib/gcc/arm-none-eabi/8.3.1/thumb/v7e-m+fp/hard/libgcc.a(_arm_fixunsdfsi.o)
                                                  .build/obj_massdrop_ctrl_greyasteroid/protocol/arm_atsam/usb/usb2422.o
                                                  .build/obj_massdrop_ctrl_greyasteroid/protocol/arm_atsam/main_arm_atsam.o
__aeabi_dadd                                      /usr/local/Cellar/arm-gcc-bin@8/8-2019-q3-update/bin/../lib/gcc/arm-none-eabi/8.3.1/thumb/v7e-m+fp/hard/libgcc.a(_arm_addsubdf3.o)
                                                  .build/obj_massdrop_ctrl_greyasteroid/protocol/arm_atsam/usb/usb2422.o
                                                  .build/obj_massdrop_ctrl_greyasteroid/protocol/arm_atsam/main_arm_atsam.o
__aeabi_ddiv                                      /usr/local/Cellar/arm-gcc-bin@8/8-2019-q3-update/bin/../lib/gcc/arm-none-eabi/8.3.1/thumb/v7e-m+fp/hard/libgcc.a(_arm_muldivdf3.o)
__aeabi_dmul                                      /usr/local/Cellar/arm-gcc-bin@8/8-2019-q3-update/bin/../lib/gcc/arm-none-eabi/8.3.1/thumb/v7e-m+fp/hard/libgcc.a(_arm_muldivdf3.o)
                                                  .build/obj_massdrop_ctrl_greyasteroid/protocol/arm_atsam/usb/usb2422.o
                                                  .build/obj_massdrop_ctrl_greyasteroid/protocol/arm_atsam/main_arm_atsam.o
__aeabi_drsub                                     /usr/local/Cellar/arm-gcc-bin@8/8-2019-q3-update/bin/../lib/gcc/arm-none-eabi/8.3.1/thumb/v7e-m+fp/hard/libgcc.a(_arm_addsubdf3.o)
__aeabi_dsub                                      /usr/local/Cellar/arm-gcc-bin@8/8-2019-q3-update/bin/../lib/gcc/arm-none-eabi/8.3.1/thumb/v7e-m+fp/hard/libgcc.a(_arm_addsubdf3.o)
__aeabi_f2d                                       /usr/local/Cellar/arm-gcc-bin@8/8-2019-q3-update/bin/../lib/gcc/arm-none-eabi/8.3.1/thumb/v7e-m+fp/hard/libgcc.a(_arm_addsubdf3.o)
__aeabi_i2d                                       /usr/local/Cellar/arm-gcc-bin@8/8-2019-q3-update/bin/../lib/gcc/arm-none-eabi/8.3.1/thumb/v7e-m+fp/hard/libgcc.a(_arm_addsubdf3.o)
                                                  .build/obj_massdrop_ctrl_greyasteroid/protocol/arm_atsam/usb/usb2422.o
                                                  .build/obj_massdrop_ctrl_greyasteroid/protocol/arm_atsam/main_arm_atsam.o
__aeabi_idiv0                                     /usr/local/Cellar/arm-gcc-bin@8/8-2019-q3-update/bin/../lib/gcc/arm-none-eabi/8.3.1/thumb/v7e-m+fp/hard/libgcc.a(_dvmd_tls.o)
__aeabi_l2d                                       /usr/local/Cellar/arm-gcc-bin@8/8-2019-q3-update/bin/../lib/gcc/arm-none-eabi/8.3.1/thumb/v7e-m+fp/hard/libgcc.a(_arm_addsubdf3.o)
__aeabi_ldiv0                                     /usr/local/Cellar/arm-gcc-bin@8/8-2019-q3-update/bin/../lib/gcc/arm-none-eabi/8.3.1/thumb/v7e-m+fp/hard/libgcc.a(_dvmd_tls.o)
                                                  /usr/local/Cellar/arm-gcc-bin@8/8-2019-q3-update/bin/../lib/gcc/arm-none-eabi/8.3.1/thumb/v7e-m+fp/hard/libgcc.a(_aeabi_uldivmod.o)
                                                  /usr/local/Cellar/arm-gcc-bin@8/8-2019-q3-update/bin/../lib/gcc/arm-none-eabi/8.3.1/thumb/v7e-m+fp/hard/libgcc.a(_aeabi_ldivmod.o)
__aeabi_ldivmod                                   /usr/local/Cellar/arm-gcc-bin@8/8-2019-q3-update/bin/../lib/gcc/arm-none-eabi/8.3.1/thumb/v7e-m+fp/hard/libgcc.a(_aeabi_ldivmod.o)
                                                  .build/obj_massdrop_ctrl_greyasteroid/protocol/arm_atsam/usb/usb_util.o
__aeabi_ui2d                                      /usr/local/Cellar/arm-gcc-bin@8/8-2019-q3-update/bin/../lib/gcc/arm-none-eabi/8.3.1/thumb/v7e-m+fp/hard/libgcc.a(_arm_addsubdf3.o)
__aeabi_ul2d                                      /usr/local/Cellar/arm-gcc-bin@8/8-2019-q3-update/bin/../lib/gcc/arm-none-eabi/8.3.1/thumb/v7e-m+fp/hard/libgcc.a(_arm_addsubdf3.o)
__aeabi_uldivmod                                  /usr/local/Cellar/arm-gcc-bin@8/8-2019-q3-update/bin/../lib/gcc/arm-none-eabi/8.3.1/thumb/v7e-m+fp/hard/libgcc.a(_aeabi_uldivmod.o)
                                                  .build/obj_massdrop_ctrl_greyasteroid/protocol/arm_atsam/usb/usb2422.o
__atexit_recursive_mutex                          /usr/local/Cellar/arm-gcc-bin@8/8-2019-q3-update/bin/../lib/gcc/arm-none-eabi/8.3.1/../../../../arm-none-eabi/lib/thumb/v7e-m+fp/hard/libg.a(lib_a-__call_atexit.o)
                                                  /usr/local/Cellar/arm-gcc-bin@8/8-2019-q3-update/bin/../lib/gcc/arm-none-eabi/8.3.1/../../../../arm-none-eabi/lib/thumb/v7e-m+fp/hard/libg.a(lib_a-__atexit.o)
__bss_end__                                       /usr/local/Cellar/arm-gcc-bin@8/8-2019-q3-update/bin/../lib/gcc/arm-none-eabi/8.3.1/../../../../arm-none-eabi/lib/thumb/v7e-m+fp/hard/rdimon-crt0.o
__bss_start__                                     /usr/local/Cellar/arm-gcc-bin@8/8-2019-q3-update/bin/../lib/gcc/arm-none-eabi/8.3.1/../../../../arm-none-eabi/lib/thumb/v7e-m+fp/hard/rdimon-crt0.o
__call_exitprocs                                  /usr/local/Cellar/arm-gcc-bin@8/8-2019-q3-update/bin/../lib/gcc/arm-none-eabi/8.3.1/../../../../arm-none-eabi/lib/thumb/v7e-m+fp/hard/libg.a(lib_a-__call_atexit.o)
                                                  /usr/local/Cellar/arm-gcc-bin@8/8-2019-q3-update/bin/../lib/gcc/arm-none-eabi/8.3.1/../../../../arm-none-eabi/lib/thumb/v7e-m+fp/hard/libg.a(lib_a-exit.o)
__deregister_frame_info                           /usr/local/Cellar/arm-gcc-bin@8/8-2019-q3-update/bin/../lib/gcc/arm-none-eabi/8.3.1/thumb/v7e-m+fp/hard/crtbegin.o
__divdf3                                          /usr/local/Cellar/arm-gcc-bin@8/8-2019-q3-update/bin/../lib/gcc/arm-none-eabi/8.3.1/thumb/v7e-m+fp/hard/libgcc.a(_arm_muldivdf3.o)
__dso_handle                                      /usr/local/Cellar/arm-gcc-bin@8/8-2019-q3-update/bin/../lib/gcc/arm-none-eabi/8.3.1/thumb/v7e-m+fp/hard/crtbegin.o
__end__                                           /usr/local/Cellar/arm-gcc-bin@8/8-2019-q3-update/bin/../lib/gcc/arm-none-eabi/8.3.1/../../../../arm-none-eabi/lib/thumb/v7e-m+fp/hard/rdimon-crt0.o
__errno                                           /usr/local/Cellar/arm-gcc-bin@8/8-2019-q3-update/bin/../lib/gcc/arm-none-eabi/8.3.1/../../../../arm-none-eabi/lib/thumb/v7e-m+fp/hard/libc.a(lib_a-errno.o)
                                                  /usr/local/Cellar/arm-gcc-bin@8/8-2019-q3-update/bin/../lib/gcc/arm-none-eabi/8.3.1/../../../../arm-none-eabi/lib/thumb/v7e-m+fp/hard/librdimon.a(rdimon-syscalls.o)
__extendsfdf2                                     /usr/local/Cellar/arm-gcc-bin@8/8-2019-q3-update/bin/../lib/gcc/arm-none-eabi/8.3.1/thumb/v7e-m+fp/hard/libgcc.a(_arm_addsubdf3.o)
__fini_array_end                                  /usr/local/Cellar/arm-gcc-bin@8/8-2019-q3-update/bin/../lib/gcc/arm-none-eabi/8.3.1/../../../../arm-none-eabi/lib/thumb/v7e-m+fp/hard/libg.a(lib_a-fini.o)
__fini_array_start                                /usr/local/Cellar/arm-gcc-bin@8/8-2019-q3-update/bin/../lib/gcc/arm-none-eabi/8.3.1/../../../../arm-none-eabi/lib/thumb/v7e-m+fp/hard/libg.a(lib_a-fini.o)
__fixunsdfsi                                      /usr/local/Cellar/arm-gcc-bin@8/8-2019-q3-update/bin/../lib/gcc/arm-none-eabi/8.3.1/thumb/v7e-m+fp/hard/libgcc.a(_arm_fixunsdfsi.o)
__floatdidf                                       /usr/local/Cellar/arm-gcc-bin@8/8-2019-q3-update/bin/../lib/gcc/arm-none-eabi/8.3.1/thumb/v7e-m+fp/hard/libgcc.a(_arm_addsubdf3.o)
__floatsidf                                       /usr/local/Cellar/arm-gcc-bin@8/8-2019-q3-update/bin/../lib/gcc/arm-none-eabi/8.3.1/thumb/v7e-m+fp/hard/libgcc.a(_arm_addsubdf3.o)
__floatundidf                                     /usr/local/Cellar/arm-gcc-bin@8/8-2019-q3-update/bin/../lib/gcc/arm-none-eabi/8.3.1/thumb/v7e-m+fp/hard/libgcc.a(_arm_addsubdf3.o)
__floatunsidf                                     /usr/local/Cellar/arm-gcc-bin@8/8-2019-q3-update/bin/../lib/gcc/arm-none-eabi/8.3.1/thumb/v7e-m+fp/hard/libgcc.a(_arm_addsubdf3.o)
__fp_lock_all                                     /usr/local/Cellar/arm-gcc-bin@8/8-2019-q3-update/bin/../lib/gcc/arm-none-eabi/8.3.1/../../../../arm-none-eabi/lib/thumb/v7e-m+fp/hard/libc.a(lib_a-findfp.o)
__fp_unlock_all                                   /usr/local/Cellar/arm-gcc-bin@8/8-2019-q3-update/bin/../lib/gcc/arm-none-eabi/8.3.1/../../../../arm-none-eabi/lib/thumb/v7e-m+fp/hard/libc.a(lib_a-findfp.o)
__heap_limit                                      /usr/local/Cellar/arm-gcc-bin@8/8-2019-q3-update/bin/../lib/gcc/arm-none-eabi/8.3.1/../../../../arm-none-eabi/lib/thumb/v7e-m+fp/hard/librdimon.a(rdimon-syscalls.o)
                                                  /usr/local/Cellar/arm-gcc-bin@8/8-2019-q3-update/bin/../lib/gcc/arm-none-eabi/8.3.1/../../../../arm-none-eabi/lib/thumb/v7e-m+fp/hard/rdimon-crt0.o
__init_array_end                                  /usr/local/Cellar/arm-gcc-bin@8/8-2019-q3-update/bin/../lib/gcc/arm-none-eabi/8.3.1/../../../../arm-none-eabi/lib/thumb/v7e-m+fp/hard/libg.a(lib_a-init.o)
__init_array_start                                /usr/local/Cellar/arm-gcc-bin@8/8-2019-q3-update/bin/../lib/gcc/arm-none-eabi/8.3.1/../../../../arm-none-eabi/lib/thumb/v7e-m+fp/hard/libg.a(lib_a-init.o)
__libc_fini                                       /usr/local/Cellar/arm-gcc-bin@8/8-2019-q3-update/bin/../lib/gcc/arm-none-eabi/8.3.1/../../../../arm-none-eabi/lib/thumb/v7e-m+fp/hard/libg.a(lib_a-__call_atexit.o)
__libc_fini_array                                 /usr/local/Cellar/arm-gcc-bin@8/8-2019-q3-update/bin/../lib/gcc/arm-none-eabi/8.3.1/../../../../arm-none-eabi/lib/thumb/v7e-m+fp/hard/libg.a(lib_a-fini.o)
                                                  /usr/local/Cellar/arm-gcc-bin@8/8-2019-q3-update/bin/../lib/gcc/arm-none-eabi/8.3.1/../../../../arm-none-eabi/lib/thumb/v7e-m+fp/hard/libg.a(lib_a-__call_atexit.o)
                                                  /usr/local/Cellar/arm-gcc-bin@8/8-2019-q3-update/bin/../lib/gcc/arm-none-eabi/8.3.1/../../../../arm-none-eabi/lib/thumb/v7e-m+fp/hard/rdimon-crt0.o
__libc_init_array                                 /usr/local/Cellar/arm-gcc-bin@8/8-2019-q3-update/bin/../lib/gcc/arm-none-eabi/8.3.1/../../../../arm-none-eabi/lib/thumb/v7e-m+fp/hard/libg.a(lib_a-init.o)
                                                  .build/obj_massdrop_ctrl_greyasteroid/protocol/arm_atsam/startup.o
                                                  /usr/local/Cellar/arm-gcc-bin@8/8-2019-q3-update/bin/../lib/gcc/arm-none-eabi/8.3.1/../../../../arm-none-eabi/lib/thumb/v7e-m+fp/hard/rdimon-crt0.o
__lock___arc4random_mutex                         /usr/local/Cellar/arm-gcc-bin@8/8-2019-q3-update/bin/../lib/gcc/arm-none-eabi/8.3.1/../../../../arm-none-eabi/lib/thumb/v7e-m+fp/hard/libg.a(lib_a-lock.o)
__lock___at_quick_exit_mutex                      /usr/local/Cellar/arm-gcc-bin@8/8-2019-q3-update/bin/../lib/gcc/arm-none-eabi/8.3.1/../../../../arm-none-eabi/lib/thumb/v7e-m+fp/hard/libg.a(lib_a-lock.o)
__lock___atexit_recursive_mutex                   /usr/local/Cellar/arm-gcc-bin@8/8-2019-q3-update/bin/../lib/gcc/arm-none-eabi/8.3.1/../../../../arm-none-eabi/lib/thumb/v7e-m+fp/hard/libg.a(lib_a-lock.o)
                                                  /usr/local/Cellar/arm-gcc-bin@8/8-2019-q3-update/bin/../lib/gcc/arm-none-eabi/8.3.1/../../../../arm-none-eabi/lib/thumb/v7e-m+fp/hard/libg.a(lib_a-__call_atexit.o)
__lock___dd_hash_mutex                            /usr/local/Cellar/arm-gcc-bin@8/8-2019-q3-update/bin/../lib/gcc/arm-none-eabi/8.3.1/../../../../arm-none-eabi/lib/thumb/v7e-m+fp/hard/libg.a(lib_a-lock.o)
__lock___env_recursive_mutex                      /usr/local/Cellar/arm-gcc-bin@8/8-2019-q3-update/bin/../lib/gcc/arm-none-eabi/8.3.1/../../../../arm-none-eabi/lib/thumb/v7e-m+fp/hard/libg.a(lib_a-lock.o)
__lock___malloc_recursive_mutex                   /usr/local/Cellar/arm-gcc-bin@8/8-2019-q3-update/bin/../lib/gcc/arm-none-eabi/8.3.1/../../../../arm-none-eabi/lib/thumb/v7e-m+fp/hard/libg.a(lib_a-lock.o)
                                                  /usr/local/Cellar/arm-gcc-bin@8/8-2019-q3-update/bin/../lib/gcc/arm-none-eabi/8.3.1/../../../../arm-none-eabi/lib/thumb/v7e-m+fp/hard/libc.a(lib_a-mlock.o)
__lock___sfp_recursive_mutex                      /usr/local/Cellar/arm-gcc-bin@8/8-2019-q3-update/bin/../lib/gcc/arm-none-eabi/8.3.1/../../../../arm-none-eabi/lib/thumb/v7e-m+fp/hard/libg.a(lib_a-lock.o)
                                                  /usr/local/Cellar/arm-gcc-bin@8/8-2019-q3-update/bin/../lib/gcc/arm-none-eabi/8.3.1/../../../../arm-none-eabi/lib/thumb/v7e-m+fp/hard/libc.a(lib_a-findfp.o)
__lock___sinit_recursive_mutex                    /usr/local/Cellar/arm-gcc-bin@8/8-2019-q3-update/bin/../lib/gcc/arm-none-eabi/8.3.1/../../../../arm-none-eabi/lib/thumb/v7e-m+fp/hard/libg.a(lib_a-lock.o)
                                                  /usr/local/Cellar/arm-gcc-bin@8/8-2019-q3-update/bin/../lib/gcc/arm-none-eabi/8.3.1/../../../../arm-none-eabi/lib/thumb/v7e-m+fp/hard/libc.a(lib_a-findfp.o)
__lock___tz_mutex                                 /usr/local/Cellar/arm-gcc-bin@8/8-2019-q3-update/bin/../lib/gcc/arm-none-eabi/8.3.1/../../../../arm-none-eabi/lib/thumb/v7e-m+fp/hard/libg.a(lib_a-lock.o)
__malloc_av_                                      /usr/local/Cellar/arm-gcc-bin@8/8-2019-q3-update/bin/../lib/gcc/arm-none-eabi/8.3.1/../../../../arm-none-eabi/lib/thumb/v7e-m+fp/hard/libc.a(lib_a-mallocr.o)
                                                  /usr/local/Cellar/arm-gcc-bin@8/8-2019-q3-update/bin/../lib/gcc/arm-none-eabi/8.3.1/../../../../arm-none-eabi/lib/thumb/v7e-m+fp/hard/libc.a(lib_a-freer.o)
__malloc_current_mallinfo                         /usr/local/Cellar/arm-gcc-bin@8/8-2019-q3-update/bin/../lib/gcc/arm-none-eabi/8.3.1/../../../../arm-none-eabi/lib/thumb/v7e-m+fp/hard/libc.a(lib_a-mallocr.o)
                                                  /usr/local/Cellar/arm-gcc-bin@8/8-2019-q3-update/bin/../lib/gcc/arm-none-eabi/8.3.1/../../../../arm-none-eabi/lib/thumb/v7e-m+fp/hard/libc.a(lib_a-freer.o)
__malloc_lock                                     /usr/local/Cellar/arm-gcc-bin@8/8-2019-q3-update/bin/../lib/gcc/arm-none-eabi/8.3.1/../../../../arm-none-eabi/lib/thumb/v7e-m+fp/hard/libc.a(lib_a-mlock.o)
                                                  /usr/local/Cellar/arm-gcc-bin@8/8-2019-q3-update/bin/../lib/gcc/arm-none-eabi/8.3.1/../../../../arm-none-eabi/lib/thumb/v7e-m+fp/hard/libc.a(lib_a-freer.o)
                                                  /usr/local/Cellar/arm-gcc-bin@8/8-2019-q3-update/bin/../lib/gcc/arm-none-eabi/8.3.1/../../../../arm-none-eabi/lib/thumb/v7e-m+fp/hard/libc.a(lib_a-mallocr.o)
__malloc_max_sbrked_mem                           /usr/local/Cellar/arm-gcc-bin@8/8-2019-q3-update/bin/../lib/gcc/arm-none-eabi/8.3.1/../../../../arm-none-eabi/lib/thumb/v7e-m+fp/hard/libc.a(lib_a-mallocr.o)
__malloc_max_total_mem                            /usr/local/Cellar/arm-gcc-bin@8/8-2019-q3-update/bin/../lib/gcc/arm-none-eabi/8.3.1/../../../../arm-none-eabi/lib/thumb/v7e-m+fp/hard/libc.a(lib_a-mallocr.o)
__malloc_sbrk_base                                /usr/local/Cellar/arm-gcc-bin@8/8-2019-q3-update/bin/../lib/gcc/arm-none-eabi/8.3.1/../../../../arm-none-eabi/lib/thumb/v7e-m+fp/hard/libc.a(lib_a-mallocr.o)
                                                  /usr/local/Cellar/arm-gcc-bin@8/8-2019-q3-update/bin/../lib/gcc/arm-none-eabi/8.3.1/../../../../arm-none-eabi/lib/thumb/v7e-m+fp/hard/libc.a(lib_a-freer.o)
__malloc_top_pad                                  /usr/local/Cellar/arm-gcc-bin@8/8-2019-q3-update/bin/../lib/gcc/arm-none-eabi/8.3.1/../../../../arm-none-eabi/lib/thumb/v7e-m+fp/hard/libc.a(lib_a-mallocr.o)
                                                  /usr/local/Cellar/arm-gcc-bin@8/8-2019-q3-update/bin/../lib/gcc/arm-none-eabi/8.3.1/../../../../arm-none-eabi/lib/thumb/v7e-m+fp/hard/libc.a(lib_a-freer.o)
__malloc_trim_threshold                           /usr/local/Cellar/arm-gcc-bin@8/8-2019-q3-update/bin/../lib/gcc/arm-none-eabi/8.3.1/../../../../arm-none-eabi/lib/thumb/v7e-m+fp/hard/libc.a(lib_a-mallocr.o)
                                                  /usr/local/Cellar/arm-gcc-bin@8/8-2019-q3-update/bin/../lib/gcc/arm-none-eabi/8.3.1/../../../../arm-none-eabi/lib/thumb/v7e-m+fp/hard/libc.a(lib_a-freer.o)
__malloc_unlock                                   /usr/local/Cellar/arm-gcc-bin@8/8-2019-q3-update/bin/../lib/gcc/arm-none-eabi/8.3.1/../../../../arm-none-eabi/lib/thumb/v7e-m+fp/hard/libc.a(lib_a-mlock.o)
                                                  /usr/local/Cellar/arm-gcc-bin@8/8-2019-q3-update/bin/../lib/gcc/arm-none-eabi/8.3.1/../../../../arm-none-eabi/lib/thumb/v7e-m+fp/hard/libc.a(lib_a-freer.o)
                                                  /usr/local/Cellar/arm-gcc-bin@8/8-2019-q3-update/bin/../lib/gcc/arm-none-eabi/8.3.1/../../../../arm-none-eabi/lib/thumb/v7e-m+fp/hard/libc.a(lib_a-mallocr.o)
__muldf3                                          /usr/local/Cellar/arm-gcc-bin@8/8-2019-q3-update/bin/../lib/gcc/arm-none-eabi/8.3.1/thumb/v7e-m+fp/hard/libgcc.a(_arm_muldivdf3.o)
__preinit_array_end                               /usr/local/Cellar/arm-gcc-bin@8/8-2019-q3-update/bin/../lib/gcc/arm-none-eabi/8.3.1/../../../../arm-none-eabi/lib/thumb/v7e-m+fp/hard/libg.a(lib_a-init.o)
__preinit_array_start                             /usr/local/Cellar/arm-gcc-bin@8/8-2019-q3-update/bin/../lib/gcc/arm-none-eabi/8.3.1/../../../../arm-none-eabi/lib/thumb/v7e-m+fp/hard/libg.a(lib_a-init.o)
__register_exitproc                               /usr/local/Cellar/arm-gcc-bin@8/8-2019-q3-update/bin/../lib/gcc/arm-none-eabi/8.3.1/../../../../arm-none-eabi/lib/thumb/v7e-m+fp/hard/libg.a(lib_a-__atexit.o)
                                                  /usr/local/Cellar/arm-gcc-bin@8/8-2019-q3-update/bin/../lib/gcc/arm-none-eabi/8.3.1/../../../../arm-none-eabi/lib/thumb/v7e-m+fp/hard/libg.a(lib_a-atexit.o)
__register_frame_info                             /usr/local/Cellar/arm-gcc-bin@8/8-2019-q3-update/bin/../lib/gcc/arm-none-eabi/8.3.1/thumb/v7e-m+fp/hard/crtbegin.o
__retarget_lock_acquire                           /usr/local/Cellar/arm-gcc-bin@8/8-2019-q3-update/bin/../lib/gcc/arm-none-eabi/8.3.1/../../../../arm-none-eabi/lib/thumb/v7e-m+fp/hard/libg.a(lib_a-lock.o)
__retarget_lock_acquire_recursive                 /usr/local/Cellar/arm-gcc-bin@8/8-2019-q3-update/bin/../lib/gcc/arm-none-eabi/8.3.1/../../../../arm-none-eabi/lib/thumb/v7e-m+fp/hard/libg.a(lib_a-lock.o)
                                                  /usr/local/Cellar/arm-gcc-bin@8/8-2019-q3-update/bin/../lib/gcc/arm-none-eabi/8.3.1/../../../../arm-none-eabi/lib/thumb/v7e-m+fp/hard/libc.a(lib_a-fflush.o)
                                                  /usr/local/Cellar/arm-gcc-bin@8/8-2019-q3-update/bin/../lib/gcc/arm-none-eabi/8.3.1/../../../../arm-none-eabi/lib/thumb/v7e-m+fp/hard/libc.a(lib_a-fclose.o)
                                                  /usr/local/Cellar/arm-gcc-bin@8/8-2019-q3-update/bin/../lib/gcc/arm-none-eabi/8.3.1/../../../../arm-none-eabi/lib/thumb/v7e-m+fp/hard/libc.a(lib_a-mlock.o)
                                                  /usr/local/Cellar/arm-gcc-bin@8/8-2019-q3-update/bin/../lib/gcc/arm-none-eabi/8.3.1/../../../../arm-none-eabi/lib/thumb/v7e-m+fp/hard/libc.a(lib_a-findfp.o)
                                                  /usr/local/Cellar/arm-gcc-bin@8/8-2019-q3-update/bin/../lib/gcc/arm-none-eabi/8.3.1/../../../../arm-none-eabi/lib/thumb/v7e-m+fp/hard/libg.a(lib_a-__atexit.o)
                                                  /usr/local/Cellar/arm-gcc-bin@8/8-2019-q3-update/bin/../lib/gcc/arm-none-eabi/8.3.1/../../../../arm-none-eabi/lib/thumb/v7e-m+fp/hard/libg.a(lib_a-__call_atexit.o)
__retarget_lock_close                             /usr/local/Cellar/arm-gcc-bin@8/8-2019-q3-update/bin/../lib/gcc/arm-none-eabi/8.3.1/../../../../arm-none-eabi/lib/thumb/v7e-m+fp/hard/libg.a(lib_a-lock.o)
__retarget_lock_close_recursive                   /usr/local/Cellar/arm-gcc-bin@8/8-2019-q3-update/bin/../lib/gcc/arm-none-eabi/8.3.1/../../../../arm-none-eabi/lib/thumb/v7e-m+fp/hard/libg.a(lib_a-lock.o)
                                                  /usr/local/Cellar/arm-gcc-bin@8/8-2019-q3-update/bin/../lib/gcc/arm-none-eabi/8.3.1/../../../../arm-none-eabi/lib/thumb/v7e-m+fp/hard/libc.a(lib_a-fclose.o)
__retarget_lock_init                              /usr/local/Cellar/arm-gcc-bin@8/8-2019-q3-update/bin/../lib/gcc/arm-none-eabi/8.3.1/../../../../arm-none-eabi/lib/thumb/v7e-m+fp/hard/libg.a(lib_a-lock.o)
__retarget_lock_init_recursive                    /usr/local/Cellar/arm-gcc-bin@8/8-2019-q3-update/bin/../lib/gcc/arm-none-eabi/8.3.1/../../../../arm-none-eabi/lib/thumb/v7e-m+fp/hard/libg.a(lib_a-lock.o)
                                                  /usr/local/Cellar/arm-gcc-bin@8/8-2019-q3-update/bin/../lib/gcc/arm-none-eabi/8.3.1/../../../../arm-none-eabi/lib/thumb/v7e-m+fp/hard/libc.a(lib_a-findfp.o)
__retarget_lock_release                           /usr/local/Cellar/arm-gcc-bin@8/8-2019-q3-update/bin/../lib/gcc/arm-none-eabi/8.3.1/../../../../arm-none-eabi/lib/thumb/v7e-m+fp/hard/libg.a(lib_a-lock.o)
__retarget_lock_release_recursive                 /usr/local/Cellar/arm-gcc-bin@8/8-2019-q3-update/bin/../lib/gcc/arm-none-eabi/8.3.1/../../../../arm-none-eabi/lib/thumb/v7e-m+fp/hard/libg.a(lib_a-lock.o)
                                                  /usr/local/Cellar/arm-gcc-bin@8/8-2019-q3-update/bin/../lib/gcc/arm-none-eabi/8.3.1/../../../../arm-none-eabi/lib/thumb/v7e-m+fp/hard/libc.a(lib_a-fflush.o)
                                                  /usr/local/Cellar/arm-gcc-bin@8/8-2019-q3-update/bin/../lib/gcc/arm-none-eabi/8.3.1/../../../../arm-none-eabi/lib/thumb/v7e-m+fp/hard/libc.a(lib_a-fclose.o)
                                                  /usr/local/Cellar/arm-gcc-bin@8/8-2019-q3-update/bin/../lib/gcc/arm-none-eabi/8.3.1/../../../../arm-none-eabi/lib/thumb/v7e-m+fp/hard/libc.a(lib_a-mlock.o)
                                                  /usr/local/Cellar/arm-gcc-bin@8/8-2019-q3-update/bin/../lib/gcc/arm-none-eabi/8.3.1/../../../../arm-none-eabi/lib/thumb/v7e-m+fp/hard/libc.a(lib_a-findfp.o)
                                                  /usr/local/Cellar/arm-gcc-bin@8/8-2019-q3-update/bin/../lib/gcc/arm-none-eabi/8.3.1/../../../../arm-none-eabi/lib/thumb/v7e-m+fp/hard/libg.a(lib_a-__atexit.o)
                                                  /usr/local/Cellar/arm-gcc-bin@8/8-2019-q3-update/bin/../lib/gcc/arm-none-eabi/8.3.1/../../../../arm-none-eabi/lib/thumb/v7e-m+fp/hard/libg.a(lib_a-__call_atexit.o)
__retarget_lock_try_acquire                       /usr/local/Cellar/arm-gcc-bin@8/8-2019-q3-update/bin/../lib/gcc/arm-none-eabi/8.3.1/../../../../arm-none-eabi/lib/thumb/v7e-m+fp/hard/libg.a(lib_a-lock.o)
__retarget_lock_try_acquire_recursive             /usr/local/Cellar/arm-gcc-bin@8/8-2019-q3-update/bin/../lib/gcc/arm-none-eabi/8.3.1/../../../../arm-none-eabi/lib/thumb/v7e-m+fp/hard/libg.a(lib_a-lock.o)
__sclose                                          /usr/local/Cellar/arm-gcc-bin@8/8-2019-q3-update/bin/../lib/gcc/arm-none-eabi/8.3.1/../../../../arm-none-eabi/lib/thumb/v7e-m+fp/hard/libc.a(lib_a-stdio.o)
                                                  /usr/local/Cellar/arm-gcc-bin@8/8-2019-q3-update/bin/../lib/gcc/arm-none-eabi/8.3.1/../../../../arm-none-eabi/lib/thumb/v7e-m+fp/hard/libc.a(lib_a-findfp.o)
__seofread                                        /usr/local/Cellar/arm-gcc-bin@8/8-2019-q3-update/bin/../lib/gcc/arm-none-eabi/8.3.1/../../../../arm-none-eabi/lib/thumb/v7e-m+fp/hard/libc.a(lib_a-stdio.o)
__sflush_r                                        /usr/local/Cellar/arm-gcc-bin@8/8-2019-q3-update/bin/../lib/gcc/arm-none-eabi/8.3.1/../../../../arm-none-eabi/lib/thumb/v7e-m+fp/hard/libc.a(lib_a-fflush.o)
                                                  /usr/local/Cellar/arm-gcc-bin@8/8-2019-q3-update/bin/../lib/gcc/arm-none-eabi/8.3.1/../../../../arm-none-eabi/lib/thumb/v7e-m+fp/hard/libc.a(lib_a-fclose.o)
__sfmoreglue                                      /usr/local/Cellar/arm-gcc-bin@8/8-2019-q3-update/bin/../lib/gcc/arm-none-eabi/8.3.1/../../../../arm-none-eabi/lib/thumb/v7e-m+fp/hard/libc.a(lib_a-findfp.o)
__sfp                                             /usr/local/Cellar/arm-gcc-bin@8/8-2019-q3-update/bin/../lib/gcc/arm-none-eabi/8.3.1/../../../../arm-none-eabi/lib/thumb/v7e-m+fp/hard/libc.a(lib_a-findfp.o)
__sfp_lock_acquire                                /usr/local/Cellar/arm-gcc-bin@8/8-2019-q3-update/bin/../lib/gcc/arm-none-eabi/8.3.1/../../../../arm-none-eabi/lib/thumb/v7e-m+fp/hard/libc.a(lib_a-findfp.o)
                                                  /usr/local/Cellar/arm-gcc-bin@8/8-2019-q3-update/bin/../lib/gcc/arm-none-eabi/8.3.1/../../../../arm-none-eabi/lib/thumb/v7e-m+fp/hard/libc.a(lib_a-fclose.o)
__sfp_lock_release                                /usr/local/Cellar/arm-gcc-bin@8/8-2019-q3-update/bin/../lib/gcc/arm-none-eabi/8.3.1/../../../../arm-none-eabi/lib/thumb/v7e-m+fp/hard/libc.a(lib_a-findfp.o)
                                                  /usr/local/Cellar/arm-gcc-bin@8/8-2019-q3-update/bin/../lib/gcc/arm-none-eabi/8.3.1/../../../../arm-none-eabi/lib/thumb/v7e-m+fp/hard/libc.a(lib_a-fclose.o)
__sinit                                           /usr/local/Cellar/arm-gcc-bin@8/8-2019-q3-update/bin/../lib/gcc/arm-none-eabi/8.3.1/../../../../arm-none-eabi/lib/thumb/v7e-m+fp/hard/libc.a(lib_a-findfp.o)
                                                  /usr/local/Cellar/arm-gcc-bin@8/8-2019-q3-update/bin/../lib/gcc/arm-none-eabi/8.3.1/../../../../arm-none-eabi/lib/thumb/v7e-m+fp/hard/libc.a(lib_a-fflush.o)
                                                  /usr/local/Cellar/arm-gcc-bin@8/8-2019-q3-update/bin/../lib/gcc/arm-none-eabi/8.3.1/../../../../arm-none-eabi/lib/thumb/v7e-m+fp/hard/libc.a(lib_a-fclose.o)
                                                  /usr/local/Cellar/arm-gcc-bin@8/8-2019-q3-update/bin/../lib/gcc/arm-none-eabi/8.3.1/../../../../arm-none-eabi/lib/thumb/v7e-m+fp/hard/librdimon.a(rdimon-syscalls.o)
__sinit_lock_acquire                              /usr/local/Cellar/arm-gcc-bin@8/8-2019-q3-update/bin/../lib/gcc/arm-none-eabi/8.3.1/../../../../arm-none-eabi/lib/thumb/v7e-m+fp/hard/libc.a(lib_a-findfp.o)
__sinit_lock_release                              /usr/local/Cellar/arm-gcc-bin@8/8-2019-q3-update/bin/../lib/gcc/arm-none-eabi/8.3.1/../../../../arm-none-eabi/lib/thumb/v7e-m+fp/hard/libc.a(lib_a-findfp.o)
__sread                                           /usr/local/Cellar/arm-gcc-bin@8/8-2019-q3-update/bin/../lib/gcc/arm-none-eabi/8.3.1/../../../../arm-none-eabi/lib/thumb/v7e-m+fp/hard/libc.a(lib_a-stdio.o)
                                                  /usr/local/Cellar/arm-gcc-bin@8/8-2019-q3-update/bin/../lib/gcc/arm-none-eabi/8.3.1/../../../../arm-none-eabi/lib/thumb/v7e-m+fp/hard/libc.a(lib_a-findfp.o)
__sseek                                           /usr/local/Cellar/arm-gcc-bin@8/8-2019-q3-update/bin/../lib/gcc/arm-none-eabi/8.3.1/../../../../arm-none-eabi/lib/thumb/v7e-m+fp/hard/libc.a(lib_a-stdio.o)
                                                  /usr/local/Cellar/arm-gcc-bin@8/8-2019-q3-update/bin/../lib/gcc/arm-none-eabi/8.3.1/../../../../arm-none-eabi/lib/thumb/v7e-m+fp/hard/libc.a(lib_a-findfp.o)
__stack_base__                                    /usr/local/Cellar/arm-gcc-bin@8/8-2019-q3-update/bin/../lib/gcc/arm-none-eabi/8.3.1/../../../../arm-none-eabi/lib/thumb/v7e-m+fp/hard/rdimon-crt0.o
__subdf3                                          /usr/local/Cellar/arm-gcc-bin@8/8-2019-q3-update/bin/../lib/gcc/arm-none-eabi/8.3.1/thumb/v7e-m+fp/hard/libgcc.a(_arm_addsubdf3.o)
__swrite                                          /usr/local/Cellar/arm-gcc-bin@8/8-2019-q3-update/bin/../lib/gcc/arm-none-eabi/8.3.1/../../../../arm-none-eabi/lib/thumb/v7e-m+fp/hard/libc.a(lib_a-stdio.o)
                                                  /usr/local/Cellar/arm-gcc-bin@8/8-2019-q3-update/bin/../lib/gcc/arm-none-eabi/8.3.1/../../../../arm-none-eabi/lib/thumb/v7e-m+fp/hard/libc.a(lib_a-findfp.o)
__udivmoddi4                                      /usr/local/Cellar/arm-gcc-bin@8/8-2019-q3-update/bin/../lib/gcc/arm-none-eabi/8.3.1/thumb/v7e-m+fp/hard/libgcc.a(_udivmoddi4.o)
                                                  /usr/local/Cellar/arm-gcc-bin@8/8-2019-q3-update/bin/../lib/gcc/arm-none-eabi/8.3.1/thumb/v7e-m+fp/hard/libgcc.a(_aeabi_uldivmod.o)
                                                  /usr/local/Cellar/arm-gcc-bin@8/8-2019-q3-update/bin/../lib/gcc/arm-none-eabi/8.3.1/thumb/v7e-m+fp/hard/libgcc.a(_aeabi_ldivmod.o)
_cleanup                                          /usr/local/Cellar/arm-gcc-bin@8/8-2019-q3-update/bin/../lib/gcc/arm-none-eabi/8.3.1/../../../../arm-none-eabi/lib/thumb/v7e-m+fp/hard/libc.a(lib_a-findfp.o)
_cleanup_r                                        /usr/local/Cellar/arm-gcc-bin@8/8-2019-q3-update/bin/../lib/gcc/arm-none-eabi/8.3.1/../../../../arm-none-eabi/lib/thumb/v7e-m+fp/hard/libc.a(lib_a-findfp.o)
_clock                                            /usr/local/Cellar/arm-gcc-bin@8/8-2019-q3-update/bin/../lib/gcc/arm-none-eabi/8.3.1/../../../../arm-none-eabi/lib/thumb/v7e-m+fp/hard/librdimon.a(rdimon-syscalls.o)
_close                                            /usr/local/Cellar/arm-gcc-bin@8/8-2019-q3-update/bin/../lib/gcc/arm-none-eabi/8.3.1/../../../../arm-none-eabi/lib/thumb/v7e-m+fp/hard/librdimon.a(rdimon-syscalls.o)
                                                  /usr/local/Cellar/arm-gcc-bin@8/8-2019-q3-update/bin/../lib/gcc/arm-none-eabi/8.3.1/../../../../arm-none-eabi/lib/thumb/v7e-m+fp/hard/libc.a(lib_a-closer.o)
_close_r                                          /usr/local/Cellar/arm-gcc-bin@8/8-2019-q3-update/bin/../lib/gcc/arm-none-eabi/8.3.1/../../../../arm-none-eabi/lib/thumb/v7e-m+fp/hard/libc.a(lib_a-closer.o)
                                                  /usr/local/Cellar/arm-gcc-bin@8/8-2019-q3-update/bin/../lib/gcc/arm-none-eabi/8.3.1/../../../../arm-none-eabi/lib/thumb/v7e-m+fp/hard/libc.a(lib_a-stdio.o)
_ctype_                                           /usr/local/Cellar/arm-gcc-bin@8/8-2019-q3-update/bin/../lib/gcc/arm-none-eabi/8.3.1/../../../../arm-none-eabi/lib/thumb/v7e-m+fp/hard/libg.a(lib_a-ctype_.o)
                                                  .build/obj_massdrop_ctrl_greyasteroid/quantum/quantum.o
_eram                                             .build/obj_massdrop_ctrl_greyasteroid/protocol/arm_atsam/startup.o
                                                  .build/obj_massdrop_ctrl_greyasteroid/common/arm_atsam/bootloader.o
_erelocate                                        .build/obj_massdrop_ctrl_greyasteroid/protocol/arm_atsam/startup.o
_estack                                           .build/obj_massdrop_ctrl_greyasteroid/protocol/arm_atsam/startup.o
_etext                                            .build/obj_massdrop_ctrl_greyasteroid/protocol/arm_atsam/startup.o
_exit                                             /usr/local/Cellar/arm-gcc-bin@8/8-2019-q3-update/bin/../lib/gcc/arm-none-eabi/8.3.1/../../../../arm-none-eabi/lib/thumb/v7e-m+fp/hard/librdimon.a(rdimon-_exit.o)
                                                  /usr/local/Cellar/arm-gcc-bin@8/8-2019-q3-update/bin/../lib/gcc/arm-none-eabi/8.3.1/../../../../arm-none-eabi/lib/thumb/v7e-m+fp/hard/libg.a(lib_a-exit.o)
_ezero                                            .build/obj_massdrop_ctrl_greyasteroid/protocol/arm_atsam/startup.o
_fclose_r                                         /usr/local/Cellar/arm-gcc-bin@8/8-2019-q3-update/bin/../lib/gcc/arm-none-eabi/8.3.1/../../../../arm-none-eabi/lib/thumb/v7e-m+fp/hard/libc.a(lib_a-fclose.o)
                                                  /usr/local/Cellar/arm-gcc-bin@8/8-2019-q3-update/bin/../lib/gcc/arm-none-eabi/8.3.1/../../../../arm-none-eabi/lib/thumb/v7e-m+fp/hard/libc.a(lib_a-findfp.o)
_fflush_r                                         /usr/local/Cellar/arm-gcc-bin@8/8-2019-q3-update/bin/../lib/gcc/arm-none-eabi/8.3.1/../../../../arm-none-eabi/lib/thumb/v7e-m+fp/hard/libc.a(lib_a-fflush.o)
_fini                                             /usr/local/Cellar/arm-gcc-bin@8/8-2019-q3-update/bin/../lib/gcc/arm-none-eabi/8.3.1/thumb/v7e-m+fp/hard/crti.o
                                                  /usr/local/Cellar/arm-gcc-bin@8/8-2019-q3-update/bin/../lib/gcc/arm-none-eabi/8.3.1/../../../../arm-none-eabi/lib/thumb/v7e-m+fp/hard/libg.a(lib_a-fini.o)
_free_r                                           /usr/local/Cellar/arm-gcc-bin@8/8-2019-q3-update/bin/../lib/gcc/arm-none-eabi/8.3.1/../../../../arm-none-eabi/lib/thumb/v7e-m+fp/hard/libc.a(lib_a-freer.o)
                                                  /usr/local/Cellar/arm-gcc-bin@8/8-2019-q3-update/bin/../lib/gcc/arm-none-eabi/8.3.1/../../../../arm-none-eabi/lib/thumb/v7e-m+fp/hard/libc.a(lib_a-reent.o)
                                                  /usr/local/Cellar/arm-gcc-bin@8/8-2019-q3-update/bin/../lib/gcc/arm-none-eabi/8.3.1/../../../../arm-none-eabi/lib/thumb/v7e-m+fp/hard/libc.a(lib_a-fflush.o)
                                                  /usr/local/Cellar/arm-gcc-bin@8/8-2019-q3-update/bin/../lib/gcc/arm-none-eabi/8.3.1/../../../../arm-none-eabi/lib/thumb/v7e-m+fp/hard/libc.a(lib_a-fclose.o)
                                                  /usr/local/Cellar/arm-gcc-bin@8/8-2019-q3-update/bin/../lib/gcc/arm-none-eabi/8.3.1/../../../../arm-none-eabi/lib/thumb/v7e-m+fp/hard/libc.a(lib_a-mallocr.o)
_fstat                                            /usr/local/Cellar/arm-gcc-bin@8/8-2019-q3-update/bin/../lib/gcc/arm-none-eabi/8.3.1/../../../../arm-none-eabi/lib/thumb/v7e-m+fp/hard/librdimon.a(rdimon-syscalls.o)
_fwalk                                            /usr/local/Cellar/arm-gcc-bin@8/8-2019-q3-update/bin/../lib/gcc/arm-none-eabi/8.3.1/../../../../arm-none-eabi/lib/thumb/v7e-m+fp/hard/libc.a(lib_a-fwalk.o)
                                                  /usr/local/Cellar/arm-gcc-bin@8/8-2019-q3-update/bin/../lib/gcc/arm-none-eabi/8.3.1/../../../../arm-none-eabi/lib/thumb/v7e-m+fp/hard/libc.a(lib_a-findfp.o)
_fwalk_reent                                      /usr/local/Cellar/arm-gcc-bin@8/8-2019-q3-update/bin/../lib/gcc/arm-none-eabi/8.3.1/../../../../arm-none-eabi/lib/thumb/v7e-m+fp/hard/libc.a(lib_a-fwalk.o)
                                                  /usr/local/Cellar/arm-gcc-bin@8/8-2019-q3-update/bin/../lib/gcc/arm-none-eabi/8.3.1/../../../../arm-none-eabi/lib/thumb/v7e-m+fp/hard/libc.a(lib_a-fflush.o)
                                                  /usr/local/Cellar/arm-gcc-bin@8/8-2019-q3-update/bin/../lib/gcc/arm-none-eabi/8.3.1/../../../../arm-none-eabi/lib/thumb/v7e-m+fp/hard/libc.a(lib_a-findfp.o)
_get_semihosting_exts                             /usr/local/Cellar/arm-gcc-bin@8/8-2019-q3-update/bin/../lib/gcc/arm-none-eabi/8.3.1/../../../../arm-none-eabi/lib/thumb/v7e-m+fp/hard/librdimon.a(rdimon-syscalls.o)
_getpid                                           /usr/local/Cellar/arm-gcc-bin@8/8-2019-q3-update/bin/../lib/gcc/arm-none-eabi/8.3.1/../../../../arm-none-eabi/lib/thumb/v7e-m+fp/hard/librdimon.a(rdimon-syscalls.o)
_gettimeofday                                     /usr/local/Cellar/arm-gcc-bin@8/8-2019-q3-update/bin/../lib/gcc/arm-none-eabi/8.3.1/../../../../arm-none-eabi/lib/thumb/v7e-m+fp/hard/librdimon.a(rdimon-syscalls.o)
_global_impure_ptr                                /usr/local/Cellar/arm-gcc-bin@8/8-2019-q3-update/bin/../lib/gcc/arm-none-eabi/8.3.1/../../../../arm-none-eabi/lib/thumb/v7e-m+fp/hard/libg.a(lib_a-impure.o)
                                                  /usr/local/Cellar/arm-gcc-bin@8/8-2019-q3-update/bin/../lib/gcc/arm-none-eabi/8.3.1/../../../../arm-none-eabi/lib/thumb/v7e-m+fp/hard/libc.a(lib_a-fflush.o)
                                                  /usr/local/Cellar/arm-gcc-bin@8/8-2019-q3-update/bin/../lib/gcc/arm-none-eabi/8.3.1/../../../../arm-none-eabi/lib/thumb/v7e-m+fp/hard/libc.a(lib_a-findfp.o)
                                                  /usr/local/Cellar/arm-gcc-bin@8/8-2019-q3-update/bin/../lib/gcc/arm-none-eabi/8.3.1/../../../../arm-none-eabi/lib/thumb/v7e-m+fp/hard/libg.a(lib_a-__atexit.o)
                                                  /usr/local/Cellar/arm-gcc-bin@8/8-2019-q3-update/bin/../lib/gcc/arm-none-eabi/8.3.1/../../../../arm-none-eabi/lib/thumb/v7e-m+fp/hard/libg.a(lib_a-__call_atexit.o)
                                                  /usr/local/Cellar/arm-gcc-bin@8/8-2019-q3-update/bin/../lib/gcc/arm-none-eabi/8.3.1/../../../../arm-none-eabi/lib/thumb/v7e-m+fp/hard/libg.a(lib_a-exit.o)
_has_ext_exit_extended                            /usr/local/Cellar/arm-gcc-bin@8/8-2019-q3-update/bin/../lib/gcc/arm-none-eabi/8.3.1/../../../../arm-none-eabi/lib/thumb/v7e-m+fp/hard/librdimon.a(rdimon-syscalls.o)
                                                  /usr/local/Cellar/arm-gcc-bin@8/8-2019-q3-update/bin/../lib/gcc/arm-none-eabi/8.3.1/../../../../arm-none-eabi/lib/thumb/v7e-m+fp/hard/librdimon.a(rdimon-_kill.o)
_has_ext_stdout_stderr                            /usr/local/Cellar/arm-gcc-bin@8/8-2019-q3-update/bin/../lib/gcc/arm-none-eabi/8.3.1/../../../../arm-none-eabi/lib/thumb/v7e-m+fp/hard/librdimon.a(rdimon-syscalls.o)
_impure_ptr                                       /usr/local/Cellar/arm-gcc-bin@8/8-2019-q3-update/bin/../lib/gcc/arm-none-eabi/8.3.1/../../../../arm-none-eabi/lib/thumb/v7e-m+fp/hard/libg.a(lib_a-impure.o)
                                                  /usr/local/Cellar/arm-gcc-bin@8/8-2019-q3-update/bin/../lib/gcc/arm-none-eabi/8.3.1/../../../../arm-none-eabi/lib/thumb/v7e-m+fp/hard/libc.a(lib_a-reent.o)
                                                  /usr/local/Cellar/arm-gcc-bin@8/8-2019-q3-update/bin/../lib/gcc/arm-none-eabi/8.3.1/../../../../arm-none-eabi/lib/thumb/v7e-m+fp/hard/libc.a(lib_a-fflush.o)
                                                  /usr/local/Cellar/arm-gcc-bin@8/8-2019-q3-update/bin/../lib/gcc/arm-none-eabi/8.3.1/../../../../arm-none-eabi/lib/thumb/v7e-m+fp/hard/libc.a(lib_a-fclose.o)
                                                  /usr/local/Cellar/arm-gcc-bin@8/8-2019-q3-update/bin/../lib/gcc/arm-none-eabi/8.3.1/../../../../arm-none-eabi/lib/thumb/v7e-m+fp/hard/libc.a(lib_a-findfp.o)
                                                  /usr/local/Cellar/arm-gcc-bin@8/8-2019-q3-update/bin/../lib/gcc/arm-none-eabi/8.3.1/../../../../arm-none-eabi/lib/thumb/v7e-m+fp/hard/libc.a(lib_a-errno.o)
                                                  /usr/local/Cellar/arm-gcc-bin@8/8-2019-q3-update/bin/../lib/gcc/arm-none-eabi/8.3.1/../../../../arm-none-eabi/lib/thumb/v7e-m+fp/hard/librdimon.a(rdimon-syscalls.o)
                                                  /usr/local/Cellar/arm-gcc-bin@8/8-2019-q3-update/bin/../lib/gcc/arm-none-eabi/8.3.1/../../../../arm-none-eabi/lib/thumb/v7e-m+fp/hard/libg.a(lib_a-rand.o)
_init                                             /usr/local/Cellar/arm-gcc-bin@8/8-2019-q3-update/bin/../lib/gcc/arm-none-eabi/8.3.1/thumb/v7e-m+fp/hard/crti.o
                                                  /usr/local/Cellar/arm-gcc-bin@8/8-2019-q3-update/bin/../lib/gcc/arm-none-eabi/8.3.1/../../../../arm-none-eabi/lib/thumb/v7e-m+fp/hard/libg.a(lib_a-init.o)
_isatty                                           /usr/local/Cellar/arm-gcc-bin@8/8-2019-q3-update/bin/../lib/gcc/arm-none-eabi/8.3.1/../../../../arm-none-eabi/lib/thumb/v7e-m+fp/hard/librdimon.a(rdimon-syscalls.o)
_kill                                             /usr/local/Cellar/arm-gcc-bin@8/8-2019-q3-update/bin/../lib/gcc/arm-none-eabi/8.3.1/../../../../arm-none-eabi/lib/thumb/v7e-m+fp/hard/librdimon.a(rdimon-_kill.o)
_kill_shared                                      /usr/local/Cellar/arm-gcc-bin@8/8-2019-q3-update/bin/../lib/gcc/arm-none-eabi/8.3.1/../../../../arm-none-eabi/lib/thumb/v7e-m+fp/hard/librdimon.a(rdimon-_kill.o)
                                                  /usr/local/Cellar/arm-gcc-bin@8/8-2019-q3-update/bin/../lib/gcc/arm-none-eabi/8.3.1/../../../../arm-none-eabi/lib/thumb/v7e-m+fp/hard/librdimon.a(rdimon-_exit.o)
_link                                             /usr/local/Cellar/arm-gcc-bin@8/8-2019-q3-update/bin/../lib/gcc/arm-none-eabi/8.3.1/../../../../arm-none-eabi/lib/thumb/v7e-m+fp/hard/librdimon.a(rdimon-syscalls.o)
_lseek                                            /usr/local/Cellar/arm-gcc-bin@8/8-2019-q3-update/bin/../lib/gcc/arm-none-eabi/8.3.1/../../../../arm-none-eabi/lib/thumb/v7e-m+fp/hard/librdimon.a(rdimon-syscalls.o)
                                                  /usr/local/Cellar/arm-gcc-bin@8/8-2019-q3-update/bin/../lib/gcc/arm-none-eabi/8.3.1/../../../../arm-none-eabi/lib/thumb/v7e-m+fp/hard/libc.a(lib_a-lseekr.o)
_lseek_r                                          /usr/local/Cellar/arm-gcc-bin@8/8-2019-q3-update/bin/../lib/gcc/arm-none-eabi/8.3.1/../../../../arm-none-eabi/lib/thumb/v7e-m+fp/hard/libc.a(lib_a-lseekr.o)
                                                  /usr/local/Cellar/arm-gcc-bin@8/8-2019-q3-update/bin/../lib/gcc/arm-none-eabi/8.3.1/../../../../arm-none-eabi/lib/thumb/v7e-m+fp/hard/libc.a(lib_a-stdio.o)
_mainCRTStartup                                   /usr/local/Cellar/arm-gcc-bin@8/8-2019-q3-update/bin/../lib/gcc/arm-none-eabi/8.3.1/../../../../arm-none-eabi/lib/thumb/v7e-m+fp/hard/rdimon-crt0.o
_malloc_r                                         /usr/local/Cellar/arm-gcc-bin@8/8-2019-q3-update/bin/../lib/gcc/arm-none-eabi/8.3.1/../../../../arm-none-eabi/lib/thumb/v7e-m+fp/hard/libc.a(lib_a-mallocr.o)
                                                  /usr/local/Cellar/arm-gcc-bin@8/8-2019-q3-update/bin/../lib/gcc/arm-none-eabi/8.3.1/../../../../arm-none-eabi/lib/thumb/v7e-m+fp/hard/libc.a(lib_a-findfp.o)
_malloc_trim_r                                    /usr/local/Cellar/arm-gcc-bin@8/8-2019-q3-update/bin/../lib/gcc/arm-none-eabi/8.3.1/../../../../arm-none-eabi/lib/thumb/v7e-m+fp/hard/libc.a(lib_a-freer.o)
_open                                             /usr/local/Cellar/arm-gcc-bin@8/8-2019-q3-update/bin/../lib/gcc/arm-none-eabi/8.3.1/../../../../arm-none-eabi/lib/thumb/v7e-m+fp/hard/librdimon.a(rdimon-syscalls.o)
_read                                             /usr/local/Cellar/arm-gcc-bin@8/8-2019-q3-update/bin/../lib/gcc/arm-none-eabi/8.3.1/../../../../arm-none-eabi/lib/thumb/v7e-m+fp/hard/librdimon.a(rdimon-syscalls.o)
                                                  /usr/local/Cellar/arm-gcc-bin@8/8-2019-q3-update/bin/../lib/gcc/arm-none-eabi/8.3.1/../../../../arm-none-eabi/lib/thumb/v7e-m+fp/hard/libc.a(lib_a-readr.o)
_read_r                                           /usr/local/Cellar/arm-gcc-bin@8/8-2019-q3-update/bin/../lib/gcc/arm-none-eabi/8.3.1/../../../../arm-none-eabi/lib/thumb/v7e-m+fp/hard/libc.a(lib_a-readr.o)
                                                  /usr/local/Cellar/arm-gcc-bin@8/8-2019-q3-update/bin/../lib/gcc/arm-none-eabi/8.3.1/../../../../arm-none-eabi/lib/thumb/v7e-m+fp/hard/libc.a(lib_a-stdio.o)
_reclaim_reent                                    /usr/local/Cellar/arm-gcc-bin@8/8-2019-q3-update/bin/../lib/gcc/arm-none-eabi/8.3.1/../../../../arm-none-eabi/lib/thumb/v7e-m+fp/hard/libc.a(lib_a-reent.o)
_rename                                           /usr/local/Cellar/arm-gcc-bin@8/8-2019-q3-update/bin/../lib/gcc/arm-none-eabi/8.3.1/../../../../arm-none-eabi/lib/thumb/v7e-m+fp/hard/librdimon.a(rdimon-syscalls.o)
_sbrk                                             /usr/local/Cellar/arm-gcc-bin@8/8-2019-q3-update/bin/../lib/gcc/arm-none-eabi/8.3.1/../../../../arm-none-eabi/lib/thumb/v7e-m+fp/hard/librdimon.a(rdimon-syscalls.o)
                                                  /usr/local/Cellar/arm-gcc-bin@8/8-2019-q3-update/bin/../lib/gcc/arm-none-eabi/8.3.1/../../../../arm-none-eabi/lib/thumb/v7e-m+fp/hard/libc.a(lib_a-sbrkr.o)
_sbrk_r                                           /usr/local/Cellar/arm-gcc-bin@8/8-2019-q3-update/bin/../lib/gcc/arm-none-eabi/8.3.1/../../../../arm-none-eabi/lib/thumb/v7e-m+fp/hard/libc.a(lib_a-sbrkr.o)
                                                  /usr/local/Cellar/arm-gcc-bin@8/8-2019-q3-update/bin/../lib/gcc/arm-none-eabi/8.3.1/../../../../arm-none-eabi/lib/thumb/v7e-m+fp/hard/libc.a(lib_a-freer.o)
                                                  /usr/local/Cellar/arm-gcc-bin@8/8-2019-q3-update/bin/../lib/gcc/arm-none-eabi/8.3.1/../../../../arm-none-eabi/lib/thumb/v7e-m+fp/hard/libc.a(lib_a-mallocr.o)
_sfixed                                           .build/obj_massdrop_ctrl_greyasteroid/protocol/arm_atsam/startup.o
_srelocate                                        .build/obj_massdrop_ctrl_greyasteroid/protocol/arm_atsam/startup.o
_srom                                             .build/obj_massdrop_ctrl_greyasteroid/protocol/arm_atsam/usb/usb2422.o
                                                  .build/obj_massdrop_ctrl_greyasteroid/protocol/arm_atsam/usb/udc.o
_start                                            /usr/local/Cellar/arm-gcc-bin@8/8-2019-q3-update/bin/../lib/gcc/arm-none-eabi/8.3.1/../../../../arm-none-eabi/lib/thumb/v7e-m+fp/hard/rdimon-crt0.o
_stat                                             /usr/local/Cellar/arm-gcc-bin@8/8-2019-q3-update/bin/../lib/gcc/arm-none-eabi/8.3.1/../../../../arm-none-eabi/lib/thumb/v7e-m+fp/hard/librdimon.a(rdimon-syscalls.o)
_swiclose                                         /usr/local/Cellar/arm-gcc-bin@8/8-2019-q3-update/bin/../lib/gcc/arm-none-eabi/8.3.1/../../../../arm-none-eabi/lib/thumb/v7e-m+fp/hard/librdimon.a(rdimon-syscalls.o)
_swilseek                                         /usr/local/Cellar/arm-gcc-bin@8/8-2019-q3-update/bin/../lib/gcc/arm-none-eabi/8.3.1/../../../../arm-none-eabi/lib/thumb/v7e-m+fp/hard/librdimon.a(rdimon-syscalls.o)
_swiopen                                          /usr/local/Cellar/arm-gcc-bin@8/8-2019-q3-update/bin/../lib/gcc/arm-none-eabi/8.3.1/../../../../arm-none-eabi/lib/thumb/v7e-m+fp/hard/librdimon.a(rdimon-syscalls.o)
_swiread                                          /usr/local/Cellar/arm-gcc-bin@8/8-2019-q3-update/bin/../lib/gcc/arm-none-eabi/8.3.1/../../../../arm-none-eabi/lib/thumb/v7e-m+fp/hard/librdimon.a(rdimon-syscalls.o)
_swistat                                          /usr/local/Cellar/arm-gcc-bin@8/8-2019-q3-update/bin/../lib/gcc/arm-none-eabi/8.3.1/../../../../arm-none-eabi/lib/thumb/v7e-m+fp/hard/librdimon.a(rdimon-syscalls.o)
_swiwrite                                         /usr/local/Cellar/arm-gcc-bin@8/8-2019-q3-update/bin/../lib/gcc/arm-none-eabi/8.3.1/../../../../arm-none-eabi/lib/thumb/v7e-m+fp/hard/librdimon.a(rdimon-syscalls.o)
_system                                           /usr/local/Cellar/arm-gcc-bin@8/8-2019-q3-update/bin/../lib/gcc/arm-none-eabi/8.3.1/../../../../arm-none-eabi/lib/thumb/v7e-m+fp/hard/librdimon.a(rdimon-syscalls.o)
_szero                                            .build/obj_massdrop_ctrl_greyasteroid/protocol/arm_atsam/startup.o
_times                                            /usr/local/Cellar/arm-gcc-bin@8/8-2019-q3-update/bin/../lib/gcc/arm-none-eabi/8.3.1/../../../../arm-none-eabi/lib/thumb/v7e-m+fp/hard/librdimon.a(rdimon-syscalls.o)
_unlink                                           /usr/local/Cellar/arm-gcc-bin@8/8-2019-q3-update/bin/../lib/gcc/arm-none-eabi/8.3.1/../../../../arm-none-eabi/lib/thumb/v7e-m+fp/hard/librdimon.a(rdimon-syscalls.o)
_write                                            /usr/local/Cellar/arm-gcc-bin@8/8-2019-q3-update/bin/../lib/gcc/arm-none-eabi/8.3.1/../../../../arm-none-eabi/lib/thumb/v7e-m+fp/hard/librdimon.a(rdimon-syscalls.o)
                                                  /usr/local/Cellar/arm-gcc-bin@8/8-2019-q3-update/bin/../lib/gcc/arm-none-eabi/8.3.1/../../../../arm-none-eabi/lib/thumb/v7e-m+fp/hard/libc.a(lib_a-writer.o)
_write_r                                          /usr/local/Cellar/arm-gcc-bin@8/8-2019-q3-update/bin/../lib/gcc/arm-none-eabi/8.3.1/../../../../arm-none-eabi/lib/thumb/v7e-m+fp/hard/libc.a(lib_a-writer.o)
                                                  /usr/local/Cellar/arm-gcc-bin@8/8-2019-q3-update/bin/../lib/gcc/arm-none-eabi/8.3.1/../../../../arm-none-eabi/lib/thumb/v7e-m+fp/hard/libc.a(lib_a-stdio.o)
action_exec                                       .build/obj_massdrop_ctrl_greyasteroid/common/action.o
                                                  .build/obj_massdrop_ctrl_greyasteroid/common/keyboard.o
action_for_key                                    .build/obj_massdrop_ctrl_greyasteroid/quantum/keymap_common.o
                                                  .build/obj_massdrop_ctrl_greyasteroid/common/action_layer.o
action_function                                   .build/obj_massdrop_ctrl_greyasteroid/quantum/keymap_common.o
                                                  .build/obj_massdrop_ctrl_greyasteroid/common/action.o
action_get_macro                                  .build/obj_massdrop_ctrl_greyasteroid/quantum/keymap_common.o
                                                  .build/obj_massdrop_ctrl_greyasteroid/common/action.o
action_macro_play                                 .build/obj_massdrop_ctrl_greyasteroid/common/action_macro.o
                                                  .build/obj_massdrop_ctrl_greyasteroid/common/action.o
action_tapping_process                            .build/obj_massdrop_ctrl_greyasteroid/common/action_tapping.o
                                                  .build/obj_massdrop_ctrl_greyasteroid/common/action.o
adc_extra                                         .build/obj_massdrop_ctrl_greyasteroid/protocol/arm_atsam/usb/usb2422.o
adc_get                                           .build/obj_massdrop_ctrl_greyasteroid/protocol/arm_atsam/adc.o
                                                  .build/obj_massdrop_ctrl_greyasteroid/protocol/arm_atsam/usb/usb2422.o
                                                  .build/obj_massdrop_ctrl_greyasteroid/protocol/arm_atsam/main_arm_atsam.o
add_key                                           .build/obj_massdrop_ctrl_greyasteroid/common/action_util.o
                                                  .build/obj_massdrop_ctrl_greyasteroid/common/action.o
                                                  .build/obj_massdrop_ctrl_greyasteroid/quantum/process_keycode/process_grave_esc.o
add_key_bit                                       .build/obj_massdrop_ctrl_greyasteroid/common/report.o
add_key_byte                                      .build/obj_massdrop_ctrl_greyasteroid/common/report.o
add_key_to_report                                 .build/obj_massdrop_ctrl_greyasteroid/common/report.o
                                                  .build/obj_massdrop_ctrl_greyasteroid/common/action_util.o
add_macro_mods                                    .build/obj_massdrop_ctrl_greyasteroid/common/action_util.o
                                                  .build/obj_massdrop_ctrl_greyasteroid/common/action_macro.o
add_mods                                          .build/obj_massdrop_ctrl_greyasteroid/common/action_util.o
                                                  .build/obj_massdrop_ctrl_greyasteroid/common/action.o
add_weak_mods                                     .build/obj_massdrop_ctrl_greyasteroid/common/action_util.o
                                                  .build/obj_massdrop_ctrl_greyasteroid/common/action.o
api_send_unicode                                  .build/obj_massdrop_ctrl_greyasteroid/quantum/quantum.o
arm_atsam_driver                                  .build/obj_massdrop_ctrl_greyasteroid/protocol/arm_atsam/main_arm_atsam.o
ascii_to_altgr_lut                                .build/obj_massdrop_ctrl_greyasteroid/quantum/quantum.o
ascii_to_keycode_lut                              .build/obj_massdrop_ctrl_greyasteroid/quantum/quantum.o
ascii_to_shift_lut                                .build/obj_massdrop_ctrl_greyasteroid/quantum/quantum.o
atexit                                            /usr/local/Cellar/arm-gcc-bin@8/8-2019-q3-update/bin/../lib/gcc/arm-none-eabi/8.3.1/../../../../arm-none-eabi/lib/thumb/v7e-m+fp/hard/libg.a(lib_a-atexit.o)
                                                  /usr/local/Cellar/arm-gcc-bin@8/8-2019-q3-update/bin/../lib/gcc/arm-none-eabi/8.3.1/../../../../arm-none-eabi/lib/thumb/v7e-m+fp/hard/libg.a(lib_a-__call_atexit.o)
                                                  /usr/local/Cellar/arm-gcc-bin@8/8-2019-q3-update/bin/../lib/gcc/arm-none-eabi/8.3.1/../../../../arm-none-eabi/lib/thumb/v7e-m+fp/hard/rdimon-crt0.o
biton                                             .build/obj_massdrop_ctrl_greyasteroid/common/util.o
                                                  .build/obj_massdrop_ctrl_greyasteroid/common/report.o
biton16                                           .build/obj_massdrop_ctrl_greyasteroid/common/util.o
biton32                                           .build/obj_massdrop_ctrl_greyasteroid/common/util.o
bitpop                                            .build/obj_massdrop_ctrl_greyasteroid/common/util.o
                                                  .build/obj_massdrop_ctrl_greyasteroid/common/action_util.o
bitpop16                                          .build/obj_massdrop_ctrl_greyasteroid/common/util.o
bitpop32                                          .build/obj_massdrop_ctrl_greyasteroid/common/util.o
bitrev                                            .build/obj_massdrop_ctrl_greyasteroid/common/util.o
bitrev16                                          .build/obj_massdrop_ctrl_greyasteroid/common/util.o
bitrev32                                          .build/obj_massdrop_ctrl_greyasteroid/common/util.o
bootloader_jump                                   .build/obj_massdrop_ctrl_greyasteroid/common/arm_atsam/bootloader.o
                                                  .build/obj_massdrop_ctrl_greyasteroid/quantum/quantum.o
bootloader_serial_number                          .build/obj_massdrop_ctrl_greyasteroid/protocol/arm_atsam/usb/udc.o
cleanup_glue                                      /usr/local/Cellar/arm-gcc-bin@8/8-2019-q3-update/bin/../lib/gcc/arm-none-eabi/8.3.1/../../../../arm-none-eabi/lib/thumb/v7e-m+fp/hard/libc.a(lib_a-reent.o)
clear_keyboard                                    .build/obj_massdrop_ctrl_greyasteroid/common/action.o
                                                  .build/obj_massdrop_ctrl_greyasteroid/common/action_tapping.o
                                                  .build/obj_massdrop_ctrl_greyasteroid/quantum/process_keycode/process_magic.o
                                                  .build/obj_massdrop_ctrl_greyasteroid/quantum/quantum.o
clear_keyboard_but_mods                           .build/obj_massdrop_ctrl_greyasteroid/common/action.o
clear_keyboard_but_mods_and_keys                  .build/obj_massdrop_ctrl_greyasteroid/common/action.o
                                                  .build/obj_massdrop_ctrl_greyasteroid/common/action_layer.o
clear_keys                                        .build/obj_massdrop_ctrl_greyasteroid/common/action_util.o
                                                  .build/obj_massdrop_ctrl_greyasteroid/common/action.o
clear_keys_from_report                            .build/obj_massdrop_ctrl_greyasteroid/common/report.o
                                                  .build/obj_massdrop_ctrl_greyasteroid/common/action_util.o
clear_macro_mods                                  .build/obj_massdrop_ctrl_greyasteroid/common/action_util.o
                                                  .build/obj_massdrop_ctrl_greyasteroid/common/action.o
clear_mods                                        .build/obj_massdrop_ctrl_greyasteroid/common/action_util.o
                                                  .build/obj_massdrop_ctrl_greyasteroid/common/action.o
clear_oneshot_layer_state                         .build/obj_massdrop_ctrl_greyasteroid/common/action_util.o
                                                  .build/obj_massdrop_ctrl_greyasteroid/common/action.o
clear_oneshot_locked_mods                         .build/obj_massdrop_ctrl_greyasteroid/common/action_util.o
clear_oneshot_mods                                .build/obj_massdrop_ctrl_greyasteroid/common/action_util.o
                                                  .build/obj_massdrop_ctrl_greyasteroid/common/action.o
clear_weak_mods                                   .build/obj_massdrop_ctrl_greyasteroid/common/action_util.o
                                                  .build/obj_massdrop_ctrl_greyasteroid/common/action.o
clk_enable_sercom_apbmask                         .build/obj_massdrop_ctrl_greyasteroid/protocol/arm_atsam/clks.o
col_pins                                          .build/obj_massdrop_ctrl_greyasteroid/matrix.o
col_ports                                         .build/obj_massdrop_ctrl_greyasteroid/matrix.o
dbg_print                                         .build/obj_massdrop_ctrl_greyasteroid/protocol/arm_atsam/d51_util.o
debounce                                          .build/obj_massdrop_ctrl_greyasteroid/quantum/debounce/sym_g.o
debounce_active                                   .build/obj_massdrop_ctrl_greyasteroid/quantum/debounce/sym_g.o
debounce_init                                     .build/obj_massdrop_ctrl_greyasteroid/quantum/debounce/sym_g.o
debug_action                                      .build/obj_massdrop_ctrl_greyasteroid/common/action.o
debug_code                                        .build/obj_massdrop_ctrl_greyasteroid/protocol/arm_atsam/d51_util.o
                                                  .build/obj_massdrop_ctrl_greyasteroid/protocol/arm_atsam/usb/usb2422.o
                                                  .build/obj_massdrop_ctrl_greyasteroid/protocol/arm_atsam/spi.o
                                                  .build/obj_massdrop_ctrl_greyasteroid/protocol/arm_atsam/main_arm_atsam.o
                                                  .build/obj_massdrop_ctrl_greyasteroid/protocol/arm_atsam/led_matrix.o
                                                  .build/obj_massdrop_ctrl_greyasteroid/protocol/arm_atsam/i2c_master.o
                                                  .build/obj_massdrop_ctrl_greyasteroid/protocol/arm_atsam/clks.o
                                                  .build/obj_massdrop_ctrl_greyasteroid/protocol/arm_atsam/adc.o
debug_code_disable                                .build/obj_massdrop_ctrl_greyasteroid/protocol/arm_atsam/d51_util.o
                                                  .build/obj_massdrop_ctrl_greyasteroid/protocol/arm_atsam/main_arm_atsam.o
debug_code_init                                   .build/obj_massdrop_ctrl_greyasteroid/protocol/arm_atsam/d51_util.o
                                                  .build/obj_massdrop_ctrl_greyasteroid/protocol/arm_atsam/main_arm_atsam.o
debug_config                                      .build/obj_massdrop_ctrl_greyasteroid/common/debug.o
                                                  .build/obj_massdrop_ctrl_greyasteroid/common/magic.o
                                                  .build/obj_massdrop_ctrl_greyasteroid/common/keyboard.o
debug_event                                       .build/obj_massdrop_ctrl_greyasteroid/common/action.o
                                                  .build/obj_massdrop_ctrl_greyasteroid/common/action_tapping.o
debug_record                                      .build/obj_massdrop_ctrl_greyasteroid/common/action.o
                                                  .build/obj_massdrop_ctrl_greyasteroid/common/action_tapping.o
default_layer_and                                 .build/obj_massdrop_ctrl_greyasteroid/common/action_layer.o
                                                  .build/obj_massdrop_ctrl_greyasteroid/common/action.o
default_layer_debug                               .build/obj_massdrop_ctrl_greyasteroid/common/action_layer.o
                                                  .build/obj_massdrop_ctrl_greyasteroid/common/action.o
default_layer_or                                  .build/obj_massdrop_ctrl_greyasteroid/common/action_layer.o
                                                  .build/obj_massdrop_ctrl_greyasteroid/common/action.o
default_layer_set                                 .build/obj_massdrop_ctrl_greyasteroid/common/action_layer.o
                                                  .build/obj_massdrop_ctrl_greyasteroid/common/magic.o
                                                  .build/obj_massdrop_ctrl_greyasteroid/common/action.o
                                                  .build/obj_massdrop_ctrl_greyasteroid/quantum/quantum.o
default_layer_state                               .build/obj_massdrop_ctrl_greyasteroid/common/action_layer.o
                                                  .build/obj_massdrop_ctrl_greyasteroid/common/eeconfig.o
default_layer_state_set_kb                        .build/obj_massdrop_ctrl_greyasteroid/common/action_layer.o
default_layer_state_set_user                      .build/obj_massdrop_ctrl_greyasteroid/common/action_layer.o
default_layer_xor                                 .build/obj_massdrop_ctrl_greyasteroid/common/action_layer.o
                                                  .build/obj_massdrop_ctrl_greyasteroid/common/action.o
del_key                                           .build/obj_massdrop_ctrl_greyasteroid/common/action_util.o
                                                  .build/obj_massdrop_ctrl_greyasteroid/common/action.o
                                                  .build/obj_massdrop_ctrl_greyasteroid/quantum/process_keycode/process_grave_esc.o
del_key_bit                                       .build/obj_massdrop_ctrl_greyasteroid/common/report.o
del_key_byte                                      .build/obj_massdrop_ctrl_greyasteroid/common/report.o
del_key_from_report                               .build/obj_massdrop_ctrl_greyasteroid/common/report.o
                                                  .build/obj_massdrop_ctrl_greyasteroid/common/action_util.o
del_macro_mods                                    .build/obj_massdrop_ctrl_greyasteroid/common/action_util.o
                                                  .build/obj_massdrop_ctrl_greyasteroid/common/action_macro.o
del_mods                                          .build/obj_massdrop_ctrl_greyasteroid/common/action_util.o
                                                  .build/obj_massdrop_ctrl_greyasteroid/common/action.o
del_weak_mods                                     .build/obj_massdrop_ctrl_greyasteroid/common/action_util.o
                                                  .build/obj_massdrop_ctrl_greyasteroid/common/action.o
digit                                             .build/obj_massdrop_ctrl_greyasteroid/protocol/arm_atsam/usb/usb_util.o
disable_action_cache                              .build/obj_massdrop_ctrl_greyasteroid/common/action.o
                                                  .build/obj_massdrop_ctrl_greyasteroid/common/action_layer.o
                                                  .build/obj_massdrop_ctrl_greyasteroid/quantum/quantum.o
disable_jtag                                      .build/obj_massdrop_ctrl_greyasteroid/common/keyboard.o
dled_print                                        .build/obj_massdrop_ctrl_greyasteroid/protocol/arm_atsam/d51_util.o
dmac_desc                                         .build/obj_massdrop_ctrl_greyasteroid/protocol/arm_atsam/usb/usb2422.o
                                                  .build/obj_massdrop_ctrl_greyasteroid/protocol/arm_atsam/spi.o
                                                  .build/obj_massdrop_ctrl_greyasteroid/protocol/arm_atsam/main_arm_atsam.o
                                                  .build/obj_massdrop_ctrl_greyasteroid/protocol/arm_atsam/led_matrix.o
                                                  .build/obj_massdrop_ctrl_greyasteroid/protocol/arm_atsam/i2c_master.o
                                                  .build/obj_massdrop_ctrl_greyasteroid/protocol/arm_atsam/clks.o
                                                  .build/obj_massdrop_ctrl_greyasteroid/protocol/arm_atsam/adc.o
                                                  .build/obj_massdrop_ctrl_greyasteroid/common/arm_atsam/suspend.o
                                                  .build/obj_massdrop_ctrl_greyasteroid/keyboards/massdrop/ctrl/keymaps/greyasteroid/keymap.o
                                                  .build/obj_massdrop_ctrl_greyasteroid/config_led.o
                                                  .build/obj_massdrop_ctrl_greyasteroid/matrix.o
dmac_desc_wb                                      .build/obj_massdrop_ctrl_greyasteroid/protocol/arm_atsam/usb/usb2422.o
                                                  .build/obj_massdrop_ctrl_greyasteroid/protocol/arm_atsam/spi.o
                                                  .build/obj_massdrop_ctrl_greyasteroid/protocol/arm_atsam/main_arm_atsam.o
                                                  .build/obj_massdrop_ctrl_greyasteroid/protocol/arm_atsam/led_matrix.o
                                                  .build/obj_massdrop_ctrl_greyasteroid/protocol/arm_atsam/i2c_master.o
                                                  .build/obj_massdrop_ctrl_greyasteroid/protocol/arm_atsam/clks.o
                                                  .build/obj_massdrop_ctrl_greyasteroid/protocol/arm_atsam/adc.o
                                                  .build/obj_massdrop_ctrl_greyasteroid/common/arm_atsam/suspend.o
                                                  .build/obj_massdrop_ctrl_greyasteroid/keyboards/massdrop/ctrl/keymaps/greyasteroid/keymap.o
                                                  .build/obj_massdrop_ctrl_greyasteroid/config_led.o
                                                  .build/obj_massdrop_ctrl_greyasteroid/matrix.o
eeconfig_debug_rgb_matrix                         .build/obj_massdrop_ctrl_greyasteroid/quantum/rgb_matrix.o
eeconfig_disable                                  .build/obj_massdrop_ctrl_greyasteroid/common/eeconfig.o
eeconfig_enable                                   .build/obj_massdrop_ctrl_greyasteroid/common/eeconfig.o
eeconfig_init                                     .build/obj_massdrop_ctrl_greyasteroid/common/eeconfig.o
                                                  .build/obj_massdrop_ctrl_greyasteroid/common/magic.o
                                                  .build/obj_massdrop_ctrl_greyasteroid/quantum/rgb_matrix.o
                                                  .build/obj_massdrop_ctrl_greyasteroid/quantum/quantum.o
eeconfig_init_kb                                  .build/obj_massdrop_ctrl_greyasteroid/common/eeconfig.o
eeconfig_init_quantum                             .build/obj_massdrop_ctrl_greyasteroid/common/eeconfig.o
eeconfig_init_user                                .build/obj_massdrop_ctrl_greyasteroid/common/eeconfig.o
eeconfig_is_disabled                              .build/obj_massdrop_ctrl_greyasteroid/common/eeconfig.o
eeconfig_is_enabled                               .build/obj_massdrop_ctrl_greyasteroid/common/eeconfig.o
                                                  .build/obj_massdrop_ctrl_greyasteroid/common/magic.o
                                                  .build/obj_massdrop_ctrl_greyasteroid/quantum/rgb_matrix.o
                                                  .build/obj_massdrop_ctrl_greyasteroid/quantum/quantum.o
eeconfig_read_audio                               .build/obj_massdrop_ctrl_greyasteroid/common/eeconfig.o
eeconfig_read_backlight                           .build/obj_massdrop_ctrl_greyasteroid/common/eeconfig.o
eeconfig_read_debug                               .build/obj_massdrop_ctrl_greyasteroid/common/eeconfig.o
                                                  .build/obj_massdrop_ctrl_greyasteroid/common/magic.o
eeconfig_read_default_layer                       .build/obj_massdrop_ctrl_greyasteroid/common/eeconfig.o
                                                  .build/obj_massdrop_ctrl_greyasteroid/common/magic.o
eeconfig_read_handedness                          .build/obj_massdrop_ctrl_greyasteroid/common/eeconfig.o
eeconfig_read_haptic                              .build/obj_massdrop_ctrl_greyasteroid/common/eeconfig.o
eeconfig_read_kb                                  .build/obj_massdrop_ctrl_greyasteroid/common/eeconfig.o
eeconfig_read_keymap                              .build/obj_massdrop_ctrl_greyasteroid/common/eeconfig.o
                                                  .build/obj_massdrop_ctrl_greyasteroid/common/magic.o
                                                  .build/obj_massdrop_ctrl_greyasteroid/quantum/process_keycode/process_magic.o
eeconfig_read_rgb_matrix                          .build/obj_massdrop_ctrl_greyasteroid/quantum/rgb_matrix.o
eeconfig_read_user                                .build/obj_massdrop_ctrl_greyasteroid/common/eeconfig.o
eeconfig_update_audio                             .build/obj_massdrop_ctrl_greyasteroid/common/eeconfig.o
eeconfig_update_backlight                         .build/obj_massdrop_ctrl_greyasteroid/common/eeconfig.o
eeconfig_update_debug                             .build/obj_massdrop_ctrl_greyasteroid/common/eeconfig.o
eeconfig_update_default_layer                     .build/obj_massdrop_ctrl_greyasteroid/common/eeconfig.o
                                                  .build/obj_massdrop_ctrl_greyasteroid/quantum/quantum.o
eeconfig_update_handedness                        .build/obj_massdrop_ctrl_greyasteroid/common/eeconfig.o
                                                  .build/obj_massdrop_ctrl_greyasteroid/quantum/process_keycode/process_magic.o
eeconfig_update_haptic                            .build/obj_massdrop_ctrl_greyasteroid/common/eeconfig.o
eeconfig_update_kb                                .build/obj_massdrop_ctrl_greyasteroid/common/eeconfig.o
eeconfig_update_keymap                            .build/obj_massdrop_ctrl_greyasteroid/common/eeconfig.o
                                                  .build/obj_massdrop_ctrl_greyasteroid/quantum/process_keycode/process_magic.o
eeconfig_update_rgb_matrix                        .build/obj_massdrop_ctrl_greyasteroid/quantum/rgb_matrix.o
eeconfig_update_rgb_matrix_default                .build/obj_massdrop_ctrl_greyasteroid/quantum/rgb_matrix.o
eeconfig_update_user                              .build/obj_massdrop_ctrl_greyasteroid/common/eeconfig.o
eeprom_read_block                                 .build/obj_massdrop_ctrl_greyasteroid/common/arm_atsam/eeprom.o
                                                  .build/obj_massdrop_ctrl_greyasteroid/quantum/rgb_matrix.o
eeprom_read_byte                                  .build/obj_massdrop_ctrl_greyasteroid/common/arm_atsam/eeprom.o
                                                  .build/obj_massdrop_ctrl_greyasteroid/common/eeconfig.o
eeprom_read_dword                                 .build/obj_massdrop_ctrl_greyasteroid/common/arm_atsam/eeprom.o
                                                  .build/obj_massdrop_ctrl_greyasteroid/common/eeconfig.o
eeprom_read_word                                  .build/obj_massdrop_ctrl_greyasteroid/common/arm_atsam/eeprom.o
                                                  .build/obj_massdrop_ctrl_greyasteroid/common/eeconfig.o
eeprom_update_block                               .build/obj_massdrop_ctrl_greyasteroid/common/arm_atsam/eeprom.o
                                                  .build/obj_massdrop_ctrl_greyasteroid/quantum/rgb_matrix.o
eeprom_update_byte                                .build/obj_massdrop_ctrl_greyasteroid/common/arm_atsam/eeprom.o
                                                  .build/obj_massdrop_ctrl_greyasteroid/common/eeconfig.o
eeprom_update_dword                               .build/obj_massdrop_ctrl_greyasteroid/common/arm_atsam/eeprom.o
                                                  .build/obj_massdrop_ctrl_greyasteroid/common/eeconfig.o
eeprom_update_word                                .build/obj_massdrop_ctrl_greyasteroid/common/arm_atsam/eeprom.o
                                                  .build/obj_massdrop_ctrl_greyasteroid/common/eeconfig.o
eeprom_write_block                                .build/obj_massdrop_ctrl_greyasteroid/common/arm_atsam/eeprom.o
eeprom_write_byte                                 .build/obj_massdrop_ctrl_greyasteroid/common/arm_atsam/eeprom.o
eeprom_write_dword                                .build/obj_massdrop_ctrl_greyasteroid/common/arm_atsam/eeprom.o
eeprom_write_word                                 .build/obj_massdrop_ctrl_greyasteroid/common/arm_atsam/eeprom.o
effect_runner_dx_dy                               .build/obj_massdrop_ctrl_greyasteroid/quantum/rgb_matrix.o
effect_runner_dx_dy_dist                          .build/obj_massdrop_ctrl_greyasteroid/quantum/rgb_matrix.o
effect_runner_i                                   .build/obj_massdrop_ctrl_greyasteroid/quantum/rgb_matrix.o
effect_runner_reactive                            .build/obj_massdrop_ctrl_greyasteroid/quantum/rgb_matrix.o
effect_runner_reactive_splash                     .build/obj_massdrop_ctrl_greyasteroid/quantum/rgb_matrix.o
effect_runner_sin_cos_i                           .build/obj_massdrop_ctrl_greyasteroid/quantum/rgb_matrix.o
end                                               /usr/local/Cellar/arm-gcc-bin@8/8-2019-q3-update/bin/../lib/gcc/arm-none-eabi/8.3.1/../../../../arm-none-eabi/lib/thumb/v7e-m+fp/hard/librdimon.a(rdimon-syscalls.o)
errno                                             /usr/local/Cellar/arm-gcc-bin@8/8-2019-q3-update/bin/../lib/gcc/arm-none-eabi/8.3.1/../../../../arm-none-eabi/lib/thumb/v7e-m+fp/hard/libc.a(lib_a-reent.o)
                                                  /usr/local/Cellar/arm-gcc-bin@8/8-2019-q3-update/bin/../lib/gcc/arm-none-eabi/8.3.1/../../../../arm-none-eabi/lib/thumb/v7e-m+fp/hard/libc.a(lib_a-readr.o)
                                                  /usr/local/Cellar/arm-gcc-bin@8/8-2019-q3-update/bin/../lib/gcc/arm-none-eabi/8.3.1/../../../../arm-none-eabi/lib/thumb/v7e-m+fp/hard/libc.a(lib_a-lseekr.o)
                                                  /usr/local/Cellar/arm-gcc-bin@8/8-2019-q3-update/bin/../lib/gcc/arm-none-eabi/8.3.1/../../../../arm-none-eabi/lib/thumb/v7e-m+fp/hard/libc.a(lib_a-closer.o)
                                                  /usr/local/Cellar/arm-gcc-bin@8/8-2019-q3-update/bin/../lib/gcc/arm-none-eabi/8.3.1/../../../../arm-none-eabi/lib/thumb/v7e-m+fp/hard/libc.a(lib_a-writer.o)
                                                  /usr/local/Cellar/arm-gcc-bin@8/8-2019-q3-update/bin/../lib/gcc/arm-none-eabi/8.3.1/../../../../arm-none-eabi/lib/thumb/v7e-m+fp/hard/libc.a(lib_a-sbrkr.o)
exception_table                                   .build/obj_massdrop_ctrl_greyasteroid/protocol/arm_atsam/startup.o
exit                                              /usr/local/Cellar/arm-gcc-bin@8/8-2019-q3-update/bin/../lib/gcc/arm-none-eabi/8.3.1/../../../../arm-none-eabi/lib/thumb/v7e-m+fp/hard/libg.a(lib_a-exit.o)
                                                  /usr/local/Cellar/arm-gcc-bin@8/8-2019-q3-update/bin/../lib/gcc/arm-none-eabi/8.3.1/../../../../arm-none-eabi/lib/thumb/v7e-m+fp/hard/rdimon-crt0.o
fclose                                            /usr/local/Cellar/arm-gcc-bin@8/8-2019-q3-update/bin/../lib/gcc/arm-none-eabi/8.3.1/../../../../arm-none-eabi/lib/thumb/v7e-m+fp/hard/libc.a(lib_a-fclose.o)
fflush                                            /usr/local/Cellar/arm-gcc-bin@8/8-2019-q3-update/bin/../lib/gcc/arm-none-eabi/8.3.1/../../../../arm-none-eabi/lib/thumb/v7e-m+fp/hard/libc.a(lib_a-fflush.o)
flush                                             .build/obj_massdrop_ctrl_greyasteroid/protocol/arm_atsam/led_matrix.o
fn_actions                                        .build/obj_massdrop_ctrl_greyasteroid/quantum/keymap_common.o
g_last_hit_tracker                                .build/obj_massdrop_ctrl_greyasteroid/quantum/rgb_matrix.o
g_led_config                                      .build/obj_massdrop_ctrl_greyasteroid/config_led.o
                                                  .build/obj_massdrop_ctrl_greyasteroid/quantum/rgb_matrix.o
g_rgb_timer                                       .build/obj_massdrop_ctrl_greyasteroid/quantum/rgb_matrix.o
g_suspend_state                                   .build/obj_massdrop_ctrl_greyasteroid/quantum/rgb_matrix.o
g_usb_state                                       .build/obj_massdrop_ctrl_greyasteroid/protocol/arm_atsam/main_arm_atsam.o
gcr_actual                                        .build/obj_massdrop_ctrl_greyasteroid/protocol/arm_atsam/led_matrix.o
                                                  .build/obj_massdrop_ctrl_greyasteroid/protocol/arm_atsam/i2c_master.o
gcr_actual_last                                   .build/obj_massdrop_ctrl_greyasteroid/protocol/arm_atsam/led_matrix.o
                                                  .build/obj_massdrop_ctrl_greyasteroid/protocol/arm_atsam/i2c_master.o
gcr_compute                                       .build/obj_massdrop_ctrl_greyasteroid/protocol/arm_atsam/led_matrix.o
                                                  .build/obj_massdrop_ctrl_greyasteroid/protocol/arm_atsam/main_arm_atsam.o
gcr_desired                                       .build/obj_massdrop_ctrl_greyasteroid/protocol/arm_atsam/led_matrix.o
                                                  .build/obj_massdrop_ctrl_greyasteroid/protocol/arm_atsam/i2c_master.o
get_event_keycode                                 .build/obj_massdrop_ctrl_greyasteroid/quantum/quantum.o
get_first_key                                     .build/obj_massdrop_ctrl_greyasteroid/common/report.o
get_macro_mods                                    .build/obj_massdrop_ctrl_greyasteroid/common/action_util.o
get_mods                                          .build/obj_massdrop_ctrl_greyasteroid/common/action_util.o
                                                  .build/obj_massdrop_ctrl_greyasteroid/quantum/process_keycode/process_grave_esc.o
                                                  .build/obj_massdrop_ctrl_greyasteroid/quantum/process_keycode/process_rgb.o
get_oneshot_layer                                 .build/obj_massdrop_ctrl_greyasteroid/common/action_util.o
                                                  .build/obj_massdrop_ctrl_greyasteroid/common/action.o
get_oneshot_layer_state                           .build/obj_massdrop_ctrl_greyasteroid/common/action_util.o
                                                  .build/obj_massdrop_ctrl_greyasteroid/common/action.o
get_oneshot_locked_mods                           .build/obj_massdrop_ctrl_greyasteroid/common/action_util.o
get_oneshot_mods                                  .build/obj_massdrop_ctrl_greyasteroid/common/action_util.o
                                                  .build/obj_massdrop_ctrl_greyasteroid/common/action.o
get_record_keycode                                .build/obj_massdrop_ctrl_greyasteroid/quantum/quantum.o
get_tapping_term                                  .build/obj_massdrop_ctrl_greyasteroid/common/action_tapping.o
get_weak_mods                                     .build/obj_massdrop_ctrl_greyasteroid/common/action_util.o
has_anykey                                        .build/obj_massdrop_ctrl_greyasteroid/common/report.o
                                                  .build/obj_massdrop_ctrl_greyasteroid/common/action_util.o
has_anymod                                        .build/obj_massdrop_ctrl_greyasteroid/common/action_util.o
has_oneshot_mods_timed_out                        .build/obj_massdrop_ctrl_greyasteroid/common/action_util.o
hex_to_keycode                                    .build/obj_massdrop_ctrl_greyasteroid/quantum/quantum.o
host_consumer_send                                .build/obj_massdrop_ctrl_greyasteroid/common/host.o
                                                  .build/obj_massdrop_ctrl_greyasteroid/common/action.o
host_get_driver                                   .build/obj_massdrop_ctrl_greyasteroid/common/host.o
host_keyboard_led_state                           .build/obj_massdrop_ctrl_greyasteroid/common/host.o
host_keyboard_leds                                .build/obj_massdrop_ctrl_greyasteroid/common/host.o
                                                  .build/obj_massdrop_ctrl_greyasteroid/common/action.o
                                                  .build/obj_massdrop_ctrl_greyasteroid/common/keyboard.o
host_keyboard_send                                .build/obj_massdrop_ctrl_greyasteroid/common/host.o
                                                  .build/obj_massdrop_ctrl_greyasteroid/common/action_util.o
host_last_consumer_report                         .build/obj_massdrop_ctrl_greyasteroid/common/host.o
host_last_system_report                           .build/obj_massdrop_ctrl_greyasteroid/common/host.o
host_mouse_send                                   .build/obj_massdrop_ctrl_greyasteroid/common/host.o
host_set_driver                                   .build/obj_massdrop_ctrl_greyasteroid/common/host.o
                                                  .build/obj_massdrop_ctrl_greyasteroid/protocol/arm_atsam/main_arm_atsam.o
host_system_send                                  .build/obj_massdrop_ctrl_greyasteroid/common/host.o
                                                  .build/obj_massdrop_ctrl_greyasteroid/common/action.o
hsv_to_rgb                                        .build/obj_massdrop_ctrl_greyasteroid/quantum/color.o
                                                  .build/obj_massdrop_ctrl_greyasteroid/quantum/rgb_matrix.o
i2c0_buf                                          .build/obj_massdrop_ctrl_greyasteroid/protocol/arm_atsam/usb/usb2422.o
i2c0_init                                         .build/obj_massdrop_ctrl_greyasteroid/protocol/arm_atsam/i2c_master.o
                                                  .build/obj_massdrop_ctrl_greyasteroid/protocol/arm_atsam/usb/usb2422.o
i2c0_start                                        .build/obj_massdrop_ctrl_greyasteroid/protocol/arm_atsam/i2c_master.o
i2c0_stop                                         .build/obj_massdrop_ctrl_greyasteroid/protocol/arm_atsam/i2c_master.o
i2c0_transmit                                     .build/obj_massdrop_ctrl_greyasteroid/protocol/arm_atsam/i2c_master.o
                                                  .build/obj_massdrop_ctrl_greyasteroid/protocol/arm_atsam/usb/usb2422.o
i2c1_init                                         .build/obj_massdrop_ctrl_greyasteroid/protocol/arm_atsam/i2c_master.o
                                                  .build/obj_massdrop_ctrl_greyasteroid/protocol/arm_atsam/main_arm_atsam.o
i2c1_start                                        .build/obj_massdrop_ctrl_greyasteroid/protocol/arm_atsam/i2c_master.o
i2c1_stop                                         .build/obj_massdrop_ctrl_greyasteroid/protocol/arm_atsam/i2c_master.o
                                                  .build/obj_massdrop_ctrl_greyasteroid/protocol/arm_atsam/led_matrix.o
i2c1_transmit                                     .build/obj_massdrop_ctrl_greyasteroid/protocol/arm_atsam/i2c_master.o
i2c_led_begin_dma                                 .build/obj_massdrop_ctrl_greyasteroid/protocol/arm_atsam/i2c_master.o
i2c_led_desc_defaults                             .build/obj_massdrop_ctrl_greyasteroid/protocol/arm_atsam/i2c_master.o
i2c_led_prepare_send_dma                          .build/obj_massdrop_ctrl_greyasteroid/protocol/arm_atsam/i2c_master.o
i2c_led_q_add                                     .build/obj_massdrop_ctrl_greyasteroid/protocol/arm_atsam/i2c_master.o
                                                  .build/obj_massdrop_ctrl_greyasteroid/protocol/arm_atsam/main_arm_atsam.o
                                                  .build/obj_massdrop_ctrl_greyasteroid/protocol/arm_atsam/led_matrix.o
i2c_led_q_available                               .build/obj_massdrop_ctrl_greyasteroid/protocol/arm_atsam/i2c_master.o
i2c_led_q_init                                    .build/obj_massdrop_ctrl_greyasteroid/protocol/arm_atsam/i2c_master.o
                                                  .build/obj_massdrop_ctrl_greyasteroid/protocol/arm_atsam/main_arm_atsam.o
i2c_led_q_isempty                                 .build/obj_massdrop_ctrl_greyasteroid/protocol/arm_atsam/i2c_master.o
i2c_led_q_request_room                            .build/obj_massdrop_ctrl_greyasteroid/protocol/arm_atsam/i2c_master.o
                                                  .build/obj_massdrop_ctrl_greyasteroid/protocol/arm_atsam/main_arm_atsam.o
                                                  .build/obj_massdrop_ctrl_greyasteroid/protocol/arm_atsam/led_matrix.o
i2c_led_q_run                                     .build/obj_massdrop_ctrl_greyasteroid/protocol/arm_atsam/i2c_master.o
                                                  .build/obj_massdrop_ctrl_greyasteroid/protocol/arm_atsam/led_matrix.o
i2c_led_q_running                                 .build/obj_massdrop_ctrl_greyasteroid/protocol/arm_atsam/i2c_master.o
                                                  .build/obj_massdrop_ctrl_greyasteroid/protocol/arm_atsam/led_matrix.o
i2c_led_q_s_advance                               .build/obj_massdrop_ctrl_greyasteroid/protocol/arm_atsam/i2c_master.o
i2c_led_q_size                                    .build/obj_massdrop_ctrl_greyasteroid/protocol/arm_atsam/i2c_master.o
i2c_led_select_page                               .build/obj_massdrop_ctrl_greyasteroid/protocol/arm_atsam/i2c_master.o
i2c_led_select_page_dma                           .build/obj_massdrop_ctrl_greyasteroid/protocol/arm_atsam/i2c_master.o
i2c_led_send_CRWL                                 .build/obj_massdrop_ctrl_greyasteroid/protocol/arm_atsam/i2c_master.o
i2c_led_send_CRWL_dma                             .build/obj_massdrop_ctrl_greyasteroid/protocol/arm_atsam/i2c_master.o
i2c_led_send_GCR                                  .build/obj_massdrop_ctrl_greyasteroid/protocol/arm_atsam/i2c_master.o
i2c_led_send_GCR_dma                              .build/obj_massdrop_ctrl_greyasteroid/protocol/arm_atsam/i2c_master.o
i2c_led_send_mode_op_gcr                          .build/obj_massdrop_ctrl_greyasteroid/protocol/arm_atsam/i2c_master.o
i2c_led_send_onoff                                .build/obj_massdrop_ctrl_greyasteroid/protocol/arm_atsam/i2c_master.o
i2c_led_send_onoff_dma                            .build/obj_massdrop_ctrl_greyasteroid/protocol/arm_atsam/i2c_master.o
i2c_led_send_pur_pdr                              .build/obj_massdrop_ctrl_greyasteroid/protocol/arm_atsam/i2c_master.o
i2c_led_send_pwm                                  .build/obj_massdrop_ctrl_greyasteroid/protocol/arm_atsam/i2c_master.o
i2c_led_send_pwm_dma                              .build/obj_massdrop_ctrl_greyasteroid/protocol/arm_atsam/i2c_master.o
inbuf                                             .build/obj_massdrop_ctrl_greyasteroid/protocol/arm_atsam/usb/udi_cdc.o
init                                              .build/obj_massdrop_ctrl_greyasteroid/protocol/arm_atsam/led_matrix.o
initialise_monitor_handles                        /usr/local/Cellar/arm-gcc-bin@8/8-2019-q3-update/bin/../lib/gcc/arm-none-eabi/8.3.1/../../../../arm-none-eabi/lib/thumb/v7e-m+fp/hard/librdimon.a(rdimon-syscalls.o)
                                                  /usr/local/Cellar/arm-gcc-bin@8/8-2019-q3-update/bin/../lib/gcc/arm-none-eabi/8.3.1/../../../../arm-none-eabi/lib/thumb/v7e-m+fp/hard/rdimon-crt0.o
is_key_pressed                                    .build/obj_massdrop_ctrl_greyasteroid/common/report.o
                                                  .build/obj_massdrop_ctrl_greyasteroid/common/action.o
is_keyboard_master                                .build/obj_massdrop_ctrl_greyasteroid/common/keyboard.o
is_oneshot_layer_active                           .build/obj_massdrop_ctrl_greyasteroid/common/action_util.o
                                                  .build/obj_massdrop_ctrl_greyasteroid/common/action.o
is_tap_action                                     .build/obj_massdrop_ctrl_greyasteroid/common/action.o
is_tap_key                                        .build/obj_massdrop_ctrl_greyasteroid/common/action.o
                                                  .build/obj_massdrop_ctrl_greyasteroid/common/action_tapping.o
issi3733_prepare_arrays                           .build/obj_massdrop_ctrl_greyasteroid/protocol/arm_atsam/led_matrix.o
issidrv                                           .build/obj_massdrop_ctrl_greyasteroid/protocol/arm_atsam/led_matrix.o
                                                  .build/obj_massdrop_ctrl_greyasteroid/protocol/arm_atsam/i2c_master.o
k_rgb_matrix_center                               .build/obj_massdrop_ctrl_greyasteroid/quantum/rgb_matrix.o
keyboard_init                                     .build/obj_massdrop_ctrl_greyasteroid/common/keyboard.o
                                                  .build/obj_massdrop_ctrl_greyasteroid/protocol/arm_atsam/main_arm_atsam.o
keyboard_leds                                     .build/obj_massdrop_ctrl_greyasteroid/protocol/arm_atsam/main_arm_atsam.o
                                                  .build/obj_massdrop_ctrl_greyasteroid/protocol/arm_atsam/led_matrix.o
keyboard_post_init_kb                             .build/obj_massdrop_ctrl_greyasteroid/common/keyboard.o
keyboard_post_init_user                           .build/obj_massdrop_ctrl_greyasteroid/common/keyboard.o
keyboard_pre_init_kb                              .build/obj_massdrop_ctrl_greyasteroid/common/keyboard.o
keyboard_pre_init_user                            .build/obj_massdrop_ctrl_greyasteroid/common/keyboard.o
keyboard_protocol                                 .build/obj_massdrop_ctrl_greyasteroid/protocol/arm_atsam/usb/main_usb.o
                                                  .build/obj_massdrop_ctrl_greyasteroid/common/report.o
keyboard_report                                   .build/obj_massdrop_ctrl_greyasteroid/common/action_util.o
                                                  .build/obj_massdrop_ctrl_greyasteroid/common/action.o
keyboard_set_leds                                 .build/obj_massdrop_ctrl_greyasteroid/common/keyboard.o
keyboard_setup                                    .build/obj_massdrop_ctrl_greyasteroid/common/keyboard.o
                                                  .build/obj_massdrop_ctrl_greyasteroid/protocol/arm_atsam/main_arm_atsam.o
keyboard_task                                     .build/obj_massdrop_ctrl_greyasteroid/common/keyboard.o
                                                  .build/obj_massdrop_ctrl_greyasteroid/protocol/arm_atsam/main_arm_atsam.o
keycode_config                                    .build/obj_massdrop_ctrl_greyasteroid/quantum/keycode_config.o
                                                  .build/obj_massdrop_ctrl_greyasteroid/quantum/keymap_common.o
keymap_config                                     .build/obj_massdrop_ctrl_greyasteroid/common/magic.o
                                                  .build/obj_massdrop_ctrl_greyasteroid/protocol/arm_atsam/main_arm_atsam.o
                                                  .build/obj_massdrop_ctrl_greyasteroid/common/report.o
                                                  .build/obj_massdrop_ctrl_greyasteroid/quantum/process_keycode/process_magic.o
                                                  .build/obj_massdrop_ctrl_greyasteroid/quantum/keycode_config.o
keymap_function_id_to_action                      .build/obj_massdrop_ctrl_greyasteroid/quantum/keymap_common.o
keymap_key_to_keycode                             .build/obj_massdrop_ctrl_greyasteroid/quantum/keymap_common.o
                                                  .build/obj_massdrop_ctrl_greyasteroid/quantum/quantum.o
keymaps                                           .build/obj_massdrop_ctrl_greyasteroid/keyboards/massdrop/ctrl/keymaps/greyasteroid/keymap.o
                                                  .build/obj_massdrop_ctrl_greyasteroid/quantum/keymap_common.o
layer_and                                         .build/obj_massdrop_ctrl_greyasteroid/common/action_layer.o
                                                  .build/obj_massdrop_ctrl_greyasteroid/common/action.o
layer_clear                                       .build/obj_massdrop_ctrl_greyasteroid/common/action_layer.o
                                                  .build/obj_massdrop_ctrl_greyasteroid/common/action.o
layer_debug                                       .build/obj_massdrop_ctrl_greyasteroid/common/action_layer.o
                                                  .build/obj_massdrop_ctrl_greyasteroid/common/action.o
layer_invert                                      .build/obj_massdrop_ctrl_greyasteroid/common/action_layer.o
                                                  .build/obj_massdrop_ctrl_greyasteroid/common/action.o
layer_move                                        .build/obj_massdrop_ctrl_greyasteroid/common/action_layer.o
                                                  .build/obj_massdrop_ctrl_greyasteroid/common/action.o
layer_off                                         .build/obj_massdrop_ctrl_greyasteroid/common/action_layer.o
                                                  .build/obj_massdrop_ctrl_greyasteroid/common/action_util.o
                                                  .build/obj_massdrop_ctrl_greyasteroid/common/action.o
layer_on                                          .build/obj_massdrop_ctrl_greyasteroid/common/action_layer.o
                                                  .build/obj_massdrop_ctrl_greyasteroid/common/action_util.o
                                                  .build/obj_massdrop_ctrl_greyasteroid/common/action.o
layer_or                                          .build/obj_massdrop_ctrl_greyasteroid/common/action_layer.o
                                                  .build/obj_massdrop_ctrl_greyasteroid/common/action.o
layer_state                                       .build/obj_massdrop_ctrl_greyasteroid/common/action_layer.o
                                                  .build/obj_massdrop_ctrl_greyasteroid/quantum/quantum.o
layer_state_cmp                                   .build/obj_massdrop_ctrl_greyasteroid/common/action_layer.o
layer_state_is                                    .build/obj_massdrop_ctrl_greyasteroid/common/action_layer.o
layer_state_set                                   .build/obj_massdrop_ctrl_greyasteroid/common/action_layer.o
                                                  .build/obj_massdrop_ctrl_greyasteroid/common/action.o
                                                  .build/obj_massdrop_ctrl_greyasteroid/quantum/quantum.o
layer_state_set_kb                                .build/obj_massdrop_ctrl_greyasteroid/common/action_layer.o
layer_state_set_user                              .build/obj_massdrop_ctrl_greyasteroid/common/action_layer.o
layer_switch_get_action                           .build/obj_massdrop_ctrl_greyasteroid/common/action_layer.o
                                                  .build/obj_massdrop_ctrl_greyasteroid/common/action_tapping.o
                                                  .build/obj_massdrop_ctrl_greyasteroid/common/action.o
layer_switch_get_layer                            .build/obj_massdrop_ctrl_greyasteroid/common/action_layer.o
                                                  .build/obj_massdrop_ctrl_greyasteroid/quantum/quantum.o
layer_xor                                         .build/obj_massdrop_ctrl_greyasteroid/common/action_layer.o
                                                  .build/obj_massdrop_ctrl_greyasteroid/common/action.o
led_buffer                                        .build/obj_massdrop_ctrl_greyasteroid/protocol/arm_atsam/led_matrix.o
led_init_ports                                    .build/obj_massdrop_ctrl_greyasteroid/quantum/quantum.o
led_map                                           .build/obj_massdrop_ctrl_greyasteroid/protocol/arm_atsam/led_matrix.o
led_matrix_indicators                             .build/obj_massdrop_ctrl_greyasteroid/protocol/arm_atsam/led_matrix.o
                                                  .build/obj_massdrop_ctrl_greyasteroid/config_led.o
led_matrix_prepare                                .build/obj_massdrop_ctrl_greyasteroid/protocol/arm_atsam/led_matrix.o
led_set                                           .build/obj_massdrop_ctrl_greyasteroid/quantum/quantum.o
                                                  .build/obj_massdrop_ctrl_greyasteroid/common/action.o
                                                  .build/obj_massdrop_ctrl_greyasteroid/common/keyboard.o
led_set_all                                       .build/obj_massdrop_ctrl_greyasteroid/protocol/arm_atsam/led_matrix.o
led_set_kb                                        .build/obj_massdrop_ctrl_greyasteroid/quantum/quantum.o
led_set_one                                       .build/obj_massdrop_ctrl_greyasteroid/protocol/arm_atsam/led_matrix.o
led_set_user                                      .build/obj_massdrop_ctrl_greyasteroid/quantum/quantum.o
led_states                                        .build/obj_massdrop_ctrl_greyasteroid/protocol/arm_atsam/main_arm_atsam.o
led_update_kb                                     .build/obj_massdrop_ctrl_greyasteroid/quantum/quantum.o
led_update_user                                   .build/obj_massdrop_ctrl_greyasteroid/quantum/quantum.o
magic                                             .build/obj_massdrop_ctrl_greyasteroid/common/magic.o
                                                  .build/obj_massdrop_ctrl_greyasteroid/common/keyboard.o
main                                              .build/obj_massdrop_ctrl_greyasteroid/protocol/arm_atsam/main_arm_atsam.o
                                                  .build/obj_massdrop_ctrl_greyasteroid/protocol/arm_atsam/startup.o
                                                  /usr/local/Cellar/arm-gcc-bin@8/8-2019-q3-update/bin/../lib/gcc/arm-none-eabi/8.3.1/../../../../arm-none-eabi/lib/thumb/v7e-m+fp/hard/rdimon-crt0.o
main_b_exk_enable                                 .build/obj_massdrop_ctrl_greyasteroid/protocol/arm_atsam/usb/main_usb.o
                                                  .build/obj_massdrop_ctrl_greyasteroid/protocol/arm_atsam/usb/udi_hid_kbd.o
main_b_kbd_enable                                 .build/obj_massdrop_ctrl_greyasteroid/protocol/arm_atsam/usb/main_usb.o
                                                  .build/obj_massdrop_ctrl_greyasteroid/protocol/arm_atsam/usb/udi_hid_kbd.o
main_b_nkro_enable                                .build/obj_massdrop_ctrl_greyasteroid/protocol/arm_atsam/usb/main_usb.o
                                                  .build/obj_massdrop_ctrl_greyasteroid/protocol/arm_atsam/usb/udi_hid_kbd.o
main_exk_disable                                  .build/obj_massdrop_ctrl_greyasteroid/protocol/arm_atsam/usb/main_usb.o
                                                  .build/obj_massdrop_ctrl_greyasteroid/protocol/arm_atsam/usb/udi_hid_kbd.o
main_exk_enable                                   .build/obj_massdrop_ctrl_greyasteroid/protocol/arm_atsam/usb/main_usb.o
                                                  .build/obj_massdrop_ctrl_greyasteroid/protocol/arm_atsam/usb/udi_hid_kbd.o
main_kbd_disable                                  .build/obj_massdrop_ctrl_greyasteroid/protocol/arm_atsam/usb/main_usb.o
                                                  .build/obj_massdrop_ctrl_greyasteroid/protocol/arm_atsam/usb/udi_hid_kbd.o
main_kbd_enable                                   .build/obj_massdrop_ctrl_greyasteroid/protocol/arm_atsam/usb/main_usb.o
                                                  .build/obj_massdrop_ctrl_greyasteroid/protocol/arm_atsam/usb/udi_hid_kbd.o
main_nkro_disable                                 .build/obj_massdrop_ctrl_greyasteroid/protocol/arm_atsam/usb/main_usb.o
                                                  .build/obj_massdrop_ctrl_greyasteroid/protocol/arm_atsam/usb/udi_hid_kbd.o
main_nkro_enable                                  .build/obj_massdrop_ctrl_greyasteroid/protocol/arm_atsam/usb/main_usb.o
                                                  .build/obj_massdrop_ctrl_greyasteroid/protocol/arm_atsam/usb/udi_hid_kbd.o
main_remotewakeup_disable                         .build/obj_massdrop_ctrl_greyasteroid/protocol/arm_atsam/usb/main_usb.o
                                                  .build/obj_massdrop_ctrl_greyasteroid/protocol/arm_atsam/usb/udc.o
main_remotewakeup_enable                          .build/obj_massdrop_ctrl_greyasteroid/protocol/arm_atsam/usb/main_usb.o
                                                  .build/obj_massdrop_ctrl_greyasteroid/protocol/arm_atsam/usb/udc.o
main_resume_action                                .build/obj_massdrop_ctrl_greyasteroid/protocol/arm_atsam/usb/main_usb.o
                                                  .build/obj_massdrop_ctrl_greyasteroid/protocol/arm_atsam/usb/usb_device_udd.o
main_sof_action                                   .build/obj_massdrop_ctrl_greyasteroid/protocol/arm_atsam/usb/main_usb.o
                                                  .build/obj_massdrop_ctrl_greyasteroid/protocol/arm_atsam/usb/usb_device_udd.o
main_subtask_power_check                          .build/obj_massdrop_ctrl_greyasteroid/protocol/arm_atsam/main_arm_atsam.o
main_subtask_usb_extra_device                     .build/obj_massdrop_ctrl_greyasteroid/protocol/arm_atsam/main_arm_atsam.o
main_subtask_usb_state                            .build/obj_massdrop_ctrl_greyasteroid/protocol/arm_atsam/main_arm_atsam.o
main_subtasks                                     .build/obj_massdrop_ctrl_greyasteroid/protocol/arm_atsam/main_arm_atsam.o
main_suspend_action                               .build/obj_massdrop_ctrl_greyasteroid/protocol/arm_atsam/usb/main_usb.o
                                                  .build/obj_massdrop_ctrl_greyasteroid/protocol/arm_atsam/usb/usb_device_udd.o
matrix_get_row                                    .build/obj_massdrop_ctrl_greyasteroid/matrix.o
                                                  .build/obj_massdrop_ctrl_greyasteroid/common/arm_atsam/suspend.o
                                                  .build/obj_massdrop_ctrl_greyasteroid/common/keyboard.o
matrix_init                                       .build/obj_massdrop_ctrl_greyasteroid/matrix.o
                                                  .build/obj_massdrop_ctrl_greyasteroid/protocol/arm_atsam/main_arm_atsam.o
                                                  .build/obj_massdrop_ctrl_greyasteroid/common/keyboard.o
matrix_init_kb                                    .build/obj_massdrop_ctrl_greyasteroid/matrix.o
                                                  .build/obj_massdrop_ctrl_greyasteroid/quantum/quantum.o
matrix_init_quantum                               .build/obj_massdrop_ctrl_greyasteroid/quantum/quantum.o
                                                  .build/obj_massdrop_ctrl_greyasteroid/matrix.o
matrix_init_user                                  .build/obj_massdrop_ctrl_greyasteroid/matrix.o
matrix_power_down                                 .build/obj_massdrop_ctrl_greyasteroid/common/arm_atsam/suspend.o
matrix_power_up                                   .build/obj_massdrop_ctrl_greyasteroid/common/arm_atsam/suspend.o
matrix_print                                      .build/obj_massdrop_ctrl_greyasteroid/matrix.o
                                                  .build/obj_massdrop_ctrl_greyasteroid/common/keyboard.o
matrix_scan                                       .build/obj_massdrop_ctrl_greyasteroid/matrix.o
                                                  .build/obj_massdrop_ctrl_greyasteroid/common/arm_atsam/suspend.o
                                                  .build/obj_massdrop_ctrl_greyasteroid/common/keyboard.o
matrix_scan_kb                                    .build/obj_massdrop_ctrl_greyasteroid/matrix.o
                                                  .build/obj_massdrop_ctrl_greyasteroid/quantum/quantum.o
matrix_scan_quantum                               .build/obj_massdrop_ctrl_greyasteroid/quantum/quantum.o
                                                  .build/obj_massdrop_ctrl_greyasteroid/matrix.o
matrix_scan_user                                  .build/obj_massdrop_ctrl_greyasteroid/matrix.o
matrix_setup                                      .build/obj_massdrop_ctrl_greyasteroid/common/keyboard.o
mdebounced                                        .build/obj_massdrop_ctrl_greyasteroid/matrix.o
mdebouncing                                       .build/obj_massdrop_ctrl_greyasteroid/matrix.o
memcpy                                            /usr/local/Cellar/arm-gcc-bin@8/8-2019-q3-update/bin/../lib/gcc/arm-none-eabi/8.3.1/../../../../arm-none-eabi/lib/thumb/v7e-m+fp/hard/libg.a(lib_a-memcpy.o)
                                                  .build/obj_massdrop_ctrl_greyasteroid/protocol/arm_atsam/usb/usb_util.o
                                                  .build/obj_massdrop_ctrl_greyasteroid/protocol/arm_atsam/usb/usb_device_udd.o
                                                  .build/obj_massdrop_ctrl_greyasteroid/protocol/arm_atsam/usb/usb2422.o
                                                  .build/obj_massdrop_ctrl_greyasteroid/protocol/arm_atsam/i2c_master.o
                                                  .build/obj_massdrop_ctrl_greyasteroid/quantum/rgb_matrix.o
memset                                            /usr/local/Cellar/arm-gcc-bin@8/8-2019-q3-update/bin/../lib/gcc/arm-none-eabi/8.3.1/../../../../arm-none-eabi/lib/thumb/v7e-m+fp/hard/libg.a(lib_a-memset.o)
                                                  /usr/local/Cellar/arm-gcc-bin@8/8-2019-q3-update/bin/../lib/gcc/arm-none-eabi/8.3.1/../../../../arm-none-eabi/lib/thumb/v7e-m+fp/hard/libc.a(lib_a-findfp.o)
                                                  /usr/local/Cellar/arm-gcc-bin@8/8-2019-q3-update/bin/../lib/gcc/arm-none-eabi/8.3.1/../../../../arm-none-eabi/lib/thumb/v7e-m+fp/hard/librdimon.a(rdimon-syscalls.o)
                                                  .build/obj_massdrop_ctrl_greyasteroid/protocol/arm_atsam/usb/usb_util.o
                                                  .build/obj_massdrop_ctrl_greyasteroid/protocol/arm_atsam/usb/usb.o
                                                  .build/obj_massdrop_ctrl_greyasteroid/protocol/arm_atsam/usb/usb2422.o
                                                  .build/obj_massdrop_ctrl_greyasteroid/protocol/arm_atsam/usb/udi_hid_kbd.o
                                                  .build/obj_massdrop_ctrl_greyasteroid/protocol/arm_atsam/led_matrix.o
                                                  .build/obj_massdrop_ctrl_greyasteroid/protocol/arm_atsam/i2c_master.o
                                                  .build/obj_massdrop_ctrl_greyasteroid/protocol/arm_atsam/clks.o
                                                  .build/obj_massdrop_ctrl_greyasteroid/common/report.o
                                                  /usr/local/Cellar/arm-gcc-bin@8/8-2019-q3-update/bin/../lib/gcc/arm-none-eabi/8.3.1/../../../../arm-none-eabi/lib/thumb/v7e-m+fp/hard/rdimon-crt0.o
mlast                                             .build/obj_massdrop_ctrl_greyasteroid/matrix.o
mlatest                                           .build/obj_massdrop_ctrl_greyasteroid/matrix.o
mod_config                                        .build/obj_massdrop_ctrl_greyasteroid/quantum/keycode_config.o
                                                  .build/obj_massdrop_ctrl_greyasteroid/quantum/keymap_common.o
ms_clk                                            .build/obj_massdrop_ctrl_greyasteroid/protocol/arm_atsam/clks.o
                                                  .build/obj_massdrop_ctrl_greyasteroid/common/arm_atsam/timer.o
oneshot_layer_changed_kb                          .build/obj_massdrop_ctrl_greyasteroid/common/action_util.o
oneshot_layer_changed_user                        .build/obj_massdrop_ctrl_greyasteroid/common/action_util.o
oneshot_locked_mods_changed_kb                    .build/obj_massdrop_ctrl_greyasteroid/common/action_util.o
oneshot_locked_mods_changed_user                  .build/obj_massdrop_ctrl_greyasteroid/common/action_util.o
oneshot_mods_changed_kb                           .build/obj_massdrop_ctrl_greyasteroid/common/action_util.o
oneshot_mods_changed_user                         .build/obj_massdrop_ctrl_greyasteroid/common/action_util.o
perform_space_cadet                               .build/obj_massdrop_ctrl_greyasteroid/quantum/process_keycode/process_space_cadet.o
post_process_record_kb                            .build/obj_massdrop_ctrl_greyasteroid/quantum/quantum.o
post_process_record_quantum                       .build/obj_massdrop_ctrl_greyasteroid/quantum/quantum.o
post_process_record_user                          .build/obj_massdrop_ctrl_greyasteroid/quantum/quantum.o
printbuf                                          .build/obj_massdrop_ctrl_greyasteroid/protocol/arm_atsam/usb/udi_cdc.o
process_action                                    .build/obj_massdrop_ctrl_greyasteroid/common/action.o
process_action_kb                                 .build/obj_massdrop_ctrl_greyasteroid/quantum/quantum.o
process_grave_esc                                 .build/obj_massdrop_ctrl_greyasteroid/quantum/process_keycode/process_grave_esc.o
                                                  .build/obj_massdrop_ctrl_greyasteroid/quantum/quantum.o
process_magic                                     .build/obj_massdrop_ctrl_greyasteroid/quantum/process_keycode/process_magic.o
                                                  .build/obj_massdrop_ctrl_greyasteroid/quantum/quantum.o
process_record                                    .build/obj_massdrop_ctrl_greyasteroid/common/action.o
                                                  .build/obj_massdrop_ctrl_greyasteroid/common/action_tapping.o
process_record_handler                            .build/obj_massdrop_ctrl_greyasteroid/common/action.o
process_record_kb                                 .build/obj_massdrop_ctrl_greyasteroid/quantum/quantum.o
process_record_nocache                            .build/obj_massdrop_ctrl_greyasteroid/common/action.o
process_record_quantum                            .build/obj_massdrop_ctrl_greyasteroid/quantum/quantum.o
process_record_tap_hint                           .build/obj_massdrop_ctrl_greyasteroid/common/action.o
                                                  .build/obj_massdrop_ctrl_greyasteroid/common/action_tapping.o
process_record_user                               .build/obj_massdrop_ctrl_greyasteroid/quantum/quantum.o
process_rgb                                       .build/obj_massdrop_ctrl_greyasteroid/quantum/process_keycode/process_rgb.o
                                                  .build/obj_massdrop_ctrl_greyasteroid/quantum/quantum.o
process_rgb_matrix                                .build/obj_massdrop_ctrl_greyasteroid/quantum/rgb_matrix.o
                                                  .build/obj_massdrop_ctrl_greyasteroid/quantum/quantum.o
process_space_cadet                               .build/obj_massdrop_ctrl_greyasteroid/quantum/process_keycode/process_space_cadet.o
                                                  .build/obj_massdrop_ctrl_greyasteroid/quantum/quantum.o
rand                                              /usr/local/Cellar/arm-gcc-bin@8/8-2019-q3-update/bin/../lib/gcc/arm-none-eabi/8.3.1/../../../../arm-none-eabi/lib/thumb/v7e-m+fp/hard/libg.a(lib_a-rand.o)
                                                  .build/obj_massdrop_ctrl_greyasteroid/quantum/quantum.o
read_source_layers_cache                          .build/obj_massdrop_ctrl_greyasteroid/common/action_layer.o
                                                  .build/obj_massdrop_ctrl_greyasteroid/quantum/quantum.o
register_code                                     .build/obj_massdrop_ctrl_greyasteroid/common/action.o
                                                  .build/obj_massdrop_ctrl_greyasteroid/common/action_macro.o
                                                  .build/obj_massdrop_ctrl_greyasteroid/quantum/quantum.o
register_code16                                   .build/obj_massdrop_ctrl_greyasteroid/quantum/quantum.o
register_mods                                     .build/obj_massdrop_ctrl_greyasteroid/common/action.o
                                                  .build/obj_massdrop_ctrl_greyasteroid/quantum/process_keycode/process_space_cadet.o
                                                  .build/obj_massdrop_ctrl_greyasteroid/quantum/quantum.o
register_weak_mods                                .build/obj_massdrop_ctrl_greyasteroid/common/action.o
                                                  .build/obj_massdrop_ctrl_greyasteroid/quantum/quantum.o
reset_keyboard                                    .build/obj_massdrop_ctrl_greyasteroid/quantum/quantum.o
reset_oneshot_layer                               .build/obj_massdrop_ctrl_greyasteroid/common/action_util.o
rgb_matrix_config                                 .build/obj_massdrop_ctrl_greyasteroid/quantum/rgb_matrix.o
                                                  .build/obj_massdrop_ctrl_greyasteroid/protocol/arm_atsam/led_matrix.o
rgb_matrix_decrease_hue                           .build/obj_massdrop_ctrl_greyasteroid/quantum/rgb_matrix.o
rgb_matrix_decrease_sat                           .build/obj_massdrop_ctrl_greyasteroid/quantum/rgb_matrix.o
rgb_matrix_decrease_speed                         .build/obj_massdrop_ctrl_greyasteroid/quantum/rgb_matrix.o
rgb_matrix_decrease_val                           .build/obj_massdrop_ctrl_greyasteroid/quantum/rgb_matrix.o
rgb_matrix_disable                                .build/obj_massdrop_ctrl_greyasteroid/quantum/rgb_matrix.o
rgb_matrix_disable_noeeprom                       .build/obj_massdrop_ctrl_greyasteroid/quantum/rgb_matrix.o
rgb_matrix_driver                                 .build/obj_massdrop_ctrl_greyasteroid/protocol/arm_atsam/led_matrix.o
                                                  .build/obj_massdrop_ctrl_greyasteroid/quantum/rgb_matrix.o
rgb_matrix_enable                                 .build/obj_massdrop_ctrl_greyasteroid/quantum/rgb_matrix.o
rgb_matrix_enable_noeeprom                        .build/obj_massdrop_ctrl_greyasteroid/quantum/rgb_matrix.o
rgb_matrix_get_flags                              .build/obj_massdrop_ctrl_greyasteroid/quantum/rgb_matrix.o
rgb_matrix_get_hsv                                .build/obj_massdrop_ctrl_greyasteroid/quantum/rgb_matrix.o
rgb_matrix_get_hue                                .build/obj_massdrop_ctrl_greyasteroid/quantum/rgb_matrix.o
rgb_matrix_get_mode                               .build/obj_massdrop_ctrl_greyasteroid/quantum/rgb_matrix.o
rgb_matrix_get_sat                                .build/obj_massdrop_ctrl_greyasteroid/quantum/rgb_matrix.o
rgb_matrix_get_speed                              .build/obj_massdrop_ctrl_greyasteroid/quantum/rgb_matrix.o
rgb_matrix_get_suspend_state                      .build/obj_massdrop_ctrl_greyasteroid/quantum/rgb_matrix.o
rgb_matrix_get_val                                .build/obj_massdrop_ctrl_greyasteroid/quantum/rgb_matrix.o
rgb_matrix_increase_hue                           .build/obj_massdrop_ctrl_greyasteroid/quantum/rgb_matrix.o
rgb_matrix_increase_sat                           .build/obj_massdrop_ctrl_greyasteroid/quantum/rgb_matrix.o
rgb_matrix_increase_speed                         .build/obj_massdrop_ctrl_greyasteroid/quantum/rgb_matrix.o
rgb_matrix_increase_val                           .build/obj_massdrop_ctrl_greyasteroid/quantum/rgb_matrix.o
rgb_matrix_indicators                             .build/obj_massdrop_ctrl_greyasteroid/quantum/rgb_matrix.o
rgb_matrix_indicators_kb                          .build/obj_massdrop_ctrl_greyasteroid/config_led.o
rgb_matrix_indicators_user                        .build/obj_massdrop_ctrl_greyasteroid/quantum/rgb_matrix.o
rgb_matrix_init                                   .build/obj_massdrop_ctrl_greyasteroid/quantum/rgb_matrix.o
                                                  .build/obj_massdrop_ctrl_greyasteroid/quantum/quantum.o
rgb_matrix_is_enabled                             .build/obj_massdrop_ctrl_greyasteroid/quantum/rgb_matrix.o
rgb_matrix_map_row_column_to_led                  .build/obj_massdrop_ctrl_greyasteroid/quantum/rgb_matrix.o
rgb_matrix_map_row_column_to_led_kb               .build/obj_massdrop_ctrl_greyasteroid/quantum/rgb_matrix.o
rgb_matrix_mode                                   .build/obj_massdrop_ctrl_greyasteroid/quantum/rgb_matrix.o
                                                  .build/obj_massdrop_ctrl_greyasteroid/quantum/process_keycode/process_rgb.o
rgb_matrix_mode_noeeprom                          .build/obj_massdrop_ctrl_greyasteroid/quantum/rgb_matrix.o
rgb_matrix_set_color                              .build/obj_massdrop_ctrl_greyasteroid/quantum/rgb_matrix.o
rgb_matrix_set_color_all                          .build/obj_massdrop_ctrl_greyasteroid/quantum/rgb_matrix.o
rgb_matrix_set_flags                              .build/obj_massdrop_ctrl_greyasteroid/quantum/rgb_matrix.o
rgb_matrix_set_suspend_state                      .build/obj_massdrop_ctrl_greyasteroid/quantum/rgb_matrix.o
rgb_matrix_sethsv                                 .build/obj_massdrop_ctrl_greyasteroid/quantum/rgb_matrix.o
rgb_matrix_sethsv_noeeprom                        .build/obj_massdrop_ctrl_greyasteroid/quantum/rgb_matrix.o
rgb_matrix_step                                   .build/obj_massdrop_ctrl_greyasteroid/quantum/rgb_matrix.o
rgb_matrix_step_reverse                           .build/obj_massdrop_ctrl_greyasteroid/quantum/rgb_matrix.o
rgb_matrix_task                                   .build/obj_massdrop_ctrl_greyasteroid/quantum/rgb_matrix.o
                                                  .build/obj_massdrop_ctrl_greyasteroid/quantum/quantum.o
rgb_matrix_test                                   .build/obj_massdrop_ctrl_greyasteroid/quantum/rgb_matrix.o
rgb_matrix_toggle                                 .build/obj_massdrop_ctrl_greyasteroid/quantum/rgb_matrix.o
rgb_matrix_update_pwm_buffers                     .build/obj_massdrop_ctrl_greyasteroid/quantum/rgb_matrix.o
row_masks                                         .build/obj_massdrop_ctrl_greyasteroid/matrix.o
row_pins                                          .build/obj_massdrop_ctrl_greyasteroid/matrix.o
row_ports                                         .build/obj_massdrop_ctrl_greyasteroid/matrix.o
send_byte                                         .build/obj_massdrop_ctrl_greyasteroid/quantum/quantum.o
send_char                                         .build/obj_massdrop_ctrl_greyasteroid/quantum/quantum.o
send_consumer                                     .build/obj_massdrop_ctrl_greyasteroid/protocol/arm_atsam/main_arm_atsam.o
send_dword                                        .build/obj_massdrop_ctrl_greyasteroid/quantum/quantum.o
send_extra                                        .build/obj_massdrop_ctrl_greyasteroid/protocol/arm_atsam/main_arm_atsam.o
send_keyboard                                     .build/obj_massdrop_ctrl_greyasteroid/protocol/arm_atsam/main_arm_atsam.o
send_keyboard_report                              .build/obj_massdrop_ctrl_greyasteroid/common/action_util.o
                                                  .build/obj_massdrop_ctrl_greyasteroid/common/action_macro.o
                                                  .build/obj_massdrop_ctrl_greyasteroid/common/action.o
                                                  .build/obj_massdrop_ctrl_greyasteroid/quantum/process_keycode/process_grave_esc.o
send_mouse                                        .build/obj_massdrop_ctrl_greyasteroid/protocol/arm_atsam/main_arm_atsam.o
send_nibble                                       .build/obj_massdrop_ctrl_greyasteroid/quantum/quantum.o
send_string                                       .build/obj_massdrop_ctrl_greyasteroid/quantum/quantum.o
send_string_P                                     .build/obj_massdrop_ctrl_greyasteroid/quantum/quantum.o
send_string_with_delay                            .build/obj_massdrop_ctrl_greyasteroid/quantum/quantum.o
send_string_with_delay_P                          .build/obj_massdrop_ctrl_greyasteroid/quantum/quantum.o
send_system                                       .build/obj_massdrop_ctrl_greyasteroid/protocol/arm_atsam/main_arm_atsam.o
send_word                                         .build/obj_massdrop_ctrl_greyasteroid/quantum/quantum.o
sendchar                                          .build/obj_massdrop_ctrl_greyasteroid/common/sendchar_null.o
sercom_apbbase                                    .build/obj_massdrop_ctrl_greyasteroid/protocol/arm_atsam/clks.o
sercom_pchan                                      .build/obj_massdrop_ctrl_greyasteroid/protocol/arm_atsam/clks.o
set_macro_mods                                    .build/obj_massdrop_ctrl_greyasteroid/common/action_util.o
set_mods                                          .build/obj_massdrop_ctrl_greyasteroid/common/action_util.o
set_oneshot_layer                                 .build/obj_massdrop_ctrl_greyasteroid/common/action_util.o
                                                  .build/obj_massdrop_ctrl_greyasteroid/common/action.o
set_oneshot_locked_mods                           .build/obj_massdrop_ctrl_greyasteroid/common/action_util.o
set_oneshot_mods                                  .build/obj_massdrop_ctrl_greyasteroid/common/action_util.o
                                                  .build/obj_massdrop_ctrl_greyasteroid/common/action.o
set_single_persistent_default_layer               .build/obj_massdrop_ctrl_greyasteroid/quantum/quantum.o
set_time                                          .build/obj_massdrop_ctrl_greyasteroid/common/arm_atsam/timer.o
set_weak_mods                                     .build/obj_massdrop_ctrl_greyasteroid/common/action_util.o
should_process_keypress                           .build/obj_massdrop_ctrl_greyasteroid/common/keyboard.o
shutdown_user                                     .build/obj_massdrop_ctrl_greyasteroid/quantum/quantum.o
source_layers_cache                               .build/obj_massdrop_ctrl_greyasteroid/common/action_layer.o
sr_exp_data                                       .build/obj_massdrop_ctrl_greyasteroid/protocol/arm_atsam/spi.o
                                                  .build/obj_massdrop_ctrl_greyasteroid/protocol/arm_atsam/usb/usb2422.o
                                                  .build/obj_massdrop_ctrl_greyasteroid/protocol/arm_atsam/led_matrix.o
                                                  .build/obj_massdrop_ctrl_greyasteroid/protocol/arm_atsam/i2c_master.o
srand                                             /usr/local/Cellar/arm-gcc-bin@8/8-2019-q3-update/bin/../lib/gcc/arm-none-eabi/8.3.1/../../../../arm-none-eabi/lib/thumb/v7e-m+fp/hard/libg.a(lib_a-rand.o)
startup_user                                      .build/obj_massdrop_ctrl_greyasteroid/quantum/quantum.o
store_or_get_action                               .build/obj_massdrop_ctrl_greyasteroid/common/action_layer.o
                                                  .build/obj_massdrop_ctrl_greyasteroid/common/action.o
strlen                                            /usr/local/Cellar/arm-gcc-bin@8/8-2019-q3-update/bin/../lib/gcc/arm-none-eabi/8.3.1/../../../../arm-none-eabi/lib/thumb/v7e-m+fp/hard/libc.a(lib_a-strlen.o)
                                                  /usr/local/Cellar/arm-gcc-bin@8/8-2019-q3-update/bin/../lib/gcc/arm-none-eabi/8.3.1/../../../../arm-none-eabi/lib/thumb/v7e-m+fp/hard/librdimon.a(rdimon-syscalls.o)
suspend_idle                                      .build/obj_massdrop_ctrl_greyasteroid/common/arm_atsam/suspend.o
suspend_power_down                                .build/obj_massdrop_ctrl_greyasteroid/common/arm_atsam/suspend.o
                                                  .build/obj_massdrop_ctrl_greyasteroid/protocol/arm_atsam/main_arm_atsam.o
suspend_power_down_kb                             .build/obj_massdrop_ctrl_greyasteroid/common/arm_atsam/suspend.o
suspend_power_down_user                           .build/obj_massdrop_ctrl_greyasteroid/common/arm_atsam/suspend.o
suspend_wakeup_condition                          .build/obj_massdrop_ctrl_greyasteroid/common/arm_atsam/suspend.o
                                                  .build/obj_massdrop_ctrl_greyasteroid/protocol/arm_atsam/main_arm_atsam.o
suspend_wakeup_init                               .build/obj_massdrop_ctrl_greyasteroid/common/arm_atsam/suspend.o
                                                  .build/obj_massdrop_ctrl_greyasteroid/protocol/arm_atsam/main_arm_atsam.o
suspend_wakeup_init_kb                            .build/obj_massdrop_ctrl_greyasteroid/common/arm_atsam/suspend.o
suspend_wakeup_init_user                          .build/obj_massdrop_ctrl_greyasteroid/common/arm_atsam/suspend.o
system_clks                                       .build/obj_massdrop_ctrl_greyasteroid/protocol/arm_atsam/clks.o
tap_code                                          .build/obj_massdrop_ctrl_greyasteroid/common/action.o
                                                  .build/obj_massdrop_ctrl_greyasteroid/quantum/process_keycode/process_space_cadet.o
                                                  .build/obj_massdrop_ctrl_greyasteroid/quantum/quantum.o
tap_code16                                        .build/obj_massdrop_ctrl_greyasteroid/quantum/quantum.o
tap_random_base64                                 .build/obj_massdrop_ctrl_greyasteroid/quantum/quantum.o
timer_clear                                       .build/obj_massdrop_ctrl_greyasteroid/common/arm_atsam/timer.o
timer_elapsed                                     .build/obj_massdrop_ctrl_greyasteroid/common/arm_atsam/timer.o
                                                  .build/obj_massdrop_ctrl_greyasteroid/quantum/process_keycode/process_space_cadet.o
                                                  .build/obj_massdrop_ctrl_greyasteroid/quantum/debounce/sym_g.o
timer_elapsed32                                   .build/obj_massdrop_ctrl_greyasteroid/common/arm_atsam/timer.o
                                                  .build/obj_massdrop_ctrl_greyasteroid/quantum/rgb_matrix.o
timer_init                                        .build/obj_massdrop_ctrl_greyasteroid/common/arm_atsam/timer.o
                                                  .build/obj_massdrop_ctrl_greyasteroid/common/keyboard.o
timer_read                                        .build/obj_massdrop_ctrl_greyasteroid/common/arm_atsam/timer.o
                                                  .build/obj_massdrop_ctrl_greyasteroid/common/keyboard.o
                                                  .build/obj_massdrop_ctrl_greyasteroid/quantum/process_keycode/process_space_cadet.o
                                                  .build/obj_massdrop_ctrl_greyasteroid/quantum/debounce/sym_g.o
timer_read32                                      .build/obj_massdrop_ctrl_greyasteroid/common/arm_atsam/timer.o
                                                  .build/obj_massdrop_ctrl_greyasteroid/quantum/rgb_matrix.o
timer_read64                                      .build/obj_massdrop_ctrl_greyasteroid/common/arm_atsam/timer.o
                                                  .build/obj_massdrop_ctrl_greyasteroid/protocol/arm_atsam/usb/usb2422.o
                                                  .build/obj_massdrop_ctrl_greyasteroid/protocol/arm_atsam/main_arm_atsam.o
                                                  .build/obj_massdrop_ctrl_greyasteroid/protocol/arm_atsam/clks.o
                                                  .build/obj_massdrop_ctrl_greyasteroid/matrix.o
tp_buttons                                        .build/obj_massdrop_ctrl_greyasteroid/common/action.o
udc_config                                        .build/obj_massdrop_ctrl_greyasteroid/protocol/arm_atsam/usb/udi_hid_kbd_desc.o
                                                  .build/obj_massdrop_ctrl_greyasteroid/protocol/arm_atsam/usb/udc.o
udc_config_fshs                                   .build/obj_massdrop_ctrl_greyasteroid/protocol/arm_atsam/usb/udi_hid_kbd_desc.o
udc_desc                                          .build/obj_massdrop_ctrl_greyasteroid/protocol/arm_atsam/usb/udi_hid_kbd_desc.o
udc_device_desc                                   .build/obj_massdrop_ctrl_greyasteroid/protocol/arm_atsam/usb/udi_hid_kbd_desc.o
udc_get_interface_desc                            .build/obj_massdrop_ctrl_greyasteroid/protocol/arm_atsam/usb/udc.o
                                                  .build/obj_massdrop_ctrl_greyasteroid/protocol/arm_atsam/usb/udi_hid.o
udc_process_setup                                 .build/obj_massdrop_ctrl_greyasteroid/protocol/arm_atsam/usb/udc.o
                                                  .build/obj_massdrop_ctrl_greyasteroid/protocol/arm_atsam/usb/usb_device_udd.o
udc_reset                                         .build/obj_massdrop_ctrl_greyasteroid/protocol/arm_atsam/usb/udc.o
                                                  .build/obj_massdrop_ctrl_greyasteroid/protocol/arm_atsam/usb/usb_device_udd.o
udc_sof_notify                                    .build/obj_massdrop_ctrl_greyasteroid/protocol/arm_atsam/usb/udc.o
                                                  .build/obj_massdrop_ctrl_greyasteroid/protocol/arm_atsam/usb/usb_device_udd.o
udc_start                                         .build/obj_massdrop_ctrl_greyasteroid/protocol/arm_atsam/usb/udc.o
                                                  .build/obj_massdrop_ctrl_greyasteroid/protocol/arm_atsam/main_arm_atsam.o
udc_stop                                          .build/obj_massdrop_ctrl_greyasteroid/protocol/arm_atsam/usb/udc.o
udd_attach                                        .build/obj_massdrop_ctrl_greyasteroid/protocol/arm_atsam/usb/usb_device_udd.o
udd_ctrl_buffer                                   .build/obj_massdrop_ctrl_greyasteroid/protocol/arm_atsam/usb/usb_device_udd.o
udd_detach                                        .build/obj_massdrop_ctrl_greyasteroid/protocol/arm_atsam/usb/usb_device_udd.o
udd_disable                                       .build/obj_massdrop_ctrl_greyasteroid/protocol/arm_atsam/usb/usb_device_udd.o
                                                  .build/obj_massdrop_ctrl_greyasteroid/protocol/arm_atsam/usb/udc.o
udd_enable                                        .build/obj_massdrop_ctrl_greyasteroid/protocol/arm_atsam/usb/usb_device_udd.o
                                                  .build/obj_massdrop_ctrl_greyasteroid/protocol/arm_atsam/usb/udc.o
udd_ep_abort                                      .build/obj_massdrop_ctrl_greyasteroid/protocol/arm_atsam/usb/usb_device_udd.o
                                                  .build/obj_massdrop_ctrl_greyasteroid/protocol/arm_atsam/usb/udc.o
udd_ep_alloc                                      .build/obj_massdrop_ctrl_greyasteroid/protocol/arm_atsam/usb/usb_device_udd.o
                                                  .build/obj_massdrop_ctrl_greyasteroid/protocol/arm_atsam/usb/udc.o
udd_ep_clear_halt                                 .build/obj_massdrop_ctrl_greyasteroid/protocol/arm_atsam/usb/usb_device_udd.o
                                                  .build/obj_massdrop_ctrl_greyasteroid/protocol/arm_atsam/usb/udc.o
udd_ep_free                                       .build/obj_massdrop_ctrl_greyasteroid/protocol/arm_atsam/usb/usb_device_udd.o
                                                  .build/obj_massdrop_ctrl_greyasteroid/protocol/arm_atsam/usb/udc.o
udd_ep_is_halted                                  .build/obj_massdrop_ctrl_greyasteroid/protocol/arm_atsam/usb/usb_device_udd.o
                                                  .build/obj_massdrop_ctrl_greyasteroid/protocol/arm_atsam/usb/udc.o
udd_ep_out_cache_buffer                           .build/obj_massdrop_ctrl_greyasteroid/protocol/arm_atsam/usb/usb_device_udd.o
udd_ep_run                                        .build/obj_massdrop_ctrl_greyasteroid/protocol/arm_atsam/usb/usb_device_udd.o
                                                  .build/obj_massdrop_ctrl_greyasteroid/protocol/arm_atsam/usb/udi_hid_kbd.o
udd_ep_set_halt                                   .build/obj_massdrop_ctrl_greyasteroid/protocol/arm_atsam/usb/usb_device_udd.o
                                                  .build/obj_massdrop_ctrl_greyasteroid/protocol/arm_atsam/usb/udc.o
udd_ep_wait_stall_clear                           .build/obj_massdrop_ctrl_greyasteroid/protocol/arm_atsam/usb/usb_device_udd.o
udd_g_ctrlreq                                     .build/obj_massdrop_ctrl_greyasteroid/protocol/arm_atsam/usb/usb_device_udd.o
                                                  .build/obj_massdrop_ctrl_greyasteroid/protocol/arm_atsam/usb/udi_hid_kbd.o
                                                  .build/obj_massdrop_ctrl_greyasteroid/protocol/arm_atsam/usb/udi_hid.o
                                                  .build/obj_massdrop_ctrl_greyasteroid/protocol/arm_atsam/usb/udc.o
udd_get_frame_number                              .build/obj_massdrop_ctrl_greyasteroid/protocol/arm_atsam/usb/usb_device_udd.o
                                                  .build/obj_massdrop_ctrl_greyasteroid/protocol/arm_atsam/usb/main_usb.o
udd_get_micro_frame_number                        .build/obj_massdrop_ctrl_greyasteroid/protocol/arm_atsam/usb/usb_device_udd.o
udd_getaddress                                    .build/obj_massdrop_ctrl_greyasteroid/protocol/arm_atsam/usb/usb_device_udd.o
                                                  .build/obj_massdrop_ctrl_greyasteroid/protocol/arm_atsam/usb/udc.o
udd_is_high_speed                                 .build/obj_massdrop_ctrl_greyasteroid/protocol/arm_atsam/usb/usb_device_udd.o
udd_send_remotewakeup                             .build/obj_massdrop_ctrl_greyasteroid/protocol/arm_atsam/usb/usb_device_udd.o
                                                  .build/obj_massdrop_ctrl_greyasteroid/protocol/arm_atsam/main_arm_atsam.o
udd_set_address                                   .build/obj_massdrop_ctrl_greyasteroid/protocol/arm_atsam/usb/usb_device_udd.o
                                                  .build/obj_massdrop_ctrl_greyasteroid/protocol/arm_atsam/usb/udc.o
udd_set_setup_payload                             .build/obj_massdrop_ctrl_greyasteroid/protocol/arm_atsam/usb/usb_device_udd.o
                                                  .build/obj_massdrop_ctrl_greyasteroid/protocol/arm_atsam/usb/udc.o
udi_api_hid_exk                                   .build/obj_massdrop_ctrl_greyasteroid/protocol/arm_atsam/usb/udi_hid_kbd.o
                                                  .build/obj_massdrop_ctrl_greyasteroid/protocol/arm_atsam/usb/udi_hid_kbd_desc.o
udi_api_hid_kbd                                   .build/obj_massdrop_ctrl_greyasteroid/protocol/arm_atsam/usb/udi_hid_kbd.o
                                                  .build/obj_massdrop_ctrl_greyasteroid/protocol/arm_atsam/usb/udi_hid_kbd_desc.o
udi_api_hid_nkro                                  .build/obj_massdrop_ctrl_greyasteroid/protocol/arm_atsam/usb/udi_hid_kbd.o
                                                  .build/obj_massdrop_ctrl_greyasteroid/protocol/arm_atsam/usb/udi_hid_kbd_desc.o
udi_apis                                          .build/obj_massdrop_ctrl_greyasteroid/protocol/arm_atsam/usb/udi_hid_kbd_desc.o
udi_hid_exk_b_report_valid                        .build/obj_massdrop_ctrl_greyasteroid/protocol/arm_atsam/usb/udi_hid_kbd.o
                                                  .build/obj_massdrop_ctrl_greyasteroid/protocol/arm_atsam/main_arm_atsam.o
udi_hid_exk_disable                               .build/obj_massdrop_ctrl_greyasteroid/protocol/arm_atsam/usb/udi_hid_kbd.o
udi_hid_exk_enable                                .build/obj_massdrop_ctrl_greyasteroid/protocol/arm_atsam/usb/udi_hid_kbd.o
udi_hid_exk_getsetting                            .build/obj_massdrop_ctrl_greyasteroid/protocol/arm_atsam/usb/udi_hid_kbd.o
udi_hid_exk_report                                .build/obj_massdrop_ctrl_greyasteroid/protocol/arm_atsam/usb/udi_hid_kbd.o
                                                  .build/obj_massdrop_ctrl_greyasteroid/protocol/arm_atsam/main_arm_atsam.o
udi_hid_exk_report_desc                           .build/obj_massdrop_ctrl_greyasteroid/protocol/arm_atsam/usb/udi_hid_kbd.o
udi_hid_exk_report_set                            .build/obj_massdrop_ctrl_greyasteroid/protocol/arm_atsam/usb/udi_hid_kbd.o
udi_hid_exk_send_report                           .build/obj_massdrop_ctrl_greyasteroid/protocol/arm_atsam/usb/udi_hid_kbd.o
                                                  .build/obj_massdrop_ctrl_greyasteroid/protocol/arm_atsam/main_arm_atsam.o
udi_hid_exk_setup                                 .build/obj_massdrop_ctrl_greyasteroid/protocol/arm_atsam/usb/udi_hid_kbd.o
udi_hid_kbd_b_report_trans_ongoing                .build/obj_massdrop_ctrl_greyasteroid/protocol/arm_atsam/usb/udi_hid_kbd.o
                                                  .build/obj_massdrop_ctrl_greyasteroid/protocol/arm_atsam/main_arm_atsam.o
udi_hid_kbd_b_report_valid                        .build/obj_massdrop_ctrl_greyasteroid/protocol/arm_atsam/usb/udi_hid_kbd.o
                                                  .build/obj_massdrop_ctrl_greyasteroid/protocol/arm_atsam/main_arm_atsam.o
udi_hid_kbd_disable                               .build/obj_massdrop_ctrl_greyasteroid/protocol/arm_atsam/usb/udi_hid_kbd.o
udi_hid_kbd_enable                                .build/obj_massdrop_ctrl_greyasteroid/protocol/arm_atsam/usb/udi_hid_kbd.o
udi_hid_kbd_getsetting                            .build/obj_massdrop_ctrl_greyasteroid/protocol/arm_atsam/usb/udi_hid_kbd.o
udi_hid_kbd_report                                .build/obj_massdrop_ctrl_greyasteroid/protocol/arm_atsam/usb/udi_hid_kbd.o
                                                  .build/obj_massdrop_ctrl_greyasteroid/protocol/arm_atsam/main_arm_atsam.o
udi_hid_kbd_report_desc                           .build/obj_massdrop_ctrl_greyasteroid/protocol/arm_atsam/usb/udi_hid_kbd.o
udi_hid_kbd_report_set                            .build/obj_massdrop_ctrl_greyasteroid/protocol/arm_atsam/usb/udi_hid_kbd.o
                                                  .build/obj_massdrop_ctrl_greyasteroid/protocol/arm_atsam/main_arm_atsam.o
udi_hid_kbd_send_report                           .build/obj_massdrop_ctrl_greyasteroid/protocol/arm_atsam/usb/udi_hid_kbd.o
                                                  .build/obj_massdrop_ctrl_greyasteroid/protocol/arm_atsam/main_arm_atsam.o
udi_hid_kbd_setup                                 .build/obj_massdrop_ctrl_greyasteroid/protocol/arm_atsam/usb/udi_hid_kbd.o
udi_hid_nkro_b_report_trans_ongoing               .build/obj_massdrop_ctrl_greyasteroid/protocol/arm_atsam/usb/udi_hid_kbd.o
                                                  .build/obj_massdrop_ctrl_greyasteroid/protocol/arm_atsam/main_arm_atsam.o
udi_hid_nkro_b_report_valid                       .build/obj_massdrop_ctrl_greyasteroid/protocol/arm_atsam/usb/udi_hid_kbd.o
                                                  .build/obj_massdrop_ctrl_greyasteroid/protocol/arm_atsam/main_arm_atsam.o
udi_hid_nkro_disable                              .build/obj_massdrop_ctrl_greyasteroid/protocol/arm_atsam/usb/udi_hid_kbd.o
udi_hid_nkro_enable                               .build/obj_massdrop_ctrl_greyasteroid/protocol/arm_atsam/usb/udi_hid_kbd.o
udi_hid_nkro_getsetting                           .build/obj_massdrop_ctrl_greyasteroid/protocol/arm_atsam/usb/udi_hid_kbd.o
udi_hid_nkro_report                               .build/obj_massdrop_ctrl_greyasteroid/protocol/arm_atsam/usb/udi_hid_kbd.o
                                                  .build/obj_massdrop_ctrl_greyasteroid/protocol/arm_atsam/main_arm_atsam.o
udi_hid_nkro_report_desc                          .build/obj_massdrop_ctrl_greyasteroid/protocol/arm_atsam/usb/udi_hid_kbd.o
udi_hid_nkro_report_set                           .build/obj_massdrop_ctrl_greyasteroid/protocol/arm_atsam/usb/udi_hid_kbd.o
                                                  .build/obj_massdrop_ctrl_greyasteroid/protocol/arm_atsam/main_arm_atsam.o
udi_hid_nkro_send_report                          .build/obj_massdrop_ctrl_greyasteroid/protocol/arm_atsam/usb/udi_hid_kbd.o
                                                  .build/obj_massdrop_ctrl_greyasteroid/protocol/arm_atsam/main_arm_atsam.o
udi_hid_nkro_setup                                .build/obj_massdrop_ctrl_greyasteroid/protocol/arm_atsam/usb/udi_hid_kbd.o
udi_hid_setup                                     .build/obj_massdrop_ctrl_greyasteroid/protocol/arm_atsam/usb/udi_hid.o
                                                  .build/obj_massdrop_ctrl_greyasteroid/protocol/arm_atsam/usb/udi_hid_kbd.o
ui_init                                           .build/obj_massdrop_ctrl_greyasteroid/protocol/arm_atsam/usb/ui.o
ui_kbd_led                                        .build/obj_massdrop_ctrl_greyasteroid/protocol/arm_atsam/usb/ui.o
ui_powerdown                                      .build/obj_massdrop_ctrl_greyasteroid/protocol/arm_atsam/usb/ui.o
                                                  .build/obj_massdrop_ctrl_greyasteroid/protocol/arm_atsam/usb/main_usb.o
ui_process                                        .build/obj_massdrop_ctrl_greyasteroid/protocol/arm_atsam/usb/ui.o
                                                  .build/obj_massdrop_ctrl_greyasteroid/protocol/arm_atsam/usb/main_usb.o
ui_wakeup                                         .build/obj_massdrop_ctrl_greyasteroid/protocol/arm_atsam/usb/ui.o
                                                  .build/obj_massdrop_ctrl_greyasteroid/protocol/arm_atsam/usb/main_usb.o
ui_wakeup_disable                                 .build/obj_massdrop_ctrl_greyasteroid/protocol/arm_atsam/usb/ui.o
                                                  .build/obj_massdrop_ctrl_greyasteroid/protocol/arm_atsam/usb/main_usb.o
ui_wakeup_enable                                  .build/obj_massdrop_ctrl_greyasteroid/protocol/arm_atsam/usb/ui.o
                                                  .build/obj_massdrop_ctrl_greyasteroid/protocol/arm_atsam/usb/main_usb.o
unregister_code                                   .build/obj_massdrop_ctrl_greyasteroid/common/action.o
                                                  .build/obj_massdrop_ctrl_greyasteroid/common/action_macro.o
                                                  .build/obj_massdrop_ctrl_greyasteroid/quantum/quantum.o
unregister_code16                                 .build/obj_massdrop_ctrl_greyasteroid/quantum/quantum.o
unregister_mods                                   .build/obj_massdrop_ctrl_greyasteroid/common/action.o
                                                  .build/obj_massdrop_ctrl_greyasteroid/quantum/process_keycode/process_space_cadet.o
                                                  .build/obj_massdrop_ctrl_greyasteroid/quantum/quantum.o
unregister_weak_mods                              .build/obj_massdrop_ctrl_greyasteroid/common/action.o
                                                  .build/obj_massdrop_ctrl_greyasteroid/quantum/quantum.o
update_source_layers_cache                        .build/obj_massdrop_ctrl_greyasteroid/common/action_layer.o
                                                  .build/obj_massdrop_ctrl_greyasteroid/quantum/quantum.o
update_tri_layer                                  .build/obj_massdrop_ctrl_greyasteroid/quantum/quantum.o
update_tri_layer_state                            .build/obj_massdrop_ctrl_greyasteroid/quantum/quantum.o
usb_descriptor_table                              .build/obj_massdrop_ctrl_greyasteroid/protocol/arm_atsam/usb/usb.o
usb_device                                        .build/obj_massdrop_ctrl_greyasteroid/protocol/arm_atsam/usb/usb_device_udd.o
usb_device_disable_callback                       .build/obj_massdrop_ctrl_greyasteroid/protocol/arm_atsam/usb/usb.o
                                                  .build/obj_massdrop_ctrl_greyasteroid/protocol/arm_atsam/usb/usb_device_udd.o
usb_device_enable_callback                        .build/obj_massdrop_ctrl_greyasteroid/protocol/arm_atsam/usb/usb.o
                                                  .build/obj_massdrop_ctrl_greyasteroid/protocol/arm_atsam/usb/usb_device_udd.o
usb_device_endpoint_abort_job                     .build/obj_massdrop_ctrl_greyasteroid/protocol/arm_atsam/usb/usb.o
                                                  .build/obj_massdrop_ctrl_greyasteroid/protocol/arm_atsam/usb/usb_device_udd.o
usb_device_endpoint_clear_halt                    .build/obj_massdrop_ctrl_greyasteroid/protocol/arm_atsam/usb/usb.o
                                                  .build/obj_massdrop_ctrl_greyasteroid/protocol/arm_atsam/usb/usb_device_udd.o
usb_device_endpoint_disable_callback              .build/obj_massdrop_ctrl_greyasteroid/protocol/arm_atsam/usb/usb.o
                                                  .build/obj_massdrop_ctrl_greyasteroid/protocol/arm_atsam/usb/usb_device_udd.o
usb_device_endpoint_enable_callback               .build/obj_massdrop_ctrl_greyasteroid/protocol/arm_atsam/usb/usb.o
                                                  .build/obj_massdrop_ctrl_greyasteroid/protocol/arm_atsam/usb/usb_device_udd.o
usb_device_endpoint_get_config_defaults           .build/obj_massdrop_ctrl_greyasteroid/protocol/arm_atsam/usb/usb.o
                                                  .build/obj_massdrop_ctrl_greyasteroid/protocol/arm_atsam/usb/usb_device_udd.o
usb_device_endpoint_is_configured                 .build/obj_massdrop_ctrl_greyasteroid/protocol/arm_atsam/usb/usb.o
                                                  .build/obj_massdrop_ctrl_greyasteroid/protocol/arm_atsam/usb/usb_device_udd.o
usb_device_endpoint_is_halted                     .build/obj_massdrop_ctrl_greyasteroid/protocol/arm_atsam/usb/usb.o
                                                  .build/obj_massdrop_ctrl_greyasteroid/protocol/arm_atsam/usb/usb_device_udd.o
usb_device_endpoint_read_buffer_job               .build/obj_massdrop_ctrl_greyasteroid/protocol/arm_atsam/usb/usb.o
                                                  .build/obj_massdrop_ctrl_greyasteroid/protocol/arm_atsam/usb/usb_device_udd.o
usb_device_endpoint_register_callback             .build/obj_massdrop_ctrl_greyasteroid/protocol/arm_atsam/usb/usb.o
                                                  .build/obj_massdrop_ctrl_greyasteroid/protocol/arm_atsam/usb/usb_device_udd.o
usb_device_endpoint_set_config                    .build/obj_massdrop_ctrl_greyasteroid/protocol/arm_atsam/usb/usb.o
                                                  .build/obj_massdrop_ctrl_greyasteroid/protocol/arm_atsam/usb/usb_device_udd.o
usb_device_endpoint_set_halt                      .build/obj_massdrop_ctrl_greyasteroid/protocol/arm_atsam/usb/usb.o
                                                  .build/obj_massdrop_ctrl_greyasteroid/protocol/arm_atsam/usb/usb_device_udd.o
usb_device_endpoint_setup_buffer_job              .build/obj_massdrop_ctrl_greyasteroid/protocol/arm_atsam/usb/usb.o
                                                  .build/obj_massdrop_ctrl_greyasteroid/protocol/arm_atsam/usb/usb_device_udd.o
usb_device_endpoint_unregister_callback           .build/obj_massdrop_ctrl_greyasteroid/protocol/arm_atsam/usb/usb.o
                                                  .build/obj_massdrop_ctrl_greyasteroid/protocol/arm_atsam/usb/usb_device_udd.o
usb_device_endpoint_write_buffer_job              .build/obj_massdrop_ctrl_greyasteroid/protocol/arm_atsam/usb/usb.o
                                                  .build/obj_massdrop_ctrl_greyasteroid/protocol/arm_atsam/usb/usb_device_udd.o
usb_device_register_callback                      .build/obj_massdrop_ctrl_greyasteroid/protocol/arm_atsam/usb/usb.o
                                                  .build/obj_massdrop_ctrl_greyasteroid/protocol/arm_atsam/usb/usb_device_udd.o
usb_device_serial_name_size                       .build/obj_massdrop_ctrl_greyasteroid/protocol/arm_atsam/usb/udc.o
usb_device_unregister_callback                    .build/obj_massdrop_ctrl_greyasteroid/protocol/arm_atsam/usb/usb.o
usb_disable                                       .build/obj_massdrop_ctrl_greyasteroid/protocol/arm_atsam/usb/usb.o
usb_enable                                        .build/obj_massdrop_ctrl_greyasteroid/protocol/arm_atsam/usb/usb.o
                                                  .build/obj_massdrop_ctrl_greyasteroid/protocol/arm_atsam/usb/usb_device_udd.o
usb_extra_manual                                  .build/obj_massdrop_ctrl_greyasteroid/protocol/arm_atsam/usb/usb2422.o
                                                  .build/obj_massdrop_ctrl_greyasteroid/protocol/arm_atsam/led_matrix.o
usb_extra_state                                   .build/obj_massdrop_ctrl_greyasteroid/protocol/arm_atsam/usb/usb2422.o
                                                  .build/obj_massdrop_ctrl_greyasteroid/protocol/arm_atsam/led_matrix.o
usb_gcr_auto                                      .build/obj_massdrop_ctrl_greyasteroid/protocol/arm_atsam/usb/usb2422.o
                                                  .build/obj_massdrop_ctrl_greyasteroid/protocol/arm_atsam/led_matrix.o
usb_get_config_defaults                           .build/obj_massdrop_ctrl_greyasteroid/protocol/arm_atsam/usb/usb.o
                                                  .build/obj_massdrop_ctrl_greyasteroid/protocol/arm_atsam/usb/usb_device_udd.o
usb_host_port                                     .build/obj_massdrop_ctrl_greyasteroid/protocol/arm_atsam/usb/usb2422.o
usb_init                                          .build/obj_massdrop_ctrl_greyasteroid/protocol/arm_atsam/usb/usb.o
                                                  .build/obj_massdrop_ctrl_greyasteroid/protocol/arm_atsam/usb/usb_device_udd.o
usec_delay_mult                                   .build/obj_massdrop_ctrl_greyasteroid/protocol/arm_atsam/clks.o
v_5v                                              .build/obj_massdrop_ctrl_greyasteroid/protocol/arm_atsam/adc.o
                                                  .build/obj_massdrop_ctrl_greyasteroid/protocol/arm_atsam/usb/usb2422.o
                                                  .build/obj_massdrop_ctrl_greyasteroid/protocol/arm_atsam/main_arm_atsam.o
                                                  .build/obj_massdrop_ctrl_greyasteroid/protocol/arm_atsam/led_matrix.o
v_5v_avg                                          .build/obj_massdrop_ctrl_greyasteroid/protocol/arm_atsam/adc.o
                                                  .build/obj_massdrop_ctrl_greyasteroid/protocol/arm_atsam/main_arm_atsam.o
                                                  .build/obj_massdrop_ctrl_greyasteroid/protocol/arm_atsam/led_matrix.o
v_con_1                                           .build/obj_massdrop_ctrl_greyasteroid/protocol/arm_atsam/adc.o
                                                  .build/obj_massdrop_ctrl_greyasteroid/protocol/arm_atsam/usb/usb2422.o
v_con_1_boot                                      .build/obj_massdrop_ctrl_greyasteroid/protocol/arm_atsam/adc.o
                                                  .build/obj_massdrop_ctrl_greyasteroid/protocol/arm_atsam/usb/usb2422.o
v_con_2                                           .build/obj_massdrop_ctrl_greyasteroid/protocol/arm_atsam/adc.o
                                                  .build/obj_massdrop_ctrl_greyasteroid/protocol/arm_atsam/usb/usb2422.o
v_con_2_boot                                      .build/obj_massdrop_ctrl_greyasteroid/protocol/arm_atsam/adc.o
                                                  .build/obj_massdrop_ctrl_greyasteroid/protocol/arm_atsam/usb/usb2422.o
